ARM GAS  C:\Users\Student\AppData\Local\Temp\ccdrW8qA.s 			page 1


   1              		.cpu cortex-m7
   2              		.eabi_attribute 27, 1
   3              		.eabi_attribute 28, 1
   4              		.eabi_attribute 20, 1
   5              		.eabi_attribute 21, 1
   6              		.eabi_attribute 23, 3
   7              		.eabi_attribute 24, 1
   8              		.eabi_attribute 25, 1
   9              		.eabi_attribute 26, 1
  10              		.eabi_attribute 30, 1
  11              		.eabi_attribute 34, 1
  12              		.eabi_attribute 18, 4
  13              		.file	"icmp.c"
  14              		.text
  15              	.Ltext0:
  16              		.cfi_sections	.debug_frame
  17              		.section	.text.icmp_send_response,"ax",%progbits
  18              		.align	1
  19              		.syntax unified
  20              		.thumb
  21              		.thumb_func
  22              		.fpu fpv5-sp-d16
  24              	icmp_send_response:
  25              	.LFB139:
  26              		.file 1 "Middlewares/Third_Party/LwIP/src/core/ipv4/icmp.c"
   1:Middlewares/Third_Party/LwIP/src/core/ipv4/icmp.c **** /**
   2:Middlewares/Third_Party/LwIP/src/core/ipv4/icmp.c ****  * @file
   3:Middlewares/Third_Party/LwIP/src/core/ipv4/icmp.c ****  * ICMP - Internet Control Message Protocol
   4:Middlewares/Third_Party/LwIP/src/core/ipv4/icmp.c ****  *
   5:Middlewares/Third_Party/LwIP/src/core/ipv4/icmp.c ****  */
   6:Middlewares/Third_Party/LwIP/src/core/ipv4/icmp.c **** 
   7:Middlewares/Third_Party/LwIP/src/core/ipv4/icmp.c **** /*
   8:Middlewares/Third_Party/LwIP/src/core/ipv4/icmp.c ****  * Copyright (c) 2001-2004 Swedish Institute of Computer Science.
   9:Middlewares/Third_Party/LwIP/src/core/ipv4/icmp.c ****  * All rights reserved.
  10:Middlewares/Third_Party/LwIP/src/core/ipv4/icmp.c ****  *
  11:Middlewares/Third_Party/LwIP/src/core/ipv4/icmp.c ****  * Redistribution and use in source and binary forms, with or without modification,
  12:Middlewares/Third_Party/LwIP/src/core/ipv4/icmp.c ****  * are permitted provided that the following conditions are met:
  13:Middlewares/Third_Party/LwIP/src/core/ipv4/icmp.c ****  *
  14:Middlewares/Third_Party/LwIP/src/core/ipv4/icmp.c ****  * 1. Redistributions of source code must retain the above copyright notice,
  15:Middlewares/Third_Party/LwIP/src/core/ipv4/icmp.c ****  *    this list of conditions and the following disclaimer.
  16:Middlewares/Third_Party/LwIP/src/core/ipv4/icmp.c ****  * 2. Redistributions in binary form must reproduce the above copyright notice,
  17:Middlewares/Third_Party/LwIP/src/core/ipv4/icmp.c ****  *    this list of conditions and the following disclaimer in the documentation
  18:Middlewares/Third_Party/LwIP/src/core/ipv4/icmp.c ****  *    and/or other materials provided with the distribution.
  19:Middlewares/Third_Party/LwIP/src/core/ipv4/icmp.c ****  * 3. The name of the author may not be used to endorse or promote products
  20:Middlewares/Third_Party/LwIP/src/core/ipv4/icmp.c ****  *    derived from this software without specific prior written permission.
  21:Middlewares/Third_Party/LwIP/src/core/ipv4/icmp.c ****  *
  22:Middlewares/Third_Party/LwIP/src/core/ipv4/icmp.c ****  * THIS SOFTWARE IS PROVIDED BY THE AUTHOR ``AS IS'' AND ANY EXPRESS OR IMPLIED
  23:Middlewares/Third_Party/LwIP/src/core/ipv4/icmp.c ****  * WARRANTIES, INCLUDING, BUT NOT LIMITED TO, THE IMPLIED WARRANTIES OF
  24:Middlewares/Third_Party/LwIP/src/core/ipv4/icmp.c ****  * MERCHANTABILITY AND FITNESS FOR A PARTICULAR PURPOSE ARE DISCLAIMED. IN NO EVENT
  25:Middlewares/Third_Party/LwIP/src/core/ipv4/icmp.c ****  * SHALL THE AUTHOR BE LIABLE FOR ANY DIRECT, INDIRECT, INCIDENTAL, SPECIAL,
  26:Middlewares/Third_Party/LwIP/src/core/ipv4/icmp.c ****  * EXEMPLARY, OR CONSEQUENTIAL DAMAGES (INCLUDING, BUT NOT LIMITED TO, PROCUREMENT
  27:Middlewares/Third_Party/LwIP/src/core/ipv4/icmp.c ****  * OF SUBSTITUTE GOODS OR SERVICES; LOSS OF USE, DATA, OR PROFITS; OR BUSINESS
  28:Middlewares/Third_Party/LwIP/src/core/ipv4/icmp.c ****  * INTERRUPTION) HOWEVER CAUSED AND ON ANY THEORY OF LIABILITY, WHETHER IN
  29:Middlewares/Third_Party/LwIP/src/core/ipv4/icmp.c ****  * CONTRACT, STRICT LIABILITY, OR TORT (INCLUDING NEGLIGENCE OR OTHERWISE) ARISING
  30:Middlewares/Third_Party/LwIP/src/core/ipv4/icmp.c ****  * IN ANY WAY OUT OF THE USE OF THIS SOFTWARE, EVEN IF ADVISED OF THE POSSIBILITY
  31:Middlewares/Third_Party/LwIP/src/core/ipv4/icmp.c ****  * OF SUCH DAMAGE.
  32:Middlewares/Third_Party/LwIP/src/core/ipv4/icmp.c ****  *
ARM GAS  C:\Users\Student\AppData\Local\Temp\ccdrW8qA.s 			page 2


  33:Middlewares/Third_Party/LwIP/src/core/ipv4/icmp.c ****  * This file is part of the lwIP TCP/IP stack.
  34:Middlewares/Third_Party/LwIP/src/core/ipv4/icmp.c ****  *
  35:Middlewares/Third_Party/LwIP/src/core/ipv4/icmp.c ****  * Author: Adam Dunkels <adam@sics.se>
  36:Middlewares/Third_Party/LwIP/src/core/ipv4/icmp.c ****  *
  37:Middlewares/Third_Party/LwIP/src/core/ipv4/icmp.c ****  */
  38:Middlewares/Third_Party/LwIP/src/core/ipv4/icmp.c **** 
  39:Middlewares/Third_Party/LwIP/src/core/ipv4/icmp.c **** /* Some ICMP messages should be passed to the transport protocols. This
  40:Middlewares/Third_Party/LwIP/src/core/ipv4/icmp.c ****    is not implemented. */
  41:Middlewares/Third_Party/LwIP/src/core/ipv4/icmp.c **** 
  42:Middlewares/Third_Party/LwIP/src/core/ipv4/icmp.c **** #include "lwip/opt.h"
  43:Middlewares/Third_Party/LwIP/src/core/ipv4/icmp.c **** 
  44:Middlewares/Third_Party/LwIP/src/core/ipv4/icmp.c **** #if LWIP_IPV4 && LWIP_ICMP /* don't build if not configured for use in lwipopts.h */
  45:Middlewares/Third_Party/LwIP/src/core/ipv4/icmp.c **** 
  46:Middlewares/Third_Party/LwIP/src/core/ipv4/icmp.c **** #include "lwip/icmp.h"
  47:Middlewares/Third_Party/LwIP/src/core/ipv4/icmp.c **** #include "lwip/inet_chksum.h"
  48:Middlewares/Third_Party/LwIP/src/core/ipv4/icmp.c **** #include "lwip/ip.h"
  49:Middlewares/Third_Party/LwIP/src/core/ipv4/icmp.c **** #include "lwip/def.h"
  50:Middlewares/Third_Party/LwIP/src/core/ipv4/icmp.c **** #include "lwip/stats.h"
  51:Middlewares/Third_Party/LwIP/src/core/ipv4/icmp.c **** 
  52:Middlewares/Third_Party/LwIP/src/core/ipv4/icmp.c **** #include <string.h>
  53:Middlewares/Third_Party/LwIP/src/core/ipv4/icmp.c **** 
  54:Middlewares/Third_Party/LwIP/src/core/ipv4/icmp.c **** /** Small optimization: set to 0 if incoming PBUF_POOL pbuf always can be
  55:Middlewares/Third_Party/LwIP/src/core/ipv4/icmp.c ****  * used to modify and send a response packet (and to 1 if this is not the case,
  56:Middlewares/Third_Party/LwIP/src/core/ipv4/icmp.c ****  * e.g. when link header is stripped of when receiving) */
  57:Middlewares/Third_Party/LwIP/src/core/ipv4/icmp.c **** #ifndef LWIP_ICMP_ECHO_CHECK_INPUT_PBUF_LEN
  58:Middlewares/Third_Party/LwIP/src/core/ipv4/icmp.c **** #define LWIP_ICMP_ECHO_CHECK_INPUT_PBUF_LEN 1
  59:Middlewares/Third_Party/LwIP/src/core/ipv4/icmp.c **** #endif /* LWIP_ICMP_ECHO_CHECK_INPUT_PBUF_LEN */
  60:Middlewares/Third_Party/LwIP/src/core/ipv4/icmp.c **** 
  61:Middlewares/Third_Party/LwIP/src/core/ipv4/icmp.c **** /* The amount of data from the original packet to return in a dest-unreachable */
  62:Middlewares/Third_Party/LwIP/src/core/ipv4/icmp.c **** #define ICMP_DEST_UNREACH_DATASIZE 8
  63:Middlewares/Third_Party/LwIP/src/core/ipv4/icmp.c **** 
  64:Middlewares/Third_Party/LwIP/src/core/ipv4/icmp.c **** static void icmp_send_response(struct pbuf *p, u8_t type, u8_t code);
  65:Middlewares/Third_Party/LwIP/src/core/ipv4/icmp.c **** 
  66:Middlewares/Third_Party/LwIP/src/core/ipv4/icmp.c **** /**
  67:Middlewares/Third_Party/LwIP/src/core/ipv4/icmp.c ****  * Processes ICMP input packets, called from ip_input().
  68:Middlewares/Third_Party/LwIP/src/core/ipv4/icmp.c ****  *
  69:Middlewares/Third_Party/LwIP/src/core/ipv4/icmp.c ****  * Currently only processes icmp echo requests and sends
  70:Middlewares/Third_Party/LwIP/src/core/ipv4/icmp.c ****  * out the echo response.
  71:Middlewares/Third_Party/LwIP/src/core/ipv4/icmp.c ****  *
  72:Middlewares/Third_Party/LwIP/src/core/ipv4/icmp.c ****  * @param p the icmp echo request packet, p->payload pointing to the icmp header
  73:Middlewares/Third_Party/LwIP/src/core/ipv4/icmp.c ****  * @param inp the netif on which this packet was received
  74:Middlewares/Third_Party/LwIP/src/core/ipv4/icmp.c ****  */
  75:Middlewares/Third_Party/LwIP/src/core/ipv4/icmp.c **** void
  76:Middlewares/Third_Party/LwIP/src/core/ipv4/icmp.c **** icmp_input(struct pbuf *p, struct netif *inp)
  77:Middlewares/Third_Party/LwIP/src/core/ipv4/icmp.c **** {
  78:Middlewares/Third_Party/LwIP/src/core/ipv4/icmp.c ****   u8_t type;
  79:Middlewares/Third_Party/LwIP/src/core/ipv4/icmp.c **** #ifdef LWIP_DEBUG
  80:Middlewares/Third_Party/LwIP/src/core/ipv4/icmp.c ****   u8_t code;
  81:Middlewares/Third_Party/LwIP/src/core/ipv4/icmp.c **** #endif /* LWIP_DEBUG */
  82:Middlewares/Third_Party/LwIP/src/core/ipv4/icmp.c ****   struct icmp_echo_hdr *iecho;
  83:Middlewares/Third_Party/LwIP/src/core/ipv4/icmp.c ****   const struct ip_hdr *iphdr_in;
  84:Middlewares/Third_Party/LwIP/src/core/ipv4/icmp.c ****   s16_t hlen;
  85:Middlewares/Third_Party/LwIP/src/core/ipv4/icmp.c ****   const ip4_addr_t* src;
  86:Middlewares/Third_Party/LwIP/src/core/ipv4/icmp.c **** 
  87:Middlewares/Third_Party/LwIP/src/core/ipv4/icmp.c ****   ICMP_STATS_INC(icmp.recv);
  88:Middlewares/Third_Party/LwIP/src/core/ipv4/icmp.c ****   MIB2_STATS_INC(mib2.icmpinmsgs);
  89:Middlewares/Third_Party/LwIP/src/core/ipv4/icmp.c **** 
ARM GAS  C:\Users\Student\AppData\Local\Temp\ccdrW8qA.s 			page 3


  90:Middlewares/Third_Party/LwIP/src/core/ipv4/icmp.c ****   iphdr_in = ip4_current_header();
  91:Middlewares/Third_Party/LwIP/src/core/ipv4/icmp.c ****   hlen = IPH_HL(iphdr_in) * 4;
  92:Middlewares/Third_Party/LwIP/src/core/ipv4/icmp.c ****   if (hlen < IP_HLEN) {
  93:Middlewares/Third_Party/LwIP/src/core/ipv4/icmp.c ****     LWIP_DEBUGF(ICMP_DEBUG, ("icmp_input: short IP header (%"S16_F" bytes) received\n", hlen));
  94:Middlewares/Third_Party/LwIP/src/core/ipv4/icmp.c ****     goto lenerr;
  95:Middlewares/Third_Party/LwIP/src/core/ipv4/icmp.c ****   }
  96:Middlewares/Third_Party/LwIP/src/core/ipv4/icmp.c ****   if (p->len < sizeof(u16_t)*2) {
  97:Middlewares/Third_Party/LwIP/src/core/ipv4/icmp.c ****     LWIP_DEBUGF(ICMP_DEBUG, ("icmp_input: short ICMP (%"U16_F" bytes) received\n", p->tot_len));
  98:Middlewares/Third_Party/LwIP/src/core/ipv4/icmp.c ****     goto lenerr;
  99:Middlewares/Third_Party/LwIP/src/core/ipv4/icmp.c ****   }
 100:Middlewares/Third_Party/LwIP/src/core/ipv4/icmp.c **** 
 101:Middlewares/Third_Party/LwIP/src/core/ipv4/icmp.c ****   type = *((u8_t *)p->payload);
 102:Middlewares/Third_Party/LwIP/src/core/ipv4/icmp.c **** #ifdef LWIP_DEBUG
 103:Middlewares/Third_Party/LwIP/src/core/ipv4/icmp.c ****   code = *(((u8_t *)p->payload)+1);
 104:Middlewares/Third_Party/LwIP/src/core/ipv4/icmp.c **** #endif /* LWIP_DEBUG */
 105:Middlewares/Third_Party/LwIP/src/core/ipv4/icmp.c ****   switch (type) {
 106:Middlewares/Third_Party/LwIP/src/core/ipv4/icmp.c ****   case ICMP_ER:
 107:Middlewares/Third_Party/LwIP/src/core/ipv4/icmp.c ****     /* This is OK, echo reply might have been parsed by a raw PCB
 108:Middlewares/Third_Party/LwIP/src/core/ipv4/icmp.c ****        (as obviously, an echo request has been sent, too). */
 109:Middlewares/Third_Party/LwIP/src/core/ipv4/icmp.c ****     MIB2_STATS_INC(mib2.icmpinechoreps);
 110:Middlewares/Third_Party/LwIP/src/core/ipv4/icmp.c ****     break;
 111:Middlewares/Third_Party/LwIP/src/core/ipv4/icmp.c ****   case ICMP_ECHO:
 112:Middlewares/Third_Party/LwIP/src/core/ipv4/icmp.c ****     MIB2_STATS_INC(mib2.icmpinechos);
 113:Middlewares/Third_Party/LwIP/src/core/ipv4/icmp.c ****     src = ip4_current_dest_addr();
 114:Middlewares/Third_Party/LwIP/src/core/ipv4/icmp.c ****     /* multicast destination address? */
 115:Middlewares/Third_Party/LwIP/src/core/ipv4/icmp.c ****     if (ip4_addr_ismulticast(ip4_current_dest_addr())) {
 116:Middlewares/Third_Party/LwIP/src/core/ipv4/icmp.c **** #if LWIP_MULTICAST_PING
 117:Middlewares/Third_Party/LwIP/src/core/ipv4/icmp.c ****       /* For multicast, use address of receiving interface as source address */
 118:Middlewares/Third_Party/LwIP/src/core/ipv4/icmp.c ****       src = netif_ip4_addr(inp);
 119:Middlewares/Third_Party/LwIP/src/core/ipv4/icmp.c **** #else /* LWIP_MULTICAST_PING */
 120:Middlewares/Third_Party/LwIP/src/core/ipv4/icmp.c ****       LWIP_DEBUGF(ICMP_DEBUG, ("icmp_input: Not echoing to multicast pings\n"));
 121:Middlewares/Third_Party/LwIP/src/core/ipv4/icmp.c ****       goto icmperr;
 122:Middlewares/Third_Party/LwIP/src/core/ipv4/icmp.c **** #endif /* LWIP_MULTICAST_PING */
 123:Middlewares/Third_Party/LwIP/src/core/ipv4/icmp.c ****     }
 124:Middlewares/Third_Party/LwIP/src/core/ipv4/icmp.c ****     /* broadcast destination address? */
 125:Middlewares/Third_Party/LwIP/src/core/ipv4/icmp.c ****     if (ip4_addr_isbroadcast(ip4_current_dest_addr(), ip_current_netif())) {
 126:Middlewares/Third_Party/LwIP/src/core/ipv4/icmp.c **** #if LWIP_BROADCAST_PING
 127:Middlewares/Third_Party/LwIP/src/core/ipv4/icmp.c ****       /* For broadcast, use address of receiving interface as source address */
 128:Middlewares/Third_Party/LwIP/src/core/ipv4/icmp.c ****       src = netif_ip4_addr(inp);
 129:Middlewares/Third_Party/LwIP/src/core/ipv4/icmp.c **** #else /* LWIP_BROADCAST_PING */
 130:Middlewares/Third_Party/LwIP/src/core/ipv4/icmp.c ****       LWIP_DEBUGF(ICMP_DEBUG, ("icmp_input: Not echoing to broadcast pings\n"));
 131:Middlewares/Third_Party/LwIP/src/core/ipv4/icmp.c ****       goto icmperr;
 132:Middlewares/Third_Party/LwIP/src/core/ipv4/icmp.c **** #endif /* LWIP_BROADCAST_PING */
 133:Middlewares/Third_Party/LwIP/src/core/ipv4/icmp.c ****     }
 134:Middlewares/Third_Party/LwIP/src/core/ipv4/icmp.c ****     LWIP_DEBUGF(ICMP_DEBUG, ("icmp_input: ping\n"));
 135:Middlewares/Third_Party/LwIP/src/core/ipv4/icmp.c ****     if (p->tot_len < sizeof(struct icmp_echo_hdr)) {
 136:Middlewares/Third_Party/LwIP/src/core/ipv4/icmp.c ****       LWIP_DEBUGF(ICMP_DEBUG, ("icmp_input: bad ICMP echo received\n"));
 137:Middlewares/Third_Party/LwIP/src/core/ipv4/icmp.c ****       goto lenerr;
 138:Middlewares/Third_Party/LwIP/src/core/ipv4/icmp.c ****     }
 139:Middlewares/Third_Party/LwIP/src/core/ipv4/icmp.c **** #if CHECKSUM_CHECK_ICMP
 140:Middlewares/Third_Party/LwIP/src/core/ipv4/icmp.c ****     IF__NETIF_CHECKSUM_ENABLED(inp, NETIF_CHECKSUM_CHECK_ICMP) {
 141:Middlewares/Third_Party/LwIP/src/core/ipv4/icmp.c ****       if (inet_chksum_pbuf(p) != 0) {
 142:Middlewares/Third_Party/LwIP/src/core/ipv4/icmp.c ****         LWIP_DEBUGF(ICMP_DEBUG, ("icmp_input: checksum failed for received ICMP echo\n"));
 143:Middlewares/Third_Party/LwIP/src/core/ipv4/icmp.c ****         pbuf_free(p);
 144:Middlewares/Third_Party/LwIP/src/core/ipv4/icmp.c ****         ICMP_STATS_INC(icmp.chkerr);
 145:Middlewares/Third_Party/LwIP/src/core/ipv4/icmp.c ****         MIB2_STATS_INC(mib2.icmpinerrors);
 146:Middlewares/Third_Party/LwIP/src/core/ipv4/icmp.c ****         return;
ARM GAS  C:\Users\Student\AppData\Local\Temp\ccdrW8qA.s 			page 4


 147:Middlewares/Third_Party/LwIP/src/core/ipv4/icmp.c ****       }
 148:Middlewares/Third_Party/LwIP/src/core/ipv4/icmp.c ****     }
 149:Middlewares/Third_Party/LwIP/src/core/ipv4/icmp.c **** #endif
 150:Middlewares/Third_Party/LwIP/src/core/ipv4/icmp.c **** #if LWIP_ICMP_ECHO_CHECK_INPUT_PBUF_LEN
 151:Middlewares/Third_Party/LwIP/src/core/ipv4/icmp.c ****     if (pbuf_header(p, (hlen + PBUF_LINK_HLEN + PBUF_LINK_ENCAPSULATION_HLEN))) {
 152:Middlewares/Third_Party/LwIP/src/core/ipv4/icmp.c ****       /* p is not big enough to contain link headers
 153:Middlewares/Third_Party/LwIP/src/core/ipv4/icmp.c ****        * allocate a new one and copy p into it
 154:Middlewares/Third_Party/LwIP/src/core/ipv4/icmp.c ****        */
 155:Middlewares/Third_Party/LwIP/src/core/ipv4/icmp.c ****       struct pbuf *r;
 156:Middlewares/Third_Party/LwIP/src/core/ipv4/icmp.c ****       /* allocate new packet buffer with space for link headers */
 157:Middlewares/Third_Party/LwIP/src/core/ipv4/icmp.c ****       r = pbuf_alloc(PBUF_LINK, p->tot_len + hlen, PBUF_RAM);
 158:Middlewares/Third_Party/LwIP/src/core/ipv4/icmp.c ****       if (r == NULL) {
 159:Middlewares/Third_Party/LwIP/src/core/ipv4/icmp.c ****         LWIP_DEBUGF(ICMP_DEBUG, ("icmp_input: allocating new pbuf failed\n"));
 160:Middlewares/Third_Party/LwIP/src/core/ipv4/icmp.c ****         goto icmperr;
 161:Middlewares/Third_Party/LwIP/src/core/ipv4/icmp.c ****       }
 162:Middlewares/Third_Party/LwIP/src/core/ipv4/icmp.c ****       if (r->len < hlen + sizeof(struct icmp_echo_hdr)) {
 163:Middlewares/Third_Party/LwIP/src/core/ipv4/icmp.c ****         LWIP_DEBUGF(ICMP_DEBUG | LWIP_DBG_LEVEL_SERIOUS, ("first pbuf cannot hold the ICMP header")
 164:Middlewares/Third_Party/LwIP/src/core/ipv4/icmp.c ****         pbuf_free(r);
 165:Middlewares/Third_Party/LwIP/src/core/ipv4/icmp.c ****         goto icmperr;
 166:Middlewares/Third_Party/LwIP/src/core/ipv4/icmp.c ****       }
 167:Middlewares/Third_Party/LwIP/src/core/ipv4/icmp.c ****       /* copy the ip header */
 168:Middlewares/Third_Party/LwIP/src/core/ipv4/icmp.c ****       MEMCPY(r->payload, iphdr_in, hlen);
 169:Middlewares/Third_Party/LwIP/src/core/ipv4/icmp.c ****       /* switch r->payload back to icmp header (cannot fail) */
 170:Middlewares/Third_Party/LwIP/src/core/ipv4/icmp.c ****       if (pbuf_header(r, -hlen)) {
 171:Middlewares/Third_Party/LwIP/src/core/ipv4/icmp.c ****         LWIP_ASSERT("icmp_input: moving r->payload to icmp header failed\n", 0);
 172:Middlewares/Third_Party/LwIP/src/core/ipv4/icmp.c ****         pbuf_free(r);
 173:Middlewares/Third_Party/LwIP/src/core/ipv4/icmp.c ****         goto icmperr;
 174:Middlewares/Third_Party/LwIP/src/core/ipv4/icmp.c ****       }
 175:Middlewares/Third_Party/LwIP/src/core/ipv4/icmp.c ****       /* copy the rest of the packet without ip header */
 176:Middlewares/Third_Party/LwIP/src/core/ipv4/icmp.c ****       if (pbuf_copy(r, p) != ERR_OK) {
 177:Middlewares/Third_Party/LwIP/src/core/ipv4/icmp.c ****         LWIP_DEBUGF(ICMP_DEBUG | LWIP_DBG_LEVEL_SERIOUS, ("icmp_input: copying to new pbuf failed")
 178:Middlewares/Third_Party/LwIP/src/core/ipv4/icmp.c ****         pbuf_free(r);
 179:Middlewares/Third_Party/LwIP/src/core/ipv4/icmp.c ****         goto icmperr;
 180:Middlewares/Third_Party/LwIP/src/core/ipv4/icmp.c ****       }
 181:Middlewares/Third_Party/LwIP/src/core/ipv4/icmp.c ****       /* free the original p */
 182:Middlewares/Third_Party/LwIP/src/core/ipv4/icmp.c ****       pbuf_free(p);
 183:Middlewares/Third_Party/LwIP/src/core/ipv4/icmp.c ****       /* we now have an identical copy of p that has room for link headers */
 184:Middlewares/Third_Party/LwIP/src/core/ipv4/icmp.c ****       p = r;
 185:Middlewares/Third_Party/LwIP/src/core/ipv4/icmp.c ****     } else {
 186:Middlewares/Third_Party/LwIP/src/core/ipv4/icmp.c ****       /* restore p->payload to point to icmp header (cannot fail) */
 187:Middlewares/Third_Party/LwIP/src/core/ipv4/icmp.c ****       if (pbuf_header(p, -(s16_t)(hlen + PBUF_LINK_HLEN + PBUF_LINK_ENCAPSULATION_HLEN))) {
 188:Middlewares/Third_Party/LwIP/src/core/ipv4/icmp.c ****         LWIP_ASSERT("icmp_input: restoring original p->payload failed\n", 0);
 189:Middlewares/Third_Party/LwIP/src/core/ipv4/icmp.c ****         goto icmperr;
 190:Middlewares/Third_Party/LwIP/src/core/ipv4/icmp.c ****       }
 191:Middlewares/Third_Party/LwIP/src/core/ipv4/icmp.c ****     }
 192:Middlewares/Third_Party/LwIP/src/core/ipv4/icmp.c **** #endif /* LWIP_ICMP_ECHO_CHECK_INPUT_PBUF_LEN */
 193:Middlewares/Third_Party/LwIP/src/core/ipv4/icmp.c ****     /* At this point, all checks are OK. */
 194:Middlewares/Third_Party/LwIP/src/core/ipv4/icmp.c ****     /* We generate an answer by switching the dest and src ip addresses,
 195:Middlewares/Third_Party/LwIP/src/core/ipv4/icmp.c ****      * setting the icmp type to ECHO_RESPONSE and updating the checksum. */
 196:Middlewares/Third_Party/LwIP/src/core/ipv4/icmp.c ****     iecho = (struct icmp_echo_hdr *)p->payload;
 197:Middlewares/Third_Party/LwIP/src/core/ipv4/icmp.c ****     if (pbuf_header(p, hlen)) {
 198:Middlewares/Third_Party/LwIP/src/core/ipv4/icmp.c ****       LWIP_DEBUGF(ICMP_DEBUG | LWIP_DBG_LEVEL_SERIOUS, ("Can't move over header in packet"));
 199:Middlewares/Third_Party/LwIP/src/core/ipv4/icmp.c ****     } else {
 200:Middlewares/Third_Party/LwIP/src/core/ipv4/icmp.c ****       err_t ret;
 201:Middlewares/Third_Party/LwIP/src/core/ipv4/icmp.c ****       struct ip_hdr *iphdr = (struct ip_hdr*)p->payload;
 202:Middlewares/Third_Party/LwIP/src/core/ipv4/icmp.c ****       ip4_addr_copy(iphdr->src, *src);
 203:Middlewares/Third_Party/LwIP/src/core/ipv4/icmp.c ****       ip4_addr_copy(iphdr->dest, *ip4_current_src_addr());
ARM GAS  C:\Users\Student\AppData\Local\Temp\ccdrW8qA.s 			page 5


 204:Middlewares/Third_Party/LwIP/src/core/ipv4/icmp.c ****       ICMPH_TYPE_SET(iecho, ICMP_ER);
 205:Middlewares/Third_Party/LwIP/src/core/ipv4/icmp.c **** #if CHECKSUM_GEN_ICMP
 206:Middlewares/Third_Party/LwIP/src/core/ipv4/icmp.c ****       IF__NETIF_CHECKSUM_ENABLED(inp, NETIF_CHECKSUM_GEN_ICMP) {
 207:Middlewares/Third_Party/LwIP/src/core/ipv4/icmp.c ****         /* adjust the checksum */
 208:Middlewares/Third_Party/LwIP/src/core/ipv4/icmp.c ****         if (iecho->chksum > PP_HTONS(0xffffU - (ICMP_ECHO << 8))) {
 209:Middlewares/Third_Party/LwIP/src/core/ipv4/icmp.c ****           iecho->chksum += PP_HTONS(ICMP_ECHO << 8) + 1;
 210:Middlewares/Third_Party/LwIP/src/core/ipv4/icmp.c ****         } else {
 211:Middlewares/Third_Party/LwIP/src/core/ipv4/icmp.c ****           iecho->chksum += PP_HTONS(ICMP_ECHO << 8);
 212:Middlewares/Third_Party/LwIP/src/core/ipv4/icmp.c ****         }
 213:Middlewares/Third_Party/LwIP/src/core/ipv4/icmp.c ****       }
 214:Middlewares/Third_Party/LwIP/src/core/ipv4/icmp.c **** #if LWIP_CHECKSUM_CTRL_PER_NETIF
 215:Middlewares/Third_Party/LwIP/src/core/ipv4/icmp.c ****       else {
 216:Middlewares/Third_Party/LwIP/src/core/ipv4/icmp.c ****         iecho->chksum = 0;
 217:Middlewares/Third_Party/LwIP/src/core/ipv4/icmp.c ****       }
 218:Middlewares/Third_Party/LwIP/src/core/ipv4/icmp.c **** #endif /* LWIP_CHECKSUM_CTRL_PER_NETIF */
 219:Middlewares/Third_Party/LwIP/src/core/ipv4/icmp.c **** #else /* CHECKSUM_GEN_ICMP */
 220:Middlewares/Third_Party/LwIP/src/core/ipv4/icmp.c ****       iecho->chksum = 0;
 221:Middlewares/Third_Party/LwIP/src/core/ipv4/icmp.c **** #endif /* CHECKSUM_GEN_ICMP */
 222:Middlewares/Third_Party/LwIP/src/core/ipv4/icmp.c **** 
 223:Middlewares/Third_Party/LwIP/src/core/ipv4/icmp.c ****       /* Set the correct TTL and recalculate the header checksum. */
 224:Middlewares/Third_Party/LwIP/src/core/ipv4/icmp.c ****       IPH_TTL_SET(iphdr, ICMP_TTL);
 225:Middlewares/Third_Party/LwIP/src/core/ipv4/icmp.c ****       IPH_CHKSUM_SET(iphdr, 0);
 226:Middlewares/Third_Party/LwIP/src/core/ipv4/icmp.c **** #if CHECKSUM_GEN_IP
 227:Middlewares/Third_Party/LwIP/src/core/ipv4/icmp.c ****       IF__NETIF_CHECKSUM_ENABLED(inp, NETIF_CHECKSUM_GEN_IP) {
 228:Middlewares/Third_Party/LwIP/src/core/ipv4/icmp.c ****         IPH_CHKSUM_SET(iphdr, inet_chksum(iphdr, hlen));
 229:Middlewares/Third_Party/LwIP/src/core/ipv4/icmp.c ****       }
 230:Middlewares/Third_Party/LwIP/src/core/ipv4/icmp.c **** #endif /* CHECKSUM_GEN_IP */
 231:Middlewares/Third_Party/LwIP/src/core/ipv4/icmp.c **** 
 232:Middlewares/Third_Party/LwIP/src/core/ipv4/icmp.c ****       ICMP_STATS_INC(icmp.xmit);
 233:Middlewares/Third_Party/LwIP/src/core/ipv4/icmp.c ****       /* increase number of messages attempted to send */
 234:Middlewares/Third_Party/LwIP/src/core/ipv4/icmp.c ****       MIB2_STATS_INC(mib2.icmpoutmsgs);
 235:Middlewares/Third_Party/LwIP/src/core/ipv4/icmp.c ****       /* increase number of echo replies attempted to send */
 236:Middlewares/Third_Party/LwIP/src/core/ipv4/icmp.c ****       MIB2_STATS_INC(mib2.icmpoutechoreps);
 237:Middlewares/Third_Party/LwIP/src/core/ipv4/icmp.c **** 
 238:Middlewares/Third_Party/LwIP/src/core/ipv4/icmp.c ****       /* send an ICMP packet */
 239:Middlewares/Third_Party/LwIP/src/core/ipv4/icmp.c ****       ret = ip4_output_if(p, src, LWIP_IP_HDRINCL,
 240:Middlewares/Third_Party/LwIP/src/core/ipv4/icmp.c ****                    ICMP_TTL, 0, IP_PROTO_ICMP, inp);
 241:Middlewares/Third_Party/LwIP/src/core/ipv4/icmp.c ****       if (ret != ERR_OK) {
 242:Middlewares/Third_Party/LwIP/src/core/ipv4/icmp.c ****         LWIP_DEBUGF(ICMP_DEBUG, ("icmp_input: ip_output_if returned an error: %s\n", lwip_strerr(re
 243:Middlewares/Third_Party/LwIP/src/core/ipv4/icmp.c ****       }
 244:Middlewares/Third_Party/LwIP/src/core/ipv4/icmp.c ****     }
 245:Middlewares/Third_Party/LwIP/src/core/ipv4/icmp.c ****     break;
 246:Middlewares/Third_Party/LwIP/src/core/ipv4/icmp.c ****   default:
 247:Middlewares/Third_Party/LwIP/src/core/ipv4/icmp.c ****     if (type == ICMP_DUR) {
 248:Middlewares/Third_Party/LwIP/src/core/ipv4/icmp.c ****       MIB2_STATS_INC(mib2.icmpindestunreachs);
 249:Middlewares/Third_Party/LwIP/src/core/ipv4/icmp.c ****     } else if (type == ICMP_TE) {
 250:Middlewares/Third_Party/LwIP/src/core/ipv4/icmp.c ****       MIB2_STATS_INC(mib2.icmpindestunreachs);
 251:Middlewares/Third_Party/LwIP/src/core/ipv4/icmp.c ****     } else if (type == ICMP_PP) {
 252:Middlewares/Third_Party/LwIP/src/core/ipv4/icmp.c ****       MIB2_STATS_INC(mib2.icmpinparmprobs);
 253:Middlewares/Third_Party/LwIP/src/core/ipv4/icmp.c ****     } else if (type == ICMP_SQ) {
 254:Middlewares/Third_Party/LwIP/src/core/ipv4/icmp.c ****       MIB2_STATS_INC(mib2.icmpinsrcquenchs);
 255:Middlewares/Third_Party/LwIP/src/core/ipv4/icmp.c ****     } else if (type == ICMP_RD) {
 256:Middlewares/Third_Party/LwIP/src/core/ipv4/icmp.c ****       MIB2_STATS_INC(mib2.icmpinredirects);
 257:Middlewares/Third_Party/LwIP/src/core/ipv4/icmp.c ****     } else if (type == ICMP_TS) {
 258:Middlewares/Third_Party/LwIP/src/core/ipv4/icmp.c ****       MIB2_STATS_INC(mib2.icmpintimestamps);
 259:Middlewares/Third_Party/LwIP/src/core/ipv4/icmp.c ****     } else if (type == ICMP_TSR) {
 260:Middlewares/Third_Party/LwIP/src/core/ipv4/icmp.c ****       MIB2_STATS_INC(mib2.icmpintimestampreps);
ARM GAS  C:\Users\Student\AppData\Local\Temp\ccdrW8qA.s 			page 6


 261:Middlewares/Third_Party/LwIP/src/core/ipv4/icmp.c ****     } else if (type == ICMP_AM) {
 262:Middlewares/Third_Party/LwIP/src/core/ipv4/icmp.c ****       MIB2_STATS_INC(mib2.icmpinaddrmasks);
 263:Middlewares/Third_Party/LwIP/src/core/ipv4/icmp.c ****     } else if (type == ICMP_AMR) {
 264:Middlewares/Third_Party/LwIP/src/core/ipv4/icmp.c ****       MIB2_STATS_INC(mib2.icmpinaddrmaskreps);
 265:Middlewares/Third_Party/LwIP/src/core/ipv4/icmp.c ****     }
 266:Middlewares/Third_Party/LwIP/src/core/ipv4/icmp.c ****     LWIP_DEBUGF(ICMP_DEBUG, ("icmp_input: ICMP type %"S16_F" code %"S16_F" not supported.\n",
 267:Middlewares/Third_Party/LwIP/src/core/ipv4/icmp.c ****                 (s16_t)type, (s16_t)code));
 268:Middlewares/Third_Party/LwIP/src/core/ipv4/icmp.c ****     ICMP_STATS_INC(icmp.proterr);
 269:Middlewares/Third_Party/LwIP/src/core/ipv4/icmp.c ****     ICMP_STATS_INC(icmp.drop);
 270:Middlewares/Third_Party/LwIP/src/core/ipv4/icmp.c ****   }
 271:Middlewares/Third_Party/LwIP/src/core/ipv4/icmp.c ****   pbuf_free(p);
 272:Middlewares/Third_Party/LwIP/src/core/ipv4/icmp.c ****   return;
 273:Middlewares/Third_Party/LwIP/src/core/ipv4/icmp.c **** lenerr:
 274:Middlewares/Third_Party/LwIP/src/core/ipv4/icmp.c ****   pbuf_free(p);
 275:Middlewares/Third_Party/LwIP/src/core/ipv4/icmp.c ****   ICMP_STATS_INC(icmp.lenerr);
 276:Middlewares/Third_Party/LwIP/src/core/ipv4/icmp.c ****   MIB2_STATS_INC(mib2.icmpinerrors);
 277:Middlewares/Third_Party/LwIP/src/core/ipv4/icmp.c ****   return;
 278:Middlewares/Third_Party/LwIP/src/core/ipv4/icmp.c **** #if LWIP_ICMP_ECHO_CHECK_INPUT_PBUF_LEN || !LWIP_MULTICAST_PING || !LWIP_BROADCAST_PING
 279:Middlewares/Third_Party/LwIP/src/core/ipv4/icmp.c **** icmperr:
 280:Middlewares/Third_Party/LwIP/src/core/ipv4/icmp.c ****   pbuf_free(p);
 281:Middlewares/Third_Party/LwIP/src/core/ipv4/icmp.c ****   ICMP_STATS_INC(icmp.err);
 282:Middlewares/Third_Party/LwIP/src/core/ipv4/icmp.c ****   MIB2_STATS_INC(mib2.icmpinerrors);
 283:Middlewares/Third_Party/LwIP/src/core/ipv4/icmp.c ****   return;
 284:Middlewares/Third_Party/LwIP/src/core/ipv4/icmp.c **** #endif /* LWIP_ICMP_ECHO_CHECK_INPUT_PBUF_LEN || !LWIP_MULTICAST_PING || !LWIP_BROADCAST_PING */
 285:Middlewares/Third_Party/LwIP/src/core/ipv4/icmp.c **** }
 286:Middlewares/Third_Party/LwIP/src/core/ipv4/icmp.c **** 
 287:Middlewares/Third_Party/LwIP/src/core/ipv4/icmp.c **** /**
 288:Middlewares/Third_Party/LwIP/src/core/ipv4/icmp.c ****  * Send an icmp 'destination unreachable' packet, called from ip_input() if
 289:Middlewares/Third_Party/LwIP/src/core/ipv4/icmp.c ****  * the transport layer protocol is unknown and from udp_input() if the local
 290:Middlewares/Third_Party/LwIP/src/core/ipv4/icmp.c ****  * port is not bound.
 291:Middlewares/Third_Party/LwIP/src/core/ipv4/icmp.c ****  *
 292:Middlewares/Third_Party/LwIP/src/core/ipv4/icmp.c ****  * @param p the input packet for which the 'unreachable' should be sent,
 293:Middlewares/Third_Party/LwIP/src/core/ipv4/icmp.c ****  *          p->payload pointing to the IP header
 294:Middlewares/Third_Party/LwIP/src/core/ipv4/icmp.c ****  * @param t type of the 'unreachable' packet
 295:Middlewares/Third_Party/LwIP/src/core/ipv4/icmp.c ****  */
 296:Middlewares/Third_Party/LwIP/src/core/ipv4/icmp.c **** void
 297:Middlewares/Third_Party/LwIP/src/core/ipv4/icmp.c **** icmp_dest_unreach(struct pbuf *p, enum icmp_dur_type t)
 298:Middlewares/Third_Party/LwIP/src/core/ipv4/icmp.c **** {
 299:Middlewares/Third_Party/LwIP/src/core/ipv4/icmp.c ****   MIB2_STATS_INC(mib2.icmpoutdestunreachs);
 300:Middlewares/Third_Party/LwIP/src/core/ipv4/icmp.c ****   icmp_send_response(p, ICMP_DUR, t);
 301:Middlewares/Third_Party/LwIP/src/core/ipv4/icmp.c **** }
 302:Middlewares/Third_Party/LwIP/src/core/ipv4/icmp.c **** 
 303:Middlewares/Third_Party/LwIP/src/core/ipv4/icmp.c **** #if IP_FORWARD || IP_REASSEMBLY
 304:Middlewares/Third_Party/LwIP/src/core/ipv4/icmp.c **** /**
 305:Middlewares/Third_Party/LwIP/src/core/ipv4/icmp.c ****  * Send a 'time exceeded' packet, called from ip_forward() if TTL is 0.
 306:Middlewares/Third_Party/LwIP/src/core/ipv4/icmp.c ****  *
 307:Middlewares/Third_Party/LwIP/src/core/ipv4/icmp.c ****  * @param p the input packet for which the 'time exceeded' should be sent,
 308:Middlewares/Third_Party/LwIP/src/core/ipv4/icmp.c ****  *          p->payload pointing to the IP header
 309:Middlewares/Third_Party/LwIP/src/core/ipv4/icmp.c ****  * @param t type of the 'time exceeded' packet
 310:Middlewares/Third_Party/LwIP/src/core/ipv4/icmp.c ****  */
 311:Middlewares/Third_Party/LwIP/src/core/ipv4/icmp.c **** void
 312:Middlewares/Third_Party/LwIP/src/core/ipv4/icmp.c **** icmp_time_exceeded(struct pbuf *p, enum icmp_te_type t)
 313:Middlewares/Third_Party/LwIP/src/core/ipv4/icmp.c **** {
 314:Middlewares/Third_Party/LwIP/src/core/ipv4/icmp.c ****   MIB2_STATS_INC(mib2.icmpouttimeexcds);
 315:Middlewares/Third_Party/LwIP/src/core/ipv4/icmp.c ****   icmp_send_response(p, ICMP_TE, t);
 316:Middlewares/Third_Party/LwIP/src/core/ipv4/icmp.c **** }
 317:Middlewares/Third_Party/LwIP/src/core/ipv4/icmp.c **** 
ARM GAS  C:\Users\Student\AppData\Local\Temp\ccdrW8qA.s 			page 7


 318:Middlewares/Third_Party/LwIP/src/core/ipv4/icmp.c **** #endif /* IP_FORWARD || IP_REASSEMBLY */
 319:Middlewares/Third_Party/LwIP/src/core/ipv4/icmp.c **** 
 320:Middlewares/Third_Party/LwIP/src/core/ipv4/icmp.c **** /**
 321:Middlewares/Third_Party/LwIP/src/core/ipv4/icmp.c ****  * Send an icmp packet in response to an incoming packet.
 322:Middlewares/Third_Party/LwIP/src/core/ipv4/icmp.c ****  *
 323:Middlewares/Third_Party/LwIP/src/core/ipv4/icmp.c ****  * @param p the input packet for which the 'unreachable' should be sent,
 324:Middlewares/Third_Party/LwIP/src/core/ipv4/icmp.c ****  *          p->payload pointing to the IP header
 325:Middlewares/Third_Party/LwIP/src/core/ipv4/icmp.c ****  * @param type Type of the ICMP header
 326:Middlewares/Third_Party/LwIP/src/core/ipv4/icmp.c ****  * @param code Code of the ICMP header
 327:Middlewares/Third_Party/LwIP/src/core/ipv4/icmp.c ****  */
 328:Middlewares/Third_Party/LwIP/src/core/ipv4/icmp.c **** static void
 329:Middlewares/Third_Party/LwIP/src/core/ipv4/icmp.c **** icmp_send_response(struct pbuf *p, u8_t type, u8_t code)
 330:Middlewares/Third_Party/LwIP/src/core/ipv4/icmp.c **** {
  27              		.loc 1 330 0
  28              		.cfi_startproc
  29              		@ args = 0, pretend = 0, frame = 8
  30              		@ frame_needed = 0, uses_anonymous_args = 0
  31              	.LVL0:
  32 0000 2DE9F041 		push	{r4, r5, r6, r7, r8, lr}
  33              	.LCFI0:
  34              		.cfi_def_cfa_offset 24
  35              		.cfi_offset 4, -24
  36              		.cfi_offset 5, -20
  37              		.cfi_offset 6, -16
  38              		.cfi_offset 7, -12
  39              		.cfi_offset 8, -8
  40              		.cfi_offset 14, -4
  41 0004 86B0     		sub	sp, sp, #24
  42              	.LCFI1:
  43              		.cfi_def_cfa_offset 48
  44 0006 0646     		mov	r6, r0
  45 0008 8846     		mov	r8, r1
  46 000a 1746     		mov	r7, r2
 331:Middlewares/Third_Party/LwIP/src/core/ipv4/icmp.c ****   struct pbuf *q;
 332:Middlewares/Third_Party/LwIP/src/core/ipv4/icmp.c ****   struct ip_hdr *iphdr;
 333:Middlewares/Third_Party/LwIP/src/core/ipv4/icmp.c ****   /* we can use the echo header here */
 334:Middlewares/Third_Party/LwIP/src/core/ipv4/icmp.c ****   struct icmp_echo_hdr *icmphdr;
 335:Middlewares/Third_Party/LwIP/src/core/ipv4/icmp.c ****   ip4_addr_t iphdr_src;
 336:Middlewares/Third_Party/LwIP/src/core/ipv4/icmp.c ****   struct netif *netif;
 337:Middlewares/Third_Party/LwIP/src/core/ipv4/icmp.c **** 
 338:Middlewares/Third_Party/LwIP/src/core/ipv4/icmp.c ****   /* increase number of messages attempted to send */
 339:Middlewares/Third_Party/LwIP/src/core/ipv4/icmp.c ****   MIB2_STATS_INC(mib2.icmpoutmsgs);
 340:Middlewares/Third_Party/LwIP/src/core/ipv4/icmp.c **** 
 341:Middlewares/Third_Party/LwIP/src/core/ipv4/icmp.c ****   /* ICMP header + IP header + 8 bytes of data */
 342:Middlewares/Third_Party/LwIP/src/core/ipv4/icmp.c ****   q = pbuf_alloc(PBUF_IP, sizeof(struct icmp_echo_hdr) + IP_HLEN + ICMP_DEST_UNREACH_DATASIZE,
  47              		.loc 1 342 0
  48 000c 0022     		movs	r2, #0
  49              	.LVL1:
  50 000e 2421     		movs	r1, #36
  51              	.LVL2:
  52 0010 0120     		movs	r0, #1
  53              	.LVL3:
  54 0012 FFF7FEFF 		bl	pbuf_alloc
  55              	.LVL4:
 343:Middlewares/Third_Party/LwIP/src/core/ipv4/icmp.c ****                  PBUF_RAM);
 344:Middlewares/Third_Party/LwIP/src/core/ipv4/icmp.c ****   if (q == NULL) {
  56              		.loc 1 344 0
ARM GAS  C:\Users\Student\AppData\Local\Temp\ccdrW8qA.s 			page 8


  57 0016 A0B3     		cbz	r0, .L1
  58 0018 0546     		mov	r5, r0
 345:Middlewares/Third_Party/LwIP/src/core/ipv4/icmp.c ****     LWIP_DEBUGF(ICMP_DEBUG, ("icmp_time_exceeded: failed to allocate pbuf for ICMP packet.\n"));
 346:Middlewares/Third_Party/LwIP/src/core/ipv4/icmp.c ****     MIB2_STATS_INC(mib2.icmpouterrors);
 347:Middlewares/Third_Party/LwIP/src/core/ipv4/icmp.c ****     return;
 348:Middlewares/Third_Party/LwIP/src/core/ipv4/icmp.c ****   }
 349:Middlewares/Third_Party/LwIP/src/core/ipv4/icmp.c ****   LWIP_ASSERT("check that first pbuf can hold icmp message",
 350:Middlewares/Third_Party/LwIP/src/core/ipv4/icmp.c ****              (q->len >= (sizeof(struct icmp_echo_hdr) + IP_HLEN + ICMP_DEST_UNREACH_DATASIZE)));
 351:Middlewares/Third_Party/LwIP/src/core/ipv4/icmp.c **** 
 352:Middlewares/Third_Party/LwIP/src/core/ipv4/icmp.c ****   iphdr = (struct ip_hdr *)p->payload;
  59              		.loc 1 352 0
  60 001a D6F804E0 		ldr	lr, [r6, #4]
  61              	.LVL5:
 353:Middlewares/Third_Party/LwIP/src/core/ipv4/icmp.c ****   LWIP_DEBUGF(ICMP_DEBUG, ("icmp_time_exceeded from "));
 354:Middlewares/Third_Party/LwIP/src/core/ipv4/icmp.c ****   ip4_addr_debug_print_val(ICMP_DEBUG, iphdr->src);
 355:Middlewares/Third_Party/LwIP/src/core/ipv4/icmp.c ****   LWIP_DEBUGF(ICMP_DEBUG, (" to "));
 356:Middlewares/Third_Party/LwIP/src/core/ipv4/icmp.c ****   ip4_addr_debug_print_val(ICMP_DEBUG, iphdr->dest);
 357:Middlewares/Third_Party/LwIP/src/core/ipv4/icmp.c ****   LWIP_DEBUGF(ICMP_DEBUG, ("\n"));
 358:Middlewares/Third_Party/LwIP/src/core/ipv4/icmp.c **** 
 359:Middlewares/Third_Party/LwIP/src/core/ipv4/icmp.c ****   icmphdr = (struct icmp_echo_hdr *)q->payload;
  62              		.loc 1 359 0
  63 001e 4468     		ldr	r4, [r0, #4]
  64              	.LVL6:
 360:Middlewares/Third_Party/LwIP/src/core/ipv4/icmp.c ****   icmphdr->type = type;
  65              		.loc 1 360 0
  66 0020 84F80080 		strb	r8, [r4]
 361:Middlewares/Third_Party/LwIP/src/core/ipv4/icmp.c ****   icmphdr->code = code;
  67              		.loc 1 361 0
  68 0024 6770     		strb	r7, [r4, #1]
 362:Middlewares/Third_Party/LwIP/src/core/ipv4/icmp.c ****   icmphdr->id = 0;
  69              		.loc 1 362 0
  70 0026 0023     		movs	r3, #0
  71 0028 2371     		strb	r3, [r4, #4]
  72 002a 6371     		strb	r3, [r4, #5]
 363:Middlewares/Third_Party/LwIP/src/core/ipv4/icmp.c ****   icmphdr->seqno = 0;
  73              		.loc 1 363 0
  74 002c A371     		strb	r3, [r4, #6]
  75 002e E371     		strb	r3, [r4, #7]
 364:Middlewares/Third_Party/LwIP/src/core/ipv4/icmp.c **** 
 365:Middlewares/Third_Party/LwIP/src/core/ipv4/icmp.c ****   /* copy fields from original packet */
 366:Middlewares/Third_Party/LwIP/src/core/ipv4/icmp.c ****   SMEMCPY((u8_t *)q->payload + sizeof(struct icmp_echo_hdr), (u8_t *)p->payload,
  76              		.loc 1 366 0
  77 0030 4768     		ldr	r7, [r0, #4]
  78 0032 7368     		ldr	r3, [r6, #4]
  79 0034 1E68     		ldr	r6, [r3]	@ unaligned
  80              	.LVL7:
  81 0036 5868     		ldr	r0, [r3, #4]	@ unaligned
  82              	.LVL8:
  83 0038 9968     		ldr	r1, [r3, #8]	@ unaligned
  84 003a D3F80CC0 		ldr	ip, [r3, #12]	@ unaligned
  85 003e BE60     		str	r6, [r7, #8]	@ unaligned
  86 0040 F860     		str	r0, [r7, #12]	@ unaligned
  87 0042 3961     		str	r1, [r7, #16]	@ unaligned
  88 0044 C7F814C0 		str	ip, [r7, #20]	@ unaligned
  89 0048 1E69     		ldr	r6, [r3, #16]	@ unaligned
  90 004a 5869     		ldr	r0, [r3, #20]	@ unaligned
  91 004c 9969     		ldr	r1, [r3, #24]	@ unaligned
ARM GAS  C:\Users\Student\AppData\Local\Temp\ccdrW8qA.s 			page 9


  92 004e BE61     		str	r6, [r7, #24]	@ unaligned
  93 0050 F861     		str	r0, [r7, #28]	@ unaligned
  94 0052 3962     		str	r1, [r7, #32]	@ unaligned
 367:Middlewares/Third_Party/LwIP/src/core/ipv4/icmp.c ****           IP_HLEN + ICMP_DEST_UNREACH_DATASIZE);
 368:Middlewares/Third_Party/LwIP/src/core/ipv4/icmp.c **** 
 369:Middlewares/Third_Party/LwIP/src/core/ipv4/icmp.c ****   ip4_addr_copy(iphdr_src, iphdr->src);
  95              		.loc 1 369 0
  96 0054 DEF80C30 		ldr	r3, [lr, #12]	@ unaligned
  97 0058 06A8     		add	r0, sp, #24
  98 005a 40F8043D 		str	r3, [r0, #-4]!
 370:Middlewares/Third_Party/LwIP/src/core/ipv4/icmp.c **** #ifdef LWIP_HOOK_IP4_ROUTE_SRC
 371:Middlewares/Third_Party/LwIP/src/core/ipv4/icmp.c ****   {
 372:Middlewares/Third_Party/LwIP/src/core/ipv4/icmp.c ****     ip4_addr_t iphdr_dst;
 373:Middlewares/Third_Party/LwIP/src/core/ipv4/icmp.c ****     ip4_addr_copy(iphdr_dst, iphdr->dest);
 374:Middlewares/Third_Party/LwIP/src/core/ipv4/icmp.c ****     netif = ip4_route_src(&iphdr_src, &iphdr_dst);
 375:Middlewares/Third_Party/LwIP/src/core/ipv4/icmp.c ****   }
 376:Middlewares/Third_Party/LwIP/src/core/ipv4/icmp.c **** #else
 377:Middlewares/Third_Party/LwIP/src/core/ipv4/icmp.c ****   netif = ip4_route(&iphdr_src);
  99              		.loc 1 377 0
 100 005e FFF7FEFF 		bl	ip4_route
 101              	.LVL9:
 378:Middlewares/Third_Party/LwIP/src/core/ipv4/icmp.c **** #endif
 379:Middlewares/Third_Party/LwIP/src/core/ipv4/icmp.c ****   if (netif != NULL) {
 102              		.loc 1 379 0
 103 0062 58B1     		cbz	r0, .L3
 380:Middlewares/Third_Party/LwIP/src/core/ipv4/icmp.c ****     /* calculate checksum */
 381:Middlewares/Third_Party/LwIP/src/core/ipv4/icmp.c ****     icmphdr->chksum = 0;
 104              		.loc 1 381 0
 105 0064 0021     		movs	r1, #0
 106 0066 A170     		strb	r1, [r4, #2]
 107 0068 E170     		strb	r1, [r4, #3]
 382:Middlewares/Third_Party/LwIP/src/core/ipv4/icmp.c **** #if CHECKSUM_GEN_ICMP
 383:Middlewares/Third_Party/LwIP/src/core/ipv4/icmp.c ****     IF__NETIF_CHECKSUM_ENABLED(netif, NETIF_CHECKSUM_GEN_ICMP) {
 384:Middlewares/Third_Party/LwIP/src/core/ipv4/icmp.c ****       icmphdr->chksum = inet_chksum(icmphdr, q->len);
 385:Middlewares/Third_Party/LwIP/src/core/ipv4/icmp.c ****     }
 386:Middlewares/Third_Party/LwIP/src/core/ipv4/icmp.c **** #endif
 387:Middlewares/Third_Party/LwIP/src/core/ipv4/icmp.c ****     ICMP_STATS_INC(icmp.xmit);
 388:Middlewares/Third_Party/LwIP/src/core/ipv4/icmp.c ****     ip4_output_if(q, NULL, &iphdr_src, ICMP_TTL, 0, IP_PROTO_ICMP, netif);
 108              		.loc 1 388 0
 109 006a 0290     		str	r0, [sp, #8]
 110 006c 0123     		movs	r3, #1
 111 006e 0193     		str	r3, [sp, #4]
 112 0070 0091     		str	r1, [sp]
 113 0072 FF23     		movs	r3, #255
 114 0074 05AA     		add	r2, sp, #20
 115 0076 2846     		mov	r0, r5
 116              	.LVL10:
 117 0078 FFF7FEFF 		bl	ip4_output_if
 118              	.LVL11:
 119              	.L3:
 389:Middlewares/Third_Party/LwIP/src/core/ipv4/icmp.c ****   }
 390:Middlewares/Third_Party/LwIP/src/core/ipv4/icmp.c ****   pbuf_free(q);
 120              		.loc 1 390 0
 121 007c 2846     		mov	r0, r5
 122 007e FFF7FEFF 		bl	pbuf_free
 123              	.LVL12:
 124              	.L1:
ARM GAS  C:\Users\Student\AppData\Local\Temp\ccdrW8qA.s 			page 10


 391:Middlewares/Third_Party/LwIP/src/core/ipv4/icmp.c **** }
 125              		.loc 1 391 0
 126 0082 06B0     		add	sp, sp, #24
 127              	.LCFI2:
 128              		.cfi_def_cfa_offset 24
 129              		@ sp needed
 130 0084 BDE8F081 		pop	{r4, r5, r6, r7, r8, pc}
 131              		.cfi_endproc
 132              	.LFE139:
 134              		.section	.text.icmp_input,"ax",%progbits
 135              		.align	1
 136              		.global	icmp_input
 137              		.syntax unified
 138              		.thumb
 139              		.thumb_func
 140              		.fpu fpv5-sp-d16
 142              	icmp_input:
 143              	.LFB136:
  77:Middlewares/Third_Party/LwIP/src/core/ipv4/icmp.c ****   u8_t type;
 144              		.loc 1 77 0
 145              		.cfi_startproc
 146              		@ args = 0, pretend = 0, frame = 0
 147              		@ frame_needed = 0, uses_anonymous_args = 0
 148              	.LVL13:
 149 0000 2DE9F043 		push	{r4, r5, r6, r7, r8, r9, lr}
 150              	.LCFI3:
 151              		.cfi_def_cfa_offset 28
 152              		.cfi_offset 4, -28
 153              		.cfi_offset 5, -24
 154              		.cfi_offset 6, -20
 155              		.cfi_offset 7, -16
 156              		.cfi_offset 8, -12
 157              		.cfi_offset 9, -8
 158              		.cfi_offset 14, -4
 159 0004 85B0     		sub	sp, sp, #20
 160              	.LCFI4:
 161              		.cfi_def_cfa_offset 48
 162 0006 0546     		mov	r5, r0
  90:Middlewares/Third_Party/LwIP/src/core/ipv4/icmp.c ****   hlen = IPH_HL(iphdr_in) * 4;
 163              		.loc 1 90 0
 164 0008 424B     		ldr	r3, .L20
 165 000a 9F68     		ldr	r7, [r3, #8]
 166              	.LVL14:
  91:Middlewares/Third_Party/LwIP/src/core/ipv4/icmp.c ****   if (hlen < IP_HLEN) {
 167              		.loc 1 91 0
 168 000c 3C78     		ldrb	r4, [r7]	@ zero_extendqisi2
 169 000e 04F00F04 		and	r4, r4, #15
 170 0012 A400     		lsls	r4, r4, #2
 171 0014 26B2     		sxth	r6, r4
 172              	.LVL15:
  92:Middlewares/Third_Party/LwIP/src/core/ipv4/icmp.c ****     LWIP_DEBUGF(ICMP_DEBUG, ("icmp_input: short IP header (%"S16_F" bytes) received\n", hlen));
 173              		.loc 1 92 0
 174 0016 132E     		cmp	r6, #19
 175 0018 15DD     		ble	.L7
 176 001a 8846     		mov	r8, r1
  96:Middlewares/Third_Party/LwIP/src/core/ipv4/icmp.c ****     LWIP_DEBUGF(ICMP_DEBUG, ("icmp_input: short ICMP (%"U16_F" bytes) received\n", p->tot_len));
 177              		.loc 1 96 0
ARM GAS  C:\Users\Student\AppData\Local\Temp\ccdrW8qA.s 			page 11


 178 001c 4389     		ldrh	r3, [r0, #10]
 179 001e 032B     		cmp	r3, #3
 180 0020 11D9     		bls	.L7
 101:Middlewares/Third_Party/LwIP/src/core/ipv4/icmp.c **** #ifdef LWIP_DEBUG
 181              		.loc 1 101 0
 182 0022 4368     		ldr	r3, [r0, #4]
 183 0024 1B78     		ldrb	r3, [r3]	@ zero_extendqisi2
 184              	.LVL16:
 105:Middlewares/Third_Party/LwIP/src/core/ipv4/icmp.c ****   case ICMP_ER:
 185              		.loc 1 105 0
 186 0026 082B     		cmp	r3, #8
 187 0028 58D1     		bne	.L8
 188              	.LVL17:
 115:Middlewares/Third_Party/LwIP/src/core/ipv4/icmp.c **** #if LWIP_MULTICAST_PING
 189              		.loc 1 115 0
 190 002a 3A4B     		ldr	r3, .L20
 191              	.LVL18:
 192 002c 5869     		ldr	r0, [r3, #20]
 193              	.LVL19:
 194 002e 00F0F003 		and	r3, r0, #240
 195 0032 E02B     		cmp	r3, #224
 196 0034 23D0     		beq	.L10
 125:Middlewares/Third_Party/LwIP/src/core/ipv4/icmp.c **** #if LWIP_BROADCAST_PING
 197              		.loc 1 125 0
 198 0036 374B     		ldr	r3, .L20
 199 0038 1968     		ldr	r1, [r3]
 200              	.LVL20:
 201 003a FFF7FEFF 		bl	ip4_addr_isbroadcast_u32
 202              	.LVL21:
 203 003e F0B9     		cbnz	r0, .L10
 135:Middlewares/Third_Party/LwIP/src/core/ipv4/icmp.c ****       LWIP_DEBUGF(ICMP_DEBUG, ("icmp_input: bad ICMP echo received\n"));
 204              		.loc 1 135 0
 205 0040 2B89     		ldrh	r3, [r5, #8]
 206 0042 072B     		cmp	r3, #7
 207 0044 05D8     		bhi	.L18
 208              	.LVL22:
 209              	.L7:
 274:Middlewares/Third_Party/LwIP/src/core/ipv4/icmp.c ****   ICMP_STATS_INC(icmp.lenerr);
 210              		.loc 1 274 0
 211 0046 2846     		mov	r0, r5
 212 0048 FFF7FEFF 		bl	pbuf_free
 213              	.LVL23:
 214              	.L6:
 285:Middlewares/Third_Party/LwIP/src/core/ipv4/icmp.c **** 
 215              		.loc 1 285 0
 216 004c 05B0     		add	sp, sp, #20
 217              	.LCFI5:
 218              		.cfi_remember_state
 219              		.cfi_def_cfa_offset 28
 220              		@ sp needed
 221 004e BDE8F083 		pop	{r4, r5, r6, r7, r8, r9, pc}
 222              	.LVL24:
 223              	.L18:
 224              	.LCFI6:
 225              		.cfi_restore_state
 151:Middlewares/Third_Party/LwIP/src/core/ipv4/icmp.c ****       /* p is not big enough to contain link headers
 226              		.loc 1 151 0
ARM GAS  C:\Users\Student\AppData\Local\Temp\ccdrW8qA.s 			page 12


 227 0052 04F10E01 		add	r1, r4, #14
 228 0056 2846     		mov	r0, r5
 229 0058 FFF7FEFF 		bl	pbuf_header
 230              	.LVL25:
 231 005c 78B3     		cbz	r0, .L11
 232              	.LBB2:
 157:Middlewares/Third_Party/LwIP/src/core/ipv4/icmp.c ****       if (r == NULL) {
 233              		.loc 1 157 0
 234 005e 2989     		ldrh	r1, [r5, #8]
 235 0060 2144     		add	r1, r1, r4
 236 0062 0022     		movs	r2, #0
 237 0064 89B2     		uxth	r1, r1
 238 0066 0220     		movs	r0, #2
 239 0068 FFF7FEFF 		bl	pbuf_alloc
 240              	.LVL26:
 158:Middlewares/Third_Party/LwIP/src/core/ipv4/icmp.c ****         LWIP_DEBUGF(ICMP_DEBUG, ("icmp_input: allocating new pbuf failed\n"));
 241              		.loc 1 158 0
 242 006c 8146     		mov	r9, r0
 243 006e 30B1     		cbz	r0, .L10
 162:Middlewares/Third_Party/LwIP/src/core/ipv4/icmp.c ****         LWIP_DEBUGF(ICMP_DEBUG | LWIP_DBG_LEVEL_SERIOUS, ("first pbuf cannot hold the ICMP header")
 244              		.loc 1 162 0
 245 0070 4289     		ldrh	r2, [r0, #10]
 246 0072 06F10803 		add	r3, r6, #8
 247 0076 9A42     		cmp	r2, r3
 248 0078 05D2     		bcs	.L12
 164:Middlewares/Third_Party/LwIP/src/core/ipv4/icmp.c ****         goto icmperr;
 249              		.loc 1 164 0
 250 007a FFF7FEFF 		bl	pbuf_free
 251              	.LVL27:
 252              	.L10:
 253              	.LBE2:
 280:Middlewares/Third_Party/LwIP/src/core/ipv4/icmp.c ****   ICMP_STATS_INC(icmp.err);
 254              		.loc 1 280 0
 255 007e 2846     		mov	r0, r5
 256 0080 FFF7FEFF 		bl	pbuf_free
 257              	.LVL28:
 283:Middlewares/Third_Party/LwIP/src/core/ipv4/icmp.c **** #endif /* LWIP_ICMP_ECHO_CHECK_INPUT_PBUF_LEN || !LWIP_MULTICAST_PING || !LWIP_BROADCAST_PING */
 258              		.loc 1 283 0
 259 0084 E2E7     		b	.L6
 260              	.LVL29:
 261              	.L12:
 262              	.LBB3:
 168:Middlewares/Third_Party/LwIP/src/core/ipv4/icmp.c ****       /* switch r->payload back to icmp header (cannot fail) */
 263              		.loc 1 168 0
 264 0086 3246     		mov	r2, r6
 265 0088 3946     		mov	r1, r7
 266 008a 4068     		ldr	r0, [r0, #4]
 267              	.LVL30:
 268 008c FFF7FEFF 		bl	memcpy
 269              	.LVL31:
 170:Middlewares/Third_Party/LwIP/src/core/ipv4/icmp.c ****         LWIP_ASSERT("icmp_input: moving r->payload to icmp header failed\n", 0);
 270              		.loc 1 170 0
 271 0090 6142     		negs	r1, r4
 272 0092 4846     		mov	r0, r9
 273 0094 FFF7FEFF 		bl	pbuf_header
 274              	.LVL32:
 275 0098 18B1     		cbz	r0, .L13
ARM GAS  C:\Users\Student\AppData\Local\Temp\ccdrW8qA.s 			page 13


 172:Middlewares/Third_Party/LwIP/src/core/ipv4/icmp.c ****         goto icmperr;
 276              		.loc 1 172 0
 277 009a 4846     		mov	r0, r9
 278 009c FFF7FEFF 		bl	pbuf_free
 279              	.LVL33:
 173:Middlewares/Third_Party/LwIP/src/core/ipv4/icmp.c ****       }
 280              		.loc 1 173 0
 281 00a0 EDE7     		b	.L10
 282              	.L13:
 176:Middlewares/Third_Party/LwIP/src/core/ipv4/icmp.c ****         LWIP_DEBUGF(ICMP_DEBUG | LWIP_DBG_LEVEL_SERIOUS, ("icmp_input: copying to new pbuf failed")
 283              		.loc 1 176 0
 284 00a2 2946     		mov	r1, r5
 285 00a4 4846     		mov	r0, r9
 286 00a6 FFF7FEFF 		bl	pbuf_copy
 287              	.LVL34:
 288 00aa 18B1     		cbz	r0, .L14
 178:Middlewares/Third_Party/LwIP/src/core/ipv4/icmp.c ****         goto icmperr;
 289              		.loc 1 178 0
 290 00ac 4846     		mov	r0, r9
 291 00ae FFF7FEFF 		bl	pbuf_free
 292              	.LVL35:
 179:Middlewares/Third_Party/LwIP/src/core/ipv4/icmp.c ****       }
 293              		.loc 1 179 0
 294 00b2 E4E7     		b	.L10
 295              	.L14:
 182:Middlewares/Third_Party/LwIP/src/core/ipv4/icmp.c ****       /* we now have an identical copy of p that has room for link headers */
 296              		.loc 1 182 0
 297 00b4 2846     		mov	r0, r5
 298 00b6 FFF7FEFF 		bl	pbuf_free
 299              	.LVL36:
 184:Middlewares/Third_Party/LwIP/src/core/ipv4/icmp.c ****     } else {
 300              		.loc 1 184 0
 301 00ba 4D46     		mov	r5, r9
 302              	.LBE3:
 303 00bc 08E0     		b	.L15
 304              	.LVL37:
 305              	.L11:
 187:Middlewares/Third_Party/LwIP/src/core/ipv4/icmp.c ****         LWIP_ASSERT("icmp_input: restoring original p->payload failed\n", 0);
 306              		.loc 1 187 0
 307 00be 4FF6F271 		movw	r1, #65522
 308 00c2 091B     		subs	r1, r1, r4
 309 00c4 09B2     		sxth	r1, r1
 310 00c6 2846     		mov	r0, r5
 311 00c8 FFF7FEFF 		bl	pbuf_header
 312              	.LVL38:
 313 00cc 0028     		cmp	r0, #0
 314 00ce D6D1     		bne	.L10
 315              	.L15:
 196:Middlewares/Third_Party/LwIP/src/core/ipv4/icmp.c ****     if (pbuf_header(p, hlen)) {
 316              		.loc 1 196 0
 317 00d0 6C68     		ldr	r4, [r5, #4]
 318              	.LVL39:
 197:Middlewares/Third_Party/LwIP/src/core/ipv4/icmp.c ****       LWIP_DEBUGF(ICMP_DEBUG | LWIP_DBG_LEVEL_SERIOUS, ("Can't move over header in packet"));
 319              		.loc 1 197 0
 320 00d2 3146     		mov	r1, r6
 321 00d4 2846     		mov	r0, r5
 322 00d6 FFF7FEFF 		bl	pbuf_header
ARM GAS  C:\Users\Student\AppData\Local\Temp\ccdrW8qA.s 			page 14


 323              	.LVL40:
 324 00da 18B1     		cbz	r0, .L19
 325              	.LVL41:
 326              	.L8:
 271:Middlewares/Third_Party/LwIP/src/core/ipv4/icmp.c ****   return;
 327              		.loc 1 271 0
 328 00dc 2846     		mov	r0, r5
 329 00de FFF7FEFF 		bl	pbuf_free
 330              	.LVL42:
 272:Middlewares/Third_Party/LwIP/src/core/ipv4/icmp.c **** lenerr:
 331              		.loc 1 272 0
 332 00e2 B3E7     		b	.L6
 333              	.LVL43:
 334              	.L19:
 335              	.LBB4:
 201:Middlewares/Third_Party/LwIP/src/core/ipv4/icmp.c ****       ip4_addr_copy(iphdr->src, *src);
 336              		.loc 1 201 0
 337 00e4 6868     		ldr	r0, [r5, #4]
 338              	.LVL44:
 202:Middlewares/Third_Party/LwIP/src/core/ipv4/icmp.c ****       ip4_addr_copy(iphdr->dest, *ip4_current_src_addr());
 339              		.loc 1 202 0
 340 00e6 0B49     		ldr	r1, .L20
 341 00e8 4B69     		ldr	r3, [r1, #20]
 342 00ea C360     		str	r3, [r0, #12]	@ unaligned
 203:Middlewares/Third_Party/LwIP/src/core/ipv4/icmp.c ****       ICMPH_TYPE_SET(iecho, ICMP_ER);
 343              		.loc 1 203 0
 344 00ec 0B69     		ldr	r3, [r1, #16]
 345 00ee 0361     		str	r3, [r0, #16]	@ unaligned
 204:Middlewares/Third_Party/LwIP/src/core/ipv4/icmp.c **** #if CHECKSUM_GEN_ICMP
 346              		.loc 1 204 0
 347 00f0 0022     		movs	r2, #0
 348 00f2 2270     		strb	r2, [r4]
 220:Middlewares/Third_Party/LwIP/src/core/ipv4/icmp.c **** #endif /* CHECKSUM_GEN_ICMP */
 349              		.loc 1 220 0
 350 00f4 A270     		strb	r2, [r4, #2]
 351 00f6 E270     		strb	r2, [r4, #3]
 224:Middlewares/Third_Party/LwIP/src/core/ipv4/icmp.c ****       IPH_CHKSUM_SET(iphdr, 0);
 352              		.loc 1 224 0
 353 00f8 FF23     		movs	r3, #255
 354 00fa 0372     		strb	r3, [r0, #8]
 225:Middlewares/Third_Party/LwIP/src/core/ipv4/icmp.c **** #if CHECKSUM_GEN_IP
 355              		.loc 1 225 0
 356 00fc 8272     		strb	r2, [r0, #10]
 357 00fe C272     		strb	r2, [r0, #11]
 239:Middlewares/Third_Party/LwIP/src/core/ipv4/icmp.c ****                    ICMP_TTL, 0, IP_PROTO_ICMP, inp);
 358              		.loc 1 239 0
 359 0100 CDF80880 		str	r8, [sp, #8]
 360 0104 0120     		movs	r0, #1
 361              	.LVL45:
 362 0106 0190     		str	r0, [sp, #4]
 363 0108 0092     		str	r2, [sp]
 364 010a 1431     		adds	r1, r1, #20
 365 010c 2846     		mov	r0, r5
 366 010e FFF7FEFF 		bl	ip4_output_if
 367              	.LVL46:
 368 0112 E3E7     		b	.L8
 369              	.L21:
ARM GAS  C:\Users\Student\AppData\Local\Temp\ccdrW8qA.s 			page 15


 370              		.align	2
 371              	.L20:
 372 0114 00000000 		.word	ip_data
 373              	.LBE4:
 374              		.cfi_endproc
 375              	.LFE136:
 377              		.section	.text.icmp_dest_unreach,"ax",%progbits
 378              		.align	1
 379              		.global	icmp_dest_unreach
 380              		.syntax unified
 381              		.thumb
 382              		.thumb_func
 383              		.fpu fpv5-sp-d16
 385              	icmp_dest_unreach:
 386              	.LFB137:
 298:Middlewares/Third_Party/LwIP/src/core/ipv4/icmp.c ****   MIB2_STATS_INC(mib2.icmpoutdestunreachs);
 387              		.loc 1 298 0
 388              		.cfi_startproc
 389              		@ args = 0, pretend = 0, frame = 0
 390              		@ frame_needed = 0, uses_anonymous_args = 0
 391              	.LVL47:
 392 0000 08B5     		push	{r3, lr}
 393              	.LCFI7:
 394              		.cfi_def_cfa_offset 8
 395              		.cfi_offset 3, -8
 396              		.cfi_offset 14, -4
 300:Middlewares/Third_Party/LwIP/src/core/ipv4/icmp.c **** }
 397              		.loc 1 300 0
 398 0002 0A46     		mov	r2, r1
 399 0004 0321     		movs	r1, #3
 400              	.LVL48:
 401 0006 FFF7FEFF 		bl	icmp_send_response
 402              	.LVL49:
 403 000a 08BD     		pop	{r3, pc}
 404              		.cfi_endproc
 405              	.LFE137:
 407              		.section	.text.icmp_time_exceeded,"ax",%progbits
 408              		.align	1
 409              		.global	icmp_time_exceeded
 410              		.syntax unified
 411              		.thumb
 412              		.thumb_func
 413              		.fpu fpv5-sp-d16
 415              	icmp_time_exceeded:
 416              	.LFB138:
 313:Middlewares/Third_Party/LwIP/src/core/ipv4/icmp.c ****   MIB2_STATS_INC(mib2.icmpouttimeexcds);
 417              		.loc 1 313 0
 418              		.cfi_startproc
 419              		@ args = 0, pretend = 0, frame = 0
 420              		@ frame_needed = 0, uses_anonymous_args = 0
 421              	.LVL50:
 422 0000 08B5     		push	{r3, lr}
 423              	.LCFI8:
 424              		.cfi_def_cfa_offset 8
 425              		.cfi_offset 3, -8
 426              		.cfi_offset 14, -4
 315:Middlewares/Third_Party/LwIP/src/core/ipv4/icmp.c **** }
ARM GAS  C:\Users\Student\AppData\Local\Temp\ccdrW8qA.s 			page 16


 427              		.loc 1 315 0
 428 0002 0A46     		mov	r2, r1
 429 0004 0B21     		movs	r1, #11
 430              	.LVL51:
 431 0006 FFF7FEFF 		bl	icmp_send_response
 432              	.LVL52:
 433 000a 08BD     		pop	{r3, pc}
 434              		.cfi_endproc
 435              	.LFE138:
 437              		.text
 438              	.Letext0:
 439              		.file 2 "c:\\gcc_toolchain\\6_2017-q1-update\\arm-none-eabi\\include\\machine\\_default_types.h"
 440              		.file 3 "c:\\gcc_toolchain\\6_2017-q1-update\\arm-none-eabi\\include\\sys\\_stdint.h"
 441              		.file 4 "Drivers/CMSIS/Include/core_cm7.h"
 442              		.file 5 "Drivers/CMSIS/Device/ST/STM32F7xx/Include/system_stm32f7xx.h"
 443              		.file 6 "c:\\gcc_toolchain\\6_2017-q1-update\\arm-none-eabi\\include\\sys\\lock.h"
 444              		.file 7 "c:\\gcc_toolchain\\6_2017-q1-update\\arm-none-eabi\\include\\sys\\_types.h"
 445              		.file 8 "c:\\gcc_toolchain\\6_2017-q1-update\\lib\\gcc\\arm-none-eabi\\6.3.1\\include\\stddef.h"
 446              		.file 9 "c:\\gcc_toolchain\\6_2017-q1-update\\arm-none-eabi\\include\\sys\\reent.h"
 447              		.file 10 "c:\\gcc_toolchain\\6_2017-q1-update\\arm-none-eabi\\include\\stdlib.h"
 448              		.file 11 "Middlewares/Third_Party/LwIP/src/include/lwip/arch.h"
 449              		.file 12 "Middlewares/Third_Party/LwIP/src/include/lwip/err.h"
 450              		.file 13 "Middlewares/Third_Party/LwIP/src/include/lwip/pbuf.h"
 451              		.file 14 "Middlewares/Third_Party/LwIP/src/include/lwip/ip4_addr.h"
 452              		.file 15 "Middlewares/Third_Party/LwIP/src/include/lwip/ip_addr.h"
 453              		.file 16 "Middlewares/Third_Party/LwIP/src/include/lwip/priv/memp_priv.h"
 454              		.file 17 "Middlewares/Third_Party/LwIP/src/include/lwip/memp.h"
 455              		.file 18 "Middlewares/Third_Party/LwIP/src/include/lwip/netif.h"
 456              		.file 19 "Middlewares/Third_Party/LwIP/src/include/lwip/prot/icmp.h"
 457              		.file 20 "Middlewares/Third_Party/LwIP/src/include/lwip/icmp.h"
 458              		.file 21 "Middlewares/Third_Party/LwIP/src/include/lwip/prot/ip4.h"
 459              		.file 22 "Middlewares/Third_Party/LwIP/src/include/lwip/ip.h"
 460              		.file 23 "Middlewares/Third_Party/LwIP/src/include/lwip/ip4.h"
ARM GAS  C:\Users\Student\AppData\Local\Temp\ccdrW8qA.s 			page 17

