ARM GAS  C:\Users\Student\AppData\Local\Temp\ccty2SRd.s 			page 1


   1              		.cpu cortex-m7
   2              		.eabi_attribute 27, 1
   3              		.eabi_attribute 28, 1
   4              		.eabi_attribute 20, 1
   5              		.eabi_attribute 21, 1
   6              		.eabi_attribute 23, 3
   7              		.eabi_attribute 24, 1
   8              		.eabi_attribute 25, 1
   9              		.eabi_attribute 26, 1
  10              		.eabi_attribute 30, 1
  11              		.eabi_attribute 34, 1
  12              		.eabi_attribute 18, 4
  13              		.file	"stm32f7xx_ll_usb.c"
  14              		.text
  15              	.Ltext0:
  16              		.cfi_sections	.debug_frame
  17              		.section	.text.USB_CoreReset,"ax",%progbits
  18              		.align	1
  19              		.syntax unified
  20              		.thumb
  21              		.thumb_func
  22              		.fpu fpv5-sp-d16
  24              	USB_CoreReset:
  25              	.LFB168:
  26              		.file 1 "Drivers/STM32F7xx_HAL_Driver/Src/stm32f7xx_ll_usb.c"
   1:Drivers/STM32F7xx_HAL_Driver/Src/stm32f7xx_ll_usb.c **** /**
   2:Drivers/STM32F7xx_HAL_Driver/Src/stm32f7xx_ll_usb.c ****   ******************************************************************************
   3:Drivers/STM32F7xx_HAL_Driver/Src/stm32f7xx_ll_usb.c ****   * @file    stm32f7xx_ll_usb.c
   4:Drivers/STM32F7xx_HAL_Driver/Src/stm32f7xx_ll_usb.c ****   * @author  MCD Application Team
   5:Drivers/STM32F7xx_HAL_Driver/Src/stm32f7xx_ll_usb.c ****   * @brief   USB Low Layer HAL module driver.
   6:Drivers/STM32F7xx_HAL_Driver/Src/stm32f7xx_ll_usb.c ****   *
   7:Drivers/STM32F7xx_HAL_Driver/Src/stm32f7xx_ll_usb.c ****   *          This file provides firmware functions to manage the following
   8:Drivers/STM32F7xx_HAL_Driver/Src/stm32f7xx_ll_usb.c ****   *          functionalities of the USB Peripheral Controller:
   9:Drivers/STM32F7xx_HAL_Driver/Src/stm32f7xx_ll_usb.c ****   *           + Initialization/de-initialization functions
  10:Drivers/STM32F7xx_HAL_Driver/Src/stm32f7xx_ll_usb.c ****   *           + I/O operation functions
  11:Drivers/STM32F7xx_HAL_Driver/Src/stm32f7xx_ll_usb.c ****   *           + Peripheral Control functions
  12:Drivers/STM32F7xx_HAL_Driver/Src/stm32f7xx_ll_usb.c ****   *           + Peripheral State functions
  13:Drivers/STM32F7xx_HAL_Driver/Src/stm32f7xx_ll_usb.c ****   *
  14:Drivers/STM32F7xx_HAL_Driver/Src/stm32f7xx_ll_usb.c ****   @verbatim
  15:Drivers/STM32F7xx_HAL_Driver/Src/stm32f7xx_ll_usb.c ****   ==============================================================================
  16:Drivers/STM32F7xx_HAL_Driver/Src/stm32f7xx_ll_usb.c ****                     ##### How to use this driver #####
  17:Drivers/STM32F7xx_HAL_Driver/Src/stm32f7xx_ll_usb.c ****   ==============================================================================
  18:Drivers/STM32F7xx_HAL_Driver/Src/stm32f7xx_ll_usb.c ****     [..]
  19:Drivers/STM32F7xx_HAL_Driver/Src/stm32f7xx_ll_usb.c ****       (#) Fill parameters of Init structure in USB_OTG_CfgTypeDef structure.
  20:Drivers/STM32F7xx_HAL_Driver/Src/stm32f7xx_ll_usb.c **** 
  21:Drivers/STM32F7xx_HAL_Driver/Src/stm32f7xx_ll_usb.c ****       (#) Call USB_CoreInit() API to initialize the USB Core peripheral.
  22:Drivers/STM32F7xx_HAL_Driver/Src/stm32f7xx_ll_usb.c **** 
  23:Drivers/STM32F7xx_HAL_Driver/Src/stm32f7xx_ll_usb.c ****       (#) The upper HAL HCD/PCD driver will call the right routines for its internal processes.
  24:Drivers/STM32F7xx_HAL_Driver/Src/stm32f7xx_ll_usb.c **** 
  25:Drivers/STM32F7xx_HAL_Driver/Src/stm32f7xx_ll_usb.c ****   @endverbatim
  26:Drivers/STM32F7xx_HAL_Driver/Src/stm32f7xx_ll_usb.c ****   ******************************************************************************
  27:Drivers/STM32F7xx_HAL_Driver/Src/stm32f7xx_ll_usb.c ****   * @attention
  28:Drivers/STM32F7xx_HAL_Driver/Src/stm32f7xx_ll_usb.c ****   *
  29:Drivers/STM32F7xx_HAL_Driver/Src/stm32f7xx_ll_usb.c ****   * <h2><center>&copy; COPYRIGHT(c) 2017 STMicroelectronics</center></h2>
  30:Drivers/STM32F7xx_HAL_Driver/Src/stm32f7xx_ll_usb.c ****   *
  31:Drivers/STM32F7xx_HAL_Driver/Src/stm32f7xx_ll_usb.c ****   * Redistribution and use in source and binary forms, with or without modification,
  32:Drivers/STM32F7xx_HAL_Driver/Src/stm32f7xx_ll_usb.c ****   * are permitted provided that the following conditions are met:
ARM GAS  C:\Users\Student\AppData\Local\Temp\ccty2SRd.s 			page 2


  33:Drivers/STM32F7xx_HAL_Driver/Src/stm32f7xx_ll_usb.c ****   *   1. Redistributions of source code must retain the above copyright notice,
  34:Drivers/STM32F7xx_HAL_Driver/Src/stm32f7xx_ll_usb.c ****   *      this list of conditions and the following disclaimer.
  35:Drivers/STM32F7xx_HAL_Driver/Src/stm32f7xx_ll_usb.c ****   *   2. Redistributions in binary form must reproduce the above copyright notice,
  36:Drivers/STM32F7xx_HAL_Driver/Src/stm32f7xx_ll_usb.c ****   *      this list of conditions and the following disclaimer in the documentation
  37:Drivers/STM32F7xx_HAL_Driver/Src/stm32f7xx_ll_usb.c ****   *      and/or other materials provided with the distribution.
  38:Drivers/STM32F7xx_HAL_Driver/Src/stm32f7xx_ll_usb.c ****   *   3. Neither the name of STMicroelectronics nor the names of its contributors
  39:Drivers/STM32F7xx_HAL_Driver/Src/stm32f7xx_ll_usb.c ****   *      may be used to endorse or promote products derived from this software
  40:Drivers/STM32F7xx_HAL_Driver/Src/stm32f7xx_ll_usb.c ****   *      without specific prior written permission.
  41:Drivers/STM32F7xx_HAL_Driver/Src/stm32f7xx_ll_usb.c ****   *
  42:Drivers/STM32F7xx_HAL_Driver/Src/stm32f7xx_ll_usb.c ****   * THIS SOFTWARE IS PROVIDED BY THE COPYRIGHT HOLDERS AND CONTRIBUTORS "AS IS"
  43:Drivers/STM32F7xx_HAL_Driver/Src/stm32f7xx_ll_usb.c ****   * AND ANY EXPRESS OR IMPLIED WARRANTIES, INCLUDING, BUT NOT LIMITED TO, THE
  44:Drivers/STM32F7xx_HAL_Driver/Src/stm32f7xx_ll_usb.c ****   * IMPLIED WARRANTIES OF MERCHANTABILITY AND FITNESS FOR A PARTICULAR PURPOSE ARE
  45:Drivers/STM32F7xx_HAL_Driver/Src/stm32f7xx_ll_usb.c ****   * DISCLAIMED. IN NO EVENT SHALL THE COPYRIGHT HOLDER OR CONTRIBUTORS BE LIABLE
  46:Drivers/STM32F7xx_HAL_Driver/Src/stm32f7xx_ll_usb.c ****   * FOR ANY DIRECT, INDIRECT, INCIDENTAL, SPECIAL, EXEMPLARY, OR CONSEQUENTIAL
  47:Drivers/STM32F7xx_HAL_Driver/Src/stm32f7xx_ll_usb.c ****   * DAMAGES (INCLUDING, BUT NOT LIMITED TO, PROCUREMENT OF SUBSTITUTE GOODS OR
  48:Drivers/STM32F7xx_HAL_Driver/Src/stm32f7xx_ll_usb.c ****   * SERVICES; LOSS OF USE, DATA, OR PROFITS; OR BUSINESS INTERRUPTION) HOWEVER
  49:Drivers/STM32F7xx_HAL_Driver/Src/stm32f7xx_ll_usb.c ****   * CAUSED AND ON ANY THEORY OF LIABILITY, WHETHER IN CONTRACT, STRICT LIABILITY,
  50:Drivers/STM32F7xx_HAL_Driver/Src/stm32f7xx_ll_usb.c ****   * OR TORT (INCLUDING NEGLIGENCE OR OTHERWISE) ARISING IN ANY WAY OUT OF THE USE
  51:Drivers/STM32F7xx_HAL_Driver/Src/stm32f7xx_ll_usb.c ****   * OF THIS SOFTWARE, EVEN IF ADVISED OF THE POSSIBILITY OF SUCH DAMAGE.
  52:Drivers/STM32F7xx_HAL_Driver/Src/stm32f7xx_ll_usb.c ****   *
  53:Drivers/STM32F7xx_HAL_Driver/Src/stm32f7xx_ll_usb.c ****   ******************************************************************************
  54:Drivers/STM32F7xx_HAL_Driver/Src/stm32f7xx_ll_usb.c ****   */
  55:Drivers/STM32F7xx_HAL_Driver/Src/stm32f7xx_ll_usb.c **** 
  56:Drivers/STM32F7xx_HAL_Driver/Src/stm32f7xx_ll_usb.c **** /* Includes ------------------------------------------------------------------*/
  57:Drivers/STM32F7xx_HAL_Driver/Src/stm32f7xx_ll_usb.c **** #include "stm32f7xx_hal.h"
  58:Drivers/STM32F7xx_HAL_Driver/Src/stm32f7xx_ll_usb.c **** 
  59:Drivers/STM32F7xx_HAL_Driver/Src/stm32f7xx_ll_usb.c **** /** @addtogroup STM32F7xx_LL_USB_DRIVER
  60:Drivers/STM32F7xx_HAL_Driver/Src/stm32f7xx_ll_usb.c ****   * @{
  61:Drivers/STM32F7xx_HAL_Driver/Src/stm32f7xx_ll_usb.c ****   */
  62:Drivers/STM32F7xx_HAL_Driver/Src/stm32f7xx_ll_usb.c **** 
  63:Drivers/STM32F7xx_HAL_Driver/Src/stm32f7xx_ll_usb.c **** #if defined (HAL_PCD_MODULE_ENABLED) || defined (HAL_HCD_MODULE_ENABLED)
  64:Drivers/STM32F7xx_HAL_Driver/Src/stm32f7xx_ll_usb.c **** 
  65:Drivers/STM32F7xx_HAL_Driver/Src/stm32f7xx_ll_usb.c **** /* Private typedef -----------------------------------------------------------*/
  66:Drivers/STM32F7xx_HAL_Driver/Src/stm32f7xx_ll_usb.c **** /* Private define ------------------------------------------------------------*/
  67:Drivers/STM32F7xx_HAL_Driver/Src/stm32f7xx_ll_usb.c **** /* Private macro -------------------------------------------------------------*/
  68:Drivers/STM32F7xx_HAL_Driver/Src/stm32f7xx_ll_usb.c **** /* Private variables ---------------------------------------------------------*/
  69:Drivers/STM32F7xx_HAL_Driver/Src/stm32f7xx_ll_usb.c **** /* Private function prototypes -----------------------------------------------*/
  70:Drivers/STM32F7xx_HAL_Driver/Src/stm32f7xx_ll_usb.c **** /* Private functions ---------------------------------------------------------*/
  71:Drivers/STM32F7xx_HAL_Driver/Src/stm32f7xx_ll_usb.c **** static HAL_StatusTypeDef USB_CoreReset(USB_OTG_GlobalTypeDef *USBx);
  72:Drivers/STM32F7xx_HAL_Driver/Src/stm32f7xx_ll_usb.c **** 
  73:Drivers/STM32F7xx_HAL_Driver/Src/stm32f7xx_ll_usb.c **** #ifdef USB_HS_PHYC
  74:Drivers/STM32F7xx_HAL_Driver/Src/stm32f7xx_ll_usb.c **** static HAL_StatusTypeDef USB_HS_PHYCInit(USB_OTG_GlobalTypeDef *USBx);
  75:Drivers/STM32F7xx_HAL_Driver/Src/stm32f7xx_ll_usb.c **** #endif
  76:Drivers/STM32F7xx_HAL_Driver/Src/stm32f7xx_ll_usb.c **** 
  77:Drivers/STM32F7xx_HAL_Driver/Src/stm32f7xx_ll_usb.c **** /* Exported functions --------------------------------------------------------*/
  78:Drivers/STM32F7xx_HAL_Driver/Src/stm32f7xx_ll_usb.c **** /** @defgroup LL_USB_Exported_Functions USB Low Layer Exported Functions
  79:Drivers/STM32F7xx_HAL_Driver/Src/stm32f7xx_ll_usb.c ****   * @{
  80:Drivers/STM32F7xx_HAL_Driver/Src/stm32f7xx_ll_usb.c ****   */
  81:Drivers/STM32F7xx_HAL_Driver/Src/stm32f7xx_ll_usb.c **** 
  82:Drivers/STM32F7xx_HAL_Driver/Src/stm32f7xx_ll_usb.c **** /** @defgroup LL_USB_Group1 Initialization/de-initialization functions
  83:Drivers/STM32F7xx_HAL_Driver/Src/stm32f7xx_ll_usb.c ****  *  @brief    Initialization and Configuration functions
  84:Drivers/STM32F7xx_HAL_Driver/Src/stm32f7xx_ll_usb.c ****  *
  85:Drivers/STM32F7xx_HAL_Driver/Src/stm32f7xx_ll_usb.c **** @verbatim
  86:Drivers/STM32F7xx_HAL_Driver/Src/stm32f7xx_ll_usb.c ****  ===============================================================================
  87:Drivers/STM32F7xx_HAL_Driver/Src/stm32f7xx_ll_usb.c ****               ##### Initialization/de-initialization functions #####
  88:Drivers/STM32F7xx_HAL_Driver/Src/stm32f7xx_ll_usb.c ****  ===============================================================================
  89:Drivers/STM32F7xx_HAL_Driver/Src/stm32f7xx_ll_usb.c ****     [..]  This section provides functions allowing to:
ARM GAS  C:\Users\Student\AppData\Local\Temp\ccty2SRd.s 			page 3


  90:Drivers/STM32F7xx_HAL_Driver/Src/stm32f7xx_ll_usb.c **** 
  91:Drivers/STM32F7xx_HAL_Driver/Src/stm32f7xx_ll_usb.c **** @endverbatim
  92:Drivers/STM32F7xx_HAL_Driver/Src/stm32f7xx_ll_usb.c ****   * @{
  93:Drivers/STM32F7xx_HAL_Driver/Src/stm32f7xx_ll_usb.c ****   */
  94:Drivers/STM32F7xx_HAL_Driver/Src/stm32f7xx_ll_usb.c **** 
  95:Drivers/STM32F7xx_HAL_Driver/Src/stm32f7xx_ll_usb.c **** /**
  96:Drivers/STM32F7xx_HAL_Driver/Src/stm32f7xx_ll_usb.c ****   * @brief  Initializes the USB Core
  97:Drivers/STM32F7xx_HAL_Driver/Src/stm32f7xx_ll_usb.c ****   * @param  USBx: USB Instance
  98:Drivers/STM32F7xx_HAL_Driver/Src/stm32f7xx_ll_usb.c ****   * @param  cfg : pointer to a USB_OTG_CfgTypeDef structure that contains
  99:Drivers/STM32F7xx_HAL_Driver/Src/stm32f7xx_ll_usb.c ****   *         the configuration information for the specified USBx peripheral.
 100:Drivers/STM32F7xx_HAL_Driver/Src/stm32f7xx_ll_usb.c ****   * @retval HAL status
 101:Drivers/STM32F7xx_HAL_Driver/Src/stm32f7xx_ll_usb.c ****   */
 102:Drivers/STM32F7xx_HAL_Driver/Src/stm32f7xx_ll_usb.c **** HAL_StatusTypeDef USB_CoreInit(USB_OTG_GlobalTypeDef *USBx, USB_OTG_CfgTypeDef cfg)
 103:Drivers/STM32F7xx_HAL_Driver/Src/stm32f7xx_ll_usb.c **** {
 104:Drivers/STM32F7xx_HAL_Driver/Src/stm32f7xx_ll_usb.c ****   if (cfg.phy_itface == USB_OTG_ULPI_PHY)
 105:Drivers/STM32F7xx_HAL_Driver/Src/stm32f7xx_ll_usb.c ****   {
 106:Drivers/STM32F7xx_HAL_Driver/Src/stm32f7xx_ll_usb.c **** 
 107:Drivers/STM32F7xx_HAL_Driver/Src/stm32f7xx_ll_usb.c ****     USBx->GCCFG &= ~(USB_OTG_GCCFG_PWRDWN);
 108:Drivers/STM32F7xx_HAL_Driver/Src/stm32f7xx_ll_usb.c **** 
 109:Drivers/STM32F7xx_HAL_Driver/Src/stm32f7xx_ll_usb.c ****     /* Init The ULPI Interface */
 110:Drivers/STM32F7xx_HAL_Driver/Src/stm32f7xx_ll_usb.c ****     USBx->GUSBCFG &= ~(USB_OTG_GUSBCFG_TSDPS | USB_OTG_GUSBCFG_ULPIFSLS | USB_OTG_GUSBCFG_PHYSEL);
 111:Drivers/STM32F7xx_HAL_Driver/Src/stm32f7xx_ll_usb.c **** 
 112:Drivers/STM32F7xx_HAL_Driver/Src/stm32f7xx_ll_usb.c ****     /* Select vbus source */
 113:Drivers/STM32F7xx_HAL_Driver/Src/stm32f7xx_ll_usb.c ****     USBx->GUSBCFG &= ~(USB_OTG_GUSBCFG_ULPIEVBUSD | USB_OTG_GUSBCFG_ULPIEVBUSI);
 114:Drivers/STM32F7xx_HAL_Driver/Src/stm32f7xx_ll_usb.c ****     if(cfg.use_external_vbus == 1)
 115:Drivers/STM32F7xx_HAL_Driver/Src/stm32f7xx_ll_usb.c ****     {
 116:Drivers/STM32F7xx_HAL_Driver/Src/stm32f7xx_ll_usb.c ****       USBx->GUSBCFG |= USB_OTG_GUSBCFG_ULPIEVBUSD;
 117:Drivers/STM32F7xx_HAL_Driver/Src/stm32f7xx_ll_usb.c ****     }
 118:Drivers/STM32F7xx_HAL_Driver/Src/stm32f7xx_ll_usb.c ****     /* Reset after a PHY select  */
 119:Drivers/STM32F7xx_HAL_Driver/Src/stm32f7xx_ll_usb.c ****     USB_CoreReset(USBx);
 120:Drivers/STM32F7xx_HAL_Driver/Src/stm32f7xx_ll_usb.c ****   }
 121:Drivers/STM32F7xx_HAL_Driver/Src/stm32f7xx_ll_usb.c **** #ifdef USB_HS_PHYC
 122:Drivers/STM32F7xx_HAL_Driver/Src/stm32f7xx_ll_usb.c **** 
 123:Drivers/STM32F7xx_HAL_Driver/Src/stm32f7xx_ll_usb.c ****   else if (cfg.phy_itface == USB_OTG_HS_EMBEDDED_PHY)
 124:Drivers/STM32F7xx_HAL_Driver/Src/stm32f7xx_ll_usb.c ****   {
 125:Drivers/STM32F7xx_HAL_Driver/Src/stm32f7xx_ll_usb.c ****     USBx->GCCFG &= ~(USB_OTG_GCCFG_PWRDWN);
 126:Drivers/STM32F7xx_HAL_Driver/Src/stm32f7xx_ll_usb.c **** 
 127:Drivers/STM32F7xx_HAL_Driver/Src/stm32f7xx_ll_usb.c ****     /* Init The UTMI Interface */
 128:Drivers/STM32F7xx_HAL_Driver/Src/stm32f7xx_ll_usb.c ****     USBx->GUSBCFG &= ~(USB_OTG_GUSBCFG_TSDPS | USB_OTG_GUSBCFG_ULPIFSLS | USB_OTG_GUSBCFG_PHYSEL);
 129:Drivers/STM32F7xx_HAL_Driver/Src/stm32f7xx_ll_usb.c **** 
 130:Drivers/STM32F7xx_HAL_Driver/Src/stm32f7xx_ll_usb.c ****     /* Select vbus source */
 131:Drivers/STM32F7xx_HAL_Driver/Src/stm32f7xx_ll_usb.c ****     USBx->GUSBCFG &= ~(USB_OTG_GUSBCFG_ULPIEVBUSD | USB_OTG_GUSBCFG_ULPIEVBUSI);
 132:Drivers/STM32F7xx_HAL_Driver/Src/stm32f7xx_ll_usb.c **** 
 133:Drivers/STM32F7xx_HAL_Driver/Src/stm32f7xx_ll_usb.c ****     /* Select UTMI Interace */
 134:Drivers/STM32F7xx_HAL_Driver/Src/stm32f7xx_ll_usb.c ****     USBx->GUSBCFG &= ~ USB_OTG_GUSBCFG_ULPI_UTMI_SEL;
 135:Drivers/STM32F7xx_HAL_Driver/Src/stm32f7xx_ll_usb.c ****     USBx->GCCFG |= USB_OTG_GCCFG_PHYHSEN;
 136:Drivers/STM32F7xx_HAL_Driver/Src/stm32f7xx_ll_usb.c **** 
 137:Drivers/STM32F7xx_HAL_Driver/Src/stm32f7xx_ll_usb.c ****     /* Enables control of a High Speed USB PHY */
 138:Drivers/STM32F7xx_HAL_Driver/Src/stm32f7xx_ll_usb.c ****     USB_HS_PHYCInit(USBx);
 139:Drivers/STM32F7xx_HAL_Driver/Src/stm32f7xx_ll_usb.c **** 
 140:Drivers/STM32F7xx_HAL_Driver/Src/stm32f7xx_ll_usb.c ****     if(cfg.use_external_vbus == 1)
 141:Drivers/STM32F7xx_HAL_Driver/Src/stm32f7xx_ll_usb.c ****     {
 142:Drivers/STM32F7xx_HAL_Driver/Src/stm32f7xx_ll_usb.c ****       USBx->GUSBCFG |= USB_OTG_GUSBCFG_ULPIEVBUSD;
 143:Drivers/STM32F7xx_HAL_Driver/Src/stm32f7xx_ll_usb.c ****     }
 144:Drivers/STM32F7xx_HAL_Driver/Src/stm32f7xx_ll_usb.c ****     /* Reset after a PHY select  */
 145:Drivers/STM32F7xx_HAL_Driver/Src/stm32f7xx_ll_usb.c ****     USB_CoreReset(USBx);
 146:Drivers/STM32F7xx_HAL_Driver/Src/stm32f7xx_ll_usb.c **** 
ARM GAS  C:\Users\Student\AppData\Local\Temp\ccty2SRd.s 			page 4


 147:Drivers/STM32F7xx_HAL_Driver/Src/stm32f7xx_ll_usb.c ****   }
 148:Drivers/STM32F7xx_HAL_Driver/Src/stm32f7xx_ll_usb.c **** #endif
 149:Drivers/STM32F7xx_HAL_Driver/Src/stm32f7xx_ll_usb.c ****   else /* FS interface (embedded Phy) */
 150:Drivers/STM32F7xx_HAL_Driver/Src/stm32f7xx_ll_usb.c ****   {
 151:Drivers/STM32F7xx_HAL_Driver/Src/stm32f7xx_ll_usb.c ****     /* Select FS Embedded PHY */
 152:Drivers/STM32F7xx_HAL_Driver/Src/stm32f7xx_ll_usb.c ****     USBx->GUSBCFG |= USB_OTG_GUSBCFG_PHYSEL;
 153:Drivers/STM32F7xx_HAL_Driver/Src/stm32f7xx_ll_usb.c **** 
 154:Drivers/STM32F7xx_HAL_Driver/Src/stm32f7xx_ll_usb.c ****     /* Reset after a PHY select and set Host mode */
 155:Drivers/STM32F7xx_HAL_Driver/Src/stm32f7xx_ll_usb.c ****     USB_CoreReset(USBx);
 156:Drivers/STM32F7xx_HAL_Driver/Src/stm32f7xx_ll_usb.c **** 
 157:Drivers/STM32F7xx_HAL_Driver/Src/stm32f7xx_ll_usb.c ****     /* Deactivate the power down*/
 158:Drivers/STM32F7xx_HAL_Driver/Src/stm32f7xx_ll_usb.c ****     USBx->GCCFG = USB_OTG_GCCFG_PWRDWN;
 159:Drivers/STM32F7xx_HAL_Driver/Src/stm32f7xx_ll_usb.c ****   }
 160:Drivers/STM32F7xx_HAL_Driver/Src/stm32f7xx_ll_usb.c **** 
 161:Drivers/STM32F7xx_HAL_Driver/Src/stm32f7xx_ll_usb.c ****   if(cfg.dma_enable == ENABLE)
 162:Drivers/STM32F7xx_HAL_Driver/Src/stm32f7xx_ll_usb.c ****   {
 163:Drivers/STM32F7xx_HAL_Driver/Src/stm32f7xx_ll_usb.c ****     USBx->GAHBCFG |= USB_OTG_GAHBCFG_HBSTLEN_2;
 164:Drivers/STM32F7xx_HAL_Driver/Src/stm32f7xx_ll_usb.c ****     USBx->GAHBCFG |= USB_OTG_GAHBCFG_DMAEN;
 165:Drivers/STM32F7xx_HAL_Driver/Src/stm32f7xx_ll_usb.c ****   }
 166:Drivers/STM32F7xx_HAL_Driver/Src/stm32f7xx_ll_usb.c **** 
 167:Drivers/STM32F7xx_HAL_Driver/Src/stm32f7xx_ll_usb.c ****   return HAL_OK;
 168:Drivers/STM32F7xx_HAL_Driver/Src/stm32f7xx_ll_usb.c **** }
 169:Drivers/STM32F7xx_HAL_Driver/Src/stm32f7xx_ll_usb.c **** 
 170:Drivers/STM32F7xx_HAL_Driver/Src/stm32f7xx_ll_usb.c **** /**
 171:Drivers/STM32F7xx_HAL_Driver/Src/stm32f7xx_ll_usb.c ****   * @brief  USB_EnableGlobalInt
 172:Drivers/STM32F7xx_HAL_Driver/Src/stm32f7xx_ll_usb.c ****   *         Enables the controller's Global Int in the AHB Config reg
 173:Drivers/STM32F7xx_HAL_Driver/Src/stm32f7xx_ll_usb.c ****   * @param  USBx : Selected device
 174:Drivers/STM32F7xx_HAL_Driver/Src/stm32f7xx_ll_usb.c ****   * @retval HAL status
 175:Drivers/STM32F7xx_HAL_Driver/Src/stm32f7xx_ll_usb.c ****   */
 176:Drivers/STM32F7xx_HAL_Driver/Src/stm32f7xx_ll_usb.c **** HAL_StatusTypeDef USB_EnableGlobalInt(USB_OTG_GlobalTypeDef *USBx)
 177:Drivers/STM32F7xx_HAL_Driver/Src/stm32f7xx_ll_usb.c **** {
 178:Drivers/STM32F7xx_HAL_Driver/Src/stm32f7xx_ll_usb.c ****   USBx->GAHBCFG |= USB_OTG_GAHBCFG_GINT;
 179:Drivers/STM32F7xx_HAL_Driver/Src/stm32f7xx_ll_usb.c ****   return HAL_OK;
 180:Drivers/STM32F7xx_HAL_Driver/Src/stm32f7xx_ll_usb.c **** }
 181:Drivers/STM32F7xx_HAL_Driver/Src/stm32f7xx_ll_usb.c **** 
 182:Drivers/STM32F7xx_HAL_Driver/Src/stm32f7xx_ll_usb.c **** 
 183:Drivers/STM32F7xx_HAL_Driver/Src/stm32f7xx_ll_usb.c **** /**
 184:Drivers/STM32F7xx_HAL_Driver/Src/stm32f7xx_ll_usb.c ****   * @brief  USB_DisableGlobalInt
 185:Drivers/STM32F7xx_HAL_Driver/Src/stm32f7xx_ll_usb.c ****   *         Disable the controller's Global Int in the AHB Config reg
 186:Drivers/STM32F7xx_HAL_Driver/Src/stm32f7xx_ll_usb.c ****   * @param  USBx : Selected device
 187:Drivers/STM32F7xx_HAL_Driver/Src/stm32f7xx_ll_usb.c ****   * @retval HAL status
 188:Drivers/STM32F7xx_HAL_Driver/Src/stm32f7xx_ll_usb.c **** */
 189:Drivers/STM32F7xx_HAL_Driver/Src/stm32f7xx_ll_usb.c **** HAL_StatusTypeDef USB_DisableGlobalInt(USB_OTG_GlobalTypeDef *USBx)
 190:Drivers/STM32F7xx_HAL_Driver/Src/stm32f7xx_ll_usb.c **** {
 191:Drivers/STM32F7xx_HAL_Driver/Src/stm32f7xx_ll_usb.c ****   USBx->GAHBCFG &= ~USB_OTG_GAHBCFG_GINT;
 192:Drivers/STM32F7xx_HAL_Driver/Src/stm32f7xx_ll_usb.c ****   return HAL_OK;
 193:Drivers/STM32F7xx_HAL_Driver/Src/stm32f7xx_ll_usb.c **** }
 194:Drivers/STM32F7xx_HAL_Driver/Src/stm32f7xx_ll_usb.c **** 
 195:Drivers/STM32F7xx_HAL_Driver/Src/stm32f7xx_ll_usb.c **** /**
 196:Drivers/STM32F7xx_HAL_Driver/Src/stm32f7xx_ll_usb.c ****   * @brief  USB_SetCurrentMode : Set functional mode
 197:Drivers/STM32F7xx_HAL_Driver/Src/stm32f7xx_ll_usb.c ****   * @param  USBx : Selected device
 198:Drivers/STM32F7xx_HAL_Driver/Src/stm32f7xx_ll_usb.c ****   * @param  mode :  current core mode
 199:Drivers/STM32F7xx_HAL_Driver/Src/stm32f7xx_ll_usb.c ****   *          This parameter can be one of these values:
 200:Drivers/STM32F7xx_HAL_Driver/Src/stm32f7xx_ll_usb.c ****   *            @arg USB_OTG_DEVICE_MODE: Peripheral mode
 201:Drivers/STM32F7xx_HAL_Driver/Src/stm32f7xx_ll_usb.c ****   *            @arg USB_OTG_HOST_MODE: Host mode
 202:Drivers/STM32F7xx_HAL_Driver/Src/stm32f7xx_ll_usb.c ****   *            @arg USB_OTG_DRD_MODE: Dual Role Device mode
 203:Drivers/STM32F7xx_HAL_Driver/Src/stm32f7xx_ll_usb.c ****   * @retval HAL status
ARM GAS  C:\Users\Student\AppData\Local\Temp\ccty2SRd.s 			page 5


 204:Drivers/STM32F7xx_HAL_Driver/Src/stm32f7xx_ll_usb.c ****   */
 205:Drivers/STM32F7xx_HAL_Driver/Src/stm32f7xx_ll_usb.c **** HAL_StatusTypeDef USB_SetCurrentMode(USB_OTG_GlobalTypeDef *USBx , USB_OTG_ModeTypeDef mode)
 206:Drivers/STM32F7xx_HAL_Driver/Src/stm32f7xx_ll_usb.c **** {
 207:Drivers/STM32F7xx_HAL_Driver/Src/stm32f7xx_ll_usb.c ****   USBx->GUSBCFG &= ~(USB_OTG_GUSBCFG_FHMOD | USB_OTG_GUSBCFG_FDMOD);
 208:Drivers/STM32F7xx_HAL_Driver/Src/stm32f7xx_ll_usb.c **** 
 209:Drivers/STM32F7xx_HAL_Driver/Src/stm32f7xx_ll_usb.c ****   if ( mode == USB_OTG_HOST_MODE)
 210:Drivers/STM32F7xx_HAL_Driver/Src/stm32f7xx_ll_usb.c ****   {
 211:Drivers/STM32F7xx_HAL_Driver/Src/stm32f7xx_ll_usb.c ****     USBx->GUSBCFG |= USB_OTG_GUSBCFG_FHMOD;
 212:Drivers/STM32F7xx_HAL_Driver/Src/stm32f7xx_ll_usb.c ****   }
 213:Drivers/STM32F7xx_HAL_Driver/Src/stm32f7xx_ll_usb.c ****   else if ( mode == USB_OTG_DEVICE_MODE)
 214:Drivers/STM32F7xx_HAL_Driver/Src/stm32f7xx_ll_usb.c ****   {
 215:Drivers/STM32F7xx_HAL_Driver/Src/stm32f7xx_ll_usb.c ****     USBx->GUSBCFG |= USB_OTG_GUSBCFG_FDMOD;
 216:Drivers/STM32F7xx_HAL_Driver/Src/stm32f7xx_ll_usb.c ****   }
 217:Drivers/STM32F7xx_HAL_Driver/Src/stm32f7xx_ll_usb.c ****   HAL_Delay(50);
 218:Drivers/STM32F7xx_HAL_Driver/Src/stm32f7xx_ll_usb.c **** 
 219:Drivers/STM32F7xx_HAL_Driver/Src/stm32f7xx_ll_usb.c ****   return HAL_OK;
 220:Drivers/STM32F7xx_HAL_Driver/Src/stm32f7xx_ll_usb.c **** }
 221:Drivers/STM32F7xx_HAL_Driver/Src/stm32f7xx_ll_usb.c **** 
 222:Drivers/STM32F7xx_HAL_Driver/Src/stm32f7xx_ll_usb.c **** /**
 223:Drivers/STM32F7xx_HAL_Driver/Src/stm32f7xx_ll_usb.c ****   * @brief  USB_DevInit : Initializes the USB_OTG controller registers
 224:Drivers/STM32F7xx_HAL_Driver/Src/stm32f7xx_ll_usb.c ****   *         for device mode
 225:Drivers/STM32F7xx_HAL_Driver/Src/stm32f7xx_ll_usb.c ****   * @param  USBx : Selected device
 226:Drivers/STM32F7xx_HAL_Driver/Src/stm32f7xx_ll_usb.c ****   * @param  cfg  : pointer to a USB_OTG_CfgTypeDef structure that contains
 227:Drivers/STM32F7xx_HAL_Driver/Src/stm32f7xx_ll_usb.c ****   *         the configuration information for the specified USBx peripheral.
 228:Drivers/STM32F7xx_HAL_Driver/Src/stm32f7xx_ll_usb.c ****   * @retval HAL status
 229:Drivers/STM32F7xx_HAL_Driver/Src/stm32f7xx_ll_usb.c ****   */
 230:Drivers/STM32F7xx_HAL_Driver/Src/stm32f7xx_ll_usb.c **** HAL_StatusTypeDef USB_DevInit (USB_OTG_GlobalTypeDef *USBx, USB_OTG_CfgTypeDef cfg)
 231:Drivers/STM32F7xx_HAL_Driver/Src/stm32f7xx_ll_usb.c **** {
 232:Drivers/STM32F7xx_HAL_Driver/Src/stm32f7xx_ll_usb.c ****   uint32_t i = 0;
 233:Drivers/STM32F7xx_HAL_Driver/Src/stm32f7xx_ll_usb.c **** 
 234:Drivers/STM32F7xx_HAL_Driver/Src/stm32f7xx_ll_usb.c ****   /*Activate VBUS Sensing B */
 235:Drivers/STM32F7xx_HAL_Driver/Src/stm32f7xx_ll_usb.c ****   USBx->GCCFG |= USB_OTG_GCCFG_VBDEN;
 236:Drivers/STM32F7xx_HAL_Driver/Src/stm32f7xx_ll_usb.c **** 
 237:Drivers/STM32F7xx_HAL_Driver/Src/stm32f7xx_ll_usb.c ****   if (cfg.vbus_sensing_enable == 0)
 238:Drivers/STM32F7xx_HAL_Driver/Src/stm32f7xx_ll_usb.c ****   {
 239:Drivers/STM32F7xx_HAL_Driver/Src/stm32f7xx_ll_usb.c ****     /* Deactivate VBUS Sensing B */
 240:Drivers/STM32F7xx_HAL_Driver/Src/stm32f7xx_ll_usb.c ****     USBx->GCCFG &= ~ USB_OTG_GCCFG_VBDEN;
 241:Drivers/STM32F7xx_HAL_Driver/Src/stm32f7xx_ll_usb.c **** 
 242:Drivers/STM32F7xx_HAL_Driver/Src/stm32f7xx_ll_usb.c ****     /* B-peripheral session valid override enable*/
 243:Drivers/STM32F7xx_HAL_Driver/Src/stm32f7xx_ll_usb.c ****     USBx->GOTGCTL |= USB_OTG_GOTGCTL_BVALOEN;
 244:Drivers/STM32F7xx_HAL_Driver/Src/stm32f7xx_ll_usb.c ****     USBx->GOTGCTL |= USB_OTG_GOTGCTL_BVALOVAL;
 245:Drivers/STM32F7xx_HAL_Driver/Src/stm32f7xx_ll_usb.c ****   }
 246:Drivers/STM32F7xx_HAL_Driver/Src/stm32f7xx_ll_usb.c **** 
 247:Drivers/STM32F7xx_HAL_Driver/Src/stm32f7xx_ll_usb.c ****   /* Restart the Phy Clock */
 248:Drivers/STM32F7xx_HAL_Driver/Src/stm32f7xx_ll_usb.c ****   USBx_PCGCCTL = 0;
 249:Drivers/STM32F7xx_HAL_Driver/Src/stm32f7xx_ll_usb.c **** 
 250:Drivers/STM32F7xx_HAL_Driver/Src/stm32f7xx_ll_usb.c ****   /* Device mode configuration */
 251:Drivers/STM32F7xx_HAL_Driver/Src/stm32f7xx_ll_usb.c ****   USBx_DEVICE->DCFG |= DCFG_FRAME_INTERVAL_80;
 252:Drivers/STM32F7xx_HAL_Driver/Src/stm32f7xx_ll_usb.c **** 
 253:Drivers/STM32F7xx_HAL_Driver/Src/stm32f7xx_ll_usb.c ****   if(cfg.phy_itface  == USB_OTG_ULPI_PHY)
 254:Drivers/STM32F7xx_HAL_Driver/Src/stm32f7xx_ll_usb.c ****   {
 255:Drivers/STM32F7xx_HAL_Driver/Src/stm32f7xx_ll_usb.c ****     if(cfg.speed == USB_OTG_SPEED_HIGH)
 256:Drivers/STM32F7xx_HAL_Driver/Src/stm32f7xx_ll_usb.c ****     {
 257:Drivers/STM32F7xx_HAL_Driver/Src/stm32f7xx_ll_usb.c ****       /* Set High speed phy */
 258:Drivers/STM32F7xx_HAL_Driver/Src/stm32f7xx_ll_usb.c ****       USB_SetDevSpeed (USBx , USB_OTG_SPEED_HIGH);
 259:Drivers/STM32F7xx_HAL_Driver/Src/stm32f7xx_ll_usb.c ****     }
 260:Drivers/STM32F7xx_HAL_Driver/Src/stm32f7xx_ll_usb.c ****     else
ARM GAS  C:\Users\Student\AppData\Local\Temp\ccty2SRd.s 			page 6


 261:Drivers/STM32F7xx_HAL_Driver/Src/stm32f7xx_ll_usb.c ****     {
 262:Drivers/STM32F7xx_HAL_Driver/Src/stm32f7xx_ll_usb.c ****       /* set High speed phy in Full speed mode */
 263:Drivers/STM32F7xx_HAL_Driver/Src/stm32f7xx_ll_usb.c ****       USB_SetDevSpeed (USBx , USB_OTG_SPEED_HIGH_IN_FULL);
 264:Drivers/STM32F7xx_HAL_Driver/Src/stm32f7xx_ll_usb.c ****     }
 265:Drivers/STM32F7xx_HAL_Driver/Src/stm32f7xx_ll_usb.c ****   }
 266:Drivers/STM32F7xx_HAL_Driver/Src/stm32f7xx_ll_usb.c **** 
 267:Drivers/STM32F7xx_HAL_Driver/Src/stm32f7xx_ll_usb.c ****   else if(cfg.phy_itface  == USB_OTG_HS_EMBEDDED_PHY)
 268:Drivers/STM32F7xx_HAL_Driver/Src/stm32f7xx_ll_usb.c ****   {
 269:Drivers/STM32F7xx_HAL_Driver/Src/stm32f7xx_ll_usb.c ****     if(cfg.speed == USB_OTG_SPEED_HIGH)
 270:Drivers/STM32F7xx_HAL_Driver/Src/stm32f7xx_ll_usb.c ****     {
 271:Drivers/STM32F7xx_HAL_Driver/Src/stm32f7xx_ll_usb.c ****       /* Set High speed phy */
 272:Drivers/STM32F7xx_HAL_Driver/Src/stm32f7xx_ll_usb.c ****       USB_SetDevSpeed (USBx , USB_OTG_SPEED_HIGH);
 273:Drivers/STM32F7xx_HAL_Driver/Src/stm32f7xx_ll_usb.c ****     }
 274:Drivers/STM32F7xx_HAL_Driver/Src/stm32f7xx_ll_usb.c ****     else
 275:Drivers/STM32F7xx_HAL_Driver/Src/stm32f7xx_ll_usb.c ****     {
 276:Drivers/STM32F7xx_HAL_Driver/Src/stm32f7xx_ll_usb.c ****       /* set High speed phy in Full speed mode */
 277:Drivers/STM32F7xx_HAL_Driver/Src/stm32f7xx_ll_usb.c ****       USB_SetDevSpeed (USBx , USB_OTG_SPEED_HIGH_IN_FULL);
 278:Drivers/STM32F7xx_HAL_Driver/Src/stm32f7xx_ll_usb.c ****     }
 279:Drivers/STM32F7xx_HAL_Driver/Src/stm32f7xx_ll_usb.c ****   }
 280:Drivers/STM32F7xx_HAL_Driver/Src/stm32f7xx_ll_usb.c **** 
 281:Drivers/STM32F7xx_HAL_Driver/Src/stm32f7xx_ll_usb.c ****   else
 282:Drivers/STM32F7xx_HAL_Driver/Src/stm32f7xx_ll_usb.c ****   {
 283:Drivers/STM32F7xx_HAL_Driver/Src/stm32f7xx_ll_usb.c ****     /* Set Full speed phy */
 284:Drivers/STM32F7xx_HAL_Driver/Src/stm32f7xx_ll_usb.c ****     USB_SetDevSpeed (USBx , USB_OTG_SPEED_FULL);
 285:Drivers/STM32F7xx_HAL_Driver/Src/stm32f7xx_ll_usb.c ****   }
 286:Drivers/STM32F7xx_HAL_Driver/Src/stm32f7xx_ll_usb.c **** 
 287:Drivers/STM32F7xx_HAL_Driver/Src/stm32f7xx_ll_usb.c ****   /* Flush the FIFOs */
 288:Drivers/STM32F7xx_HAL_Driver/Src/stm32f7xx_ll_usb.c ****   USB_FlushTxFifo(USBx , 0x10); /* all Tx FIFOs */
 289:Drivers/STM32F7xx_HAL_Driver/Src/stm32f7xx_ll_usb.c ****   USB_FlushRxFifo(USBx);
 290:Drivers/STM32F7xx_HAL_Driver/Src/stm32f7xx_ll_usb.c **** 
 291:Drivers/STM32F7xx_HAL_Driver/Src/stm32f7xx_ll_usb.c ****   /* Clear all pending Device Interrupts */
 292:Drivers/STM32F7xx_HAL_Driver/Src/stm32f7xx_ll_usb.c ****   USBx_DEVICE->DIEPMSK = 0;
 293:Drivers/STM32F7xx_HAL_Driver/Src/stm32f7xx_ll_usb.c ****   USBx_DEVICE->DOEPMSK = 0;
 294:Drivers/STM32F7xx_HAL_Driver/Src/stm32f7xx_ll_usb.c ****   USBx_DEVICE->DAINT = 0xFFFFFFFF;
 295:Drivers/STM32F7xx_HAL_Driver/Src/stm32f7xx_ll_usb.c ****   USBx_DEVICE->DAINTMSK = 0;
 296:Drivers/STM32F7xx_HAL_Driver/Src/stm32f7xx_ll_usb.c **** 
 297:Drivers/STM32F7xx_HAL_Driver/Src/stm32f7xx_ll_usb.c ****   for (i = 0; i < cfg.dev_endpoints; i++)
 298:Drivers/STM32F7xx_HAL_Driver/Src/stm32f7xx_ll_usb.c ****   {
 299:Drivers/STM32F7xx_HAL_Driver/Src/stm32f7xx_ll_usb.c ****     if ((USBx_INEP(i)->DIEPCTL & USB_OTG_DIEPCTL_EPENA) == USB_OTG_DIEPCTL_EPENA)
 300:Drivers/STM32F7xx_HAL_Driver/Src/stm32f7xx_ll_usb.c ****     {
 301:Drivers/STM32F7xx_HAL_Driver/Src/stm32f7xx_ll_usb.c ****       USBx_INEP(i)->DIEPCTL = (USB_OTG_DIEPCTL_EPDIS | USB_OTG_DIEPCTL_SNAK);
 302:Drivers/STM32F7xx_HAL_Driver/Src/stm32f7xx_ll_usb.c ****     }
 303:Drivers/STM32F7xx_HAL_Driver/Src/stm32f7xx_ll_usb.c ****     else
 304:Drivers/STM32F7xx_HAL_Driver/Src/stm32f7xx_ll_usb.c ****     {
 305:Drivers/STM32F7xx_HAL_Driver/Src/stm32f7xx_ll_usb.c ****       USBx_INEP(i)->DIEPCTL = 0;
 306:Drivers/STM32F7xx_HAL_Driver/Src/stm32f7xx_ll_usb.c ****     }
 307:Drivers/STM32F7xx_HAL_Driver/Src/stm32f7xx_ll_usb.c **** 
 308:Drivers/STM32F7xx_HAL_Driver/Src/stm32f7xx_ll_usb.c ****     USBx_INEP(i)->DIEPTSIZ = 0;
 309:Drivers/STM32F7xx_HAL_Driver/Src/stm32f7xx_ll_usb.c ****     USBx_INEP(i)->DIEPINT  = 0xFF;
 310:Drivers/STM32F7xx_HAL_Driver/Src/stm32f7xx_ll_usb.c ****   }
 311:Drivers/STM32F7xx_HAL_Driver/Src/stm32f7xx_ll_usb.c **** 
 312:Drivers/STM32F7xx_HAL_Driver/Src/stm32f7xx_ll_usb.c ****   for (i = 0; i < cfg.dev_endpoints; i++)
 313:Drivers/STM32F7xx_HAL_Driver/Src/stm32f7xx_ll_usb.c ****   {
 314:Drivers/STM32F7xx_HAL_Driver/Src/stm32f7xx_ll_usb.c ****     if ((USBx_OUTEP(i)->DOEPCTL & USB_OTG_DOEPCTL_EPENA) == USB_OTG_DOEPCTL_EPENA)
 315:Drivers/STM32F7xx_HAL_Driver/Src/stm32f7xx_ll_usb.c ****     {
 316:Drivers/STM32F7xx_HAL_Driver/Src/stm32f7xx_ll_usb.c ****       USBx_OUTEP(i)->DOEPCTL = (USB_OTG_DOEPCTL_EPDIS | USB_OTG_DOEPCTL_SNAK);
 317:Drivers/STM32F7xx_HAL_Driver/Src/stm32f7xx_ll_usb.c ****     }
ARM GAS  C:\Users\Student\AppData\Local\Temp\ccty2SRd.s 			page 7


 318:Drivers/STM32F7xx_HAL_Driver/Src/stm32f7xx_ll_usb.c ****     else
 319:Drivers/STM32F7xx_HAL_Driver/Src/stm32f7xx_ll_usb.c ****     {
 320:Drivers/STM32F7xx_HAL_Driver/Src/stm32f7xx_ll_usb.c ****       USBx_OUTEP(i)->DOEPCTL = 0;
 321:Drivers/STM32F7xx_HAL_Driver/Src/stm32f7xx_ll_usb.c ****     }
 322:Drivers/STM32F7xx_HAL_Driver/Src/stm32f7xx_ll_usb.c **** 
 323:Drivers/STM32F7xx_HAL_Driver/Src/stm32f7xx_ll_usb.c ****     USBx_OUTEP(i)->DOEPTSIZ = 0;
 324:Drivers/STM32F7xx_HAL_Driver/Src/stm32f7xx_ll_usb.c ****     USBx_OUTEP(i)->DOEPINT  = 0xFF;
 325:Drivers/STM32F7xx_HAL_Driver/Src/stm32f7xx_ll_usb.c ****   }
 326:Drivers/STM32F7xx_HAL_Driver/Src/stm32f7xx_ll_usb.c **** 
 327:Drivers/STM32F7xx_HAL_Driver/Src/stm32f7xx_ll_usb.c ****   USBx_DEVICE->DIEPMSK &= ~(USB_OTG_DIEPMSK_TXFURM);
 328:Drivers/STM32F7xx_HAL_Driver/Src/stm32f7xx_ll_usb.c **** 
 329:Drivers/STM32F7xx_HAL_Driver/Src/stm32f7xx_ll_usb.c ****   if (cfg.dma_enable == 1)
 330:Drivers/STM32F7xx_HAL_Driver/Src/stm32f7xx_ll_usb.c ****   {
 331:Drivers/STM32F7xx_HAL_Driver/Src/stm32f7xx_ll_usb.c ****     /*Set threshold parameters */
 332:Drivers/STM32F7xx_HAL_Driver/Src/stm32f7xx_ll_usb.c ****     USBx_DEVICE->DTHRCTL = (USB_OTG_DTHRCTL_TXTHRLEN_6 | USB_OTG_DTHRCTL_RXTHRLEN_6);
 333:Drivers/STM32F7xx_HAL_Driver/Src/stm32f7xx_ll_usb.c ****     USBx_DEVICE->DTHRCTL |= (USB_OTG_DTHRCTL_RXTHREN | USB_OTG_DTHRCTL_ISOTHREN | USB_OTG_DTHRCTL_N
 334:Drivers/STM32F7xx_HAL_Driver/Src/stm32f7xx_ll_usb.c **** 
 335:Drivers/STM32F7xx_HAL_Driver/Src/stm32f7xx_ll_usb.c ****     i= USBx_DEVICE->DTHRCTL;
 336:Drivers/STM32F7xx_HAL_Driver/Src/stm32f7xx_ll_usb.c ****   }
 337:Drivers/STM32F7xx_HAL_Driver/Src/stm32f7xx_ll_usb.c **** 
 338:Drivers/STM32F7xx_HAL_Driver/Src/stm32f7xx_ll_usb.c ****   /* Disable all interrupts. */
 339:Drivers/STM32F7xx_HAL_Driver/Src/stm32f7xx_ll_usb.c ****   USBx->GINTMSK = 0;
 340:Drivers/STM32F7xx_HAL_Driver/Src/stm32f7xx_ll_usb.c **** 
 341:Drivers/STM32F7xx_HAL_Driver/Src/stm32f7xx_ll_usb.c ****   /* Clear any pending interrupts */
 342:Drivers/STM32F7xx_HAL_Driver/Src/stm32f7xx_ll_usb.c ****   USBx->GINTSTS = 0xBFFFFFFF;
 343:Drivers/STM32F7xx_HAL_Driver/Src/stm32f7xx_ll_usb.c **** 
 344:Drivers/STM32F7xx_HAL_Driver/Src/stm32f7xx_ll_usb.c ****   /* Enable the common interrupts */
 345:Drivers/STM32F7xx_HAL_Driver/Src/stm32f7xx_ll_usb.c ****   if (cfg.dma_enable == DISABLE)
 346:Drivers/STM32F7xx_HAL_Driver/Src/stm32f7xx_ll_usb.c ****   {
 347:Drivers/STM32F7xx_HAL_Driver/Src/stm32f7xx_ll_usb.c ****     USBx->GINTMSK |= USB_OTG_GINTMSK_RXFLVLM;
 348:Drivers/STM32F7xx_HAL_Driver/Src/stm32f7xx_ll_usb.c ****   }
 349:Drivers/STM32F7xx_HAL_Driver/Src/stm32f7xx_ll_usb.c **** 
 350:Drivers/STM32F7xx_HAL_Driver/Src/stm32f7xx_ll_usb.c ****   /* Enable interrupts matching to the Device mode ONLY */
 351:Drivers/STM32F7xx_HAL_Driver/Src/stm32f7xx_ll_usb.c ****   USBx->GINTMSK |= (USB_OTG_GINTMSK_USBSUSPM | USB_OTG_GINTMSK_USBRST |\
 352:Drivers/STM32F7xx_HAL_Driver/Src/stm32f7xx_ll_usb.c ****                     USB_OTG_GINTMSK_ENUMDNEM | USB_OTG_GINTMSK_IEPINT |\
 353:Drivers/STM32F7xx_HAL_Driver/Src/stm32f7xx_ll_usb.c ****                     USB_OTG_GINTMSK_OEPINT   | USB_OTG_GINTMSK_IISOIXFRM|\
 354:Drivers/STM32F7xx_HAL_Driver/Src/stm32f7xx_ll_usb.c ****                     USB_OTG_GINTMSK_PXFRM_IISOOXFRM | USB_OTG_GINTMSK_WUIM);
 355:Drivers/STM32F7xx_HAL_Driver/Src/stm32f7xx_ll_usb.c **** 
 356:Drivers/STM32F7xx_HAL_Driver/Src/stm32f7xx_ll_usb.c ****   if(cfg.Sof_enable)
 357:Drivers/STM32F7xx_HAL_Driver/Src/stm32f7xx_ll_usb.c ****   {
 358:Drivers/STM32F7xx_HAL_Driver/Src/stm32f7xx_ll_usb.c ****     USBx->GINTMSK |= USB_OTG_GINTMSK_SOFM;
 359:Drivers/STM32F7xx_HAL_Driver/Src/stm32f7xx_ll_usb.c ****   }
 360:Drivers/STM32F7xx_HAL_Driver/Src/stm32f7xx_ll_usb.c **** 
 361:Drivers/STM32F7xx_HAL_Driver/Src/stm32f7xx_ll_usb.c ****   if (cfg.vbus_sensing_enable == ENABLE)
 362:Drivers/STM32F7xx_HAL_Driver/Src/stm32f7xx_ll_usb.c ****   {
 363:Drivers/STM32F7xx_HAL_Driver/Src/stm32f7xx_ll_usb.c ****     USBx->GINTMSK |= (USB_OTG_GINTMSK_SRQIM | USB_OTG_GINTMSK_OTGINT);
 364:Drivers/STM32F7xx_HAL_Driver/Src/stm32f7xx_ll_usb.c ****   }
 365:Drivers/STM32F7xx_HAL_Driver/Src/stm32f7xx_ll_usb.c **** 
 366:Drivers/STM32F7xx_HAL_Driver/Src/stm32f7xx_ll_usb.c ****   return HAL_OK;
 367:Drivers/STM32F7xx_HAL_Driver/Src/stm32f7xx_ll_usb.c **** }
 368:Drivers/STM32F7xx_HAL_Driver/Src/stm32f7xx_ll_usb.c **** 
 369:Drivers/STM32F7xx_HAL_Driver/Src/stm32f7xx_ll_usb.c **** 
 370:Drivers/STM32F7xx_HAL_Driver/Src/stm32f7xx_ll_usb.c **** /**
 371:Drivers/STM32F7xx_HAL_Driver/Src/stm32f7xx_ll_usb.c ****   * @brief  USB_OTG_FlushTxFifo : Flush a Tx FIFO
 372:Drivers/STM32F7xx_HAL_Driver/Src/stm32f7xx_ll_usb.c ****   * @param  USBx : Selected device
 373:Drivers/STM32F7xx_HAL_Driver/Src/stm32f7xx_ll_usb.c ****   * @param  num : FIFO number
 374:Drivers/STM32F7xx_HAL_Driver/Src/stm32f7xx_ll_usb.c ****   *         This parameter can be a value from 1 to 15
ARM GAS  C:\Users\Student\AppData\Local\Temp\ccty2SRd.s 			page 8


 375:Drivers/STM32F7xx_HAL_Driver/Src/stm32f7xx_ll_usb.c ****             15 means Flush all Tx FIFOs
 376:Drivers/STM32F7xx_HAL_Driver/Src/stm32f7xx_ll_usb.c ****   * @retval HAL status
 377:Drivers/STM32F7xx_HAL_Driver/Src/stm32f7xx_ll_usb.c ****   */
 378:Drivers/STM32F7xx_HAL_Driver/Src/stm32f7xx_ll_usb.c **** HAL_StatusTypeDef USB_FlushTxFifo (USB_OTG_GlobalTypeDef *USBx, uint32_t num )
 379:Drivers/STM32F7xx_HAL_Driver/Src/stm32f7xx_ll_usb.c **** {
 380:Drivers/STM32F7xx_HAL_Driver/Src/stm32f7xx_ll_usb.c ****   uint32_t count = 0;
 381:Drivers/STM32F7xx_HAL_Driver/Src/stm32f7xx_ll_usb.c **** 
 382:Drivers/STM32F7xx_HAL_Driver/Src/stm32f7xx_ll_usb.c ****   USBx->GRSTCTL = ( USB_OTG_GRSTCTL_TXFFLSH |(uint32_t)( num << 6));
 383:Drivers/STM32F7xx_HAL_Driver/Src/stm32f7xx_ll_usb.c **** 
 384:Drivers/STM32F7xx_HAL_Driver/Src/stm32f7xx_ll_usb.c ****   do
 385:Drivers/STM32F7xx_HAL_Driver/Src/stm32f7xx_ll_usb.c ****   {
 386:Drivers/STM32F7xx_HAL_Driver/Src/stm32f7xx_ll_usb.c ****     if (++count > 200000)
 387:Drivers/STM32F7xx_HAL_Driver/Src/stm32f7xx_ll_usb.c ****     {
 388:Drivers/STM32F7xx_HAL_Driver/Src/stm32f7xx_ll_usb.c ****       return HAL_TIMEOUT;
 389:Drivers/STM32F7xx_HAL_Driver/Src/stm32f7xx_ll_usb.c ****     }
 390:Drivers/STM32F7xx_HAL_Driver/Src/stm32f7xx_ll_usb.c ****   }
 391:Drivers/STM32F7xx_HAL_Driver/Src/stm32f7xx_ll_usb.c ****   while ((USBx->GRSTCTL & USB_OTG_GRSTCTL_TXFFLSH) == USB_OTG_GRSTCTL_TXFFLSH);
 392:Drivers/STM32F7xx_HAL_Driver/Src/stm32f7xx_ll_usb.c **** 
 393:Drivers/STM32F7xx_HAL_Driver/Src/stm32f7xx_ll_usb.c ****   return HAL_OK;
 394:Drivers/STM32F7xx_HAL_Driver/Src/stm32f7xx_ll_usb.c **** }
 395:Drivers/STM32F7xx_HAL_Driver/Src/stm32f7xx_ll_usb.c **** 
 396:Drivers/STM32F7xx_HAL_Driver/Src/stm32f7xx_ll_usb.c **** 
 397:Drivers/STM32F7xx_HAL_Driver/Src/stm32f7xx_ll_usb.c **** /**
 398:Drivers/STM32F7xx_HAL_Driver/Src/stm32f7xx_ll_usb.c ****   * @brief  USB_FlushRxFifo : Flush Rx FIFO
 399:Drivers/STM32F7xx_HAL_Driver/Src/stm32f7xx_ll_usb.c ****   * @param  USBx : Selected device
 400:Drivers/STM32F7xx_HAL_Driver/Src/stm32f7xx_ll_usb.c ****   * @retval HAL status
 401:Drivers/STM32F7xx_HAL_Driver/Src/stm32f7xx_ll_usb.c ****   */
 402:Drivers/STM32F7xx_HAL_Driver/Src/stm32f7xx_ll_usb.c **** HAL_StatusTypeDef USB_FlushRxFifo(USB_OTG_GlobalTypeDef *USBx)
 403:Drivers/STM32F7xx_HAL_Driver/Src/stm32f7xx_ll_usb.c **** {
 404:Drivers/STM32F7xx_HAL_Driver/Src/stm32f7xx_ll_usb.c ****   uint32_t count = 0;
 405:Drivers/STM32F7xx_HAL_Driver/Src/stm32f7xx_ll_usb.c **** 
 406:Drivers/STM32F7xx_HAL_Driver/Src/stm32f7xx_ll_usb.c ****   USBx->GRSTCTL = USB_OTG_GRSTCTL_RXFFLSH;
 407:Drivers/STM32F7xx_HAL_Driver/Src/stm32f7xx_ll_usb.c **** 
 408:Drivers/STM32F7xx_HAL_Driver/Src/stm32f7xx_ll_usb.c ****   do
 409:Drivers/STM32F7xx_HAL_Driver/Src/stm32f7xx_ll_usb.c ****   {
 410:Drivers/STM32F7xx_HAL_Driver/Src/stm32f7xx_ll_usb.c ****     if (++count > 200000)
 411:Drivers/STM32F7xx_HAL_Driver/Src/stm32f7xx_ll_usb.c ****     {
 412:Drivers/STM32F7xx_HAL_Driver/Src/stm32f7xx_ll_usb.c ****       return HAL_TIMEOUT;
 413:Drivers/STM32F7xx_HAL_Driver/Src/stm32f7xx_ll_usb.c ****     }
 414:Drivers/STM32F7xx_HAL_Driver/Src/stm32f7xx_ll_usb.c ****   }
 415:Drivers/STM32F7xx_HAL_Driver/Src/stm32f7xx_ll_usb.c ****   while ((USBx->GRSTCTL & USB_OTG_GRSTCTL_RXFFLSH) == USB_OTG_GRSTCTL_RXFFLSH);
 416:Drivers/STM32F7xx_HAL_Driver/Src/stm32f7xx_ll_usb.c **** 
 417:Drivers/STM32F7xx_HAL_Driver/Src/stm32f7xx_ll_usb.c ****   return HAL_OK;
 418:Drivers/STM32F7xx_HAL_Driver/Src/stm32f7xx_ll_usb.c **** }
 419:Drivers/STM32F7xx_HAL_Driver/Src/stm32f7xx_ll_usb.c **** 
 420:Drivers/STM32F7xx_HAL_Driver/Src/stm32f7xx_ll_usb.c **** /**
 421:Drivers/STM32F7xx_HAL_Driver/Src/stm32f7xx_ll_usb.c ****   * @brief  USB_SetDevSpeed :Initializes the DevSpd field of DCFG register
 422:Drivers/STM32F7xx_HAL_Driver/Src/stm32f7xx_ll_usb.c ****   *         depending the PHY type and the enumeration speed of the device.
 423:Drivers/STM32F7xx_HAL_Driver/Src/stm32f7xx_ll_usb.c ****   * @param  USBx : Selected device
 424:Drivers/STM32F7xx_HAL_Driver/Src/stm32f7xx_ll_usb.c ****   * @param  speed : device speed
 425:Drivers/STM32F7xx_HAL_Driver/Src/stm32f7xx_ll_usb.c ****   *          This parameter can be one of these values:
 426:Drivers/STM32F7xx_HAL_Driver/Src/stm32f7xx_ll_usb.c ****   *            @arg USB_OTG_SPEED_HIGH: High speed mode
 427:Drivers/STM32F7xx_HAL_Driver/Src/stm32f7xx_ll_usb.c ****   *            @arg USB_OTG_SPEED_HIGH_IN_FULL: High speed core in Full Speed mode
 428:Drivers/STM32F7xx_HAL_Driver/Src/stm32f7xx_ll_usb.c ****   *            @arg USB_OTG_SPEED_FULL: Full speed mode
 429:Drivers/STM32F7xx_HAL_Driver/Src/stm32f7xx_ll_usb.c ****   *            @arg USB_OTG_SPEED_LOW: Low speed mode
 430:Drivers/STM32F7xx_HAL_Driver/Src/stm32f7xx_ll_usb.c ****   * @retval  Hal status
 431:Drivers/STM32F7xx_HAL_Driver/Src/stm32f7xx_ll_usb.c ****   */
ARM GAS  C:\Users\Student\AppData\Local\Temp\ccty2SRd.s 			page 9


 432:Drivers/STM32F7xx_HAL_Driver/Src/stm32f7xx_ll_usb.c **** HAL_StatusTypeDef USB_SetDevSpeed(USB_OTG_GlobalTypeDef *USBx , uint8_t speed)
 433:Drivers/STM32F7xx_HAL_Driver/Src/stm32f7xx_ll_usb.c **** {
 434:Drivers/STM32F7xx_HAL_Driver/Src/stm32f7xx_ll_usb.c ****   USBx_DEVICE->DCFG |= speed;
 435:Drivers/STM32F7xx_HAL_Driver/Src/stm32f7xx_ll_usb.c ****   return HAL_OK;
 436:Drivers/STM32F7xx_HAL_Driver/Src/stm32f7xx_ll_usb.c **** }
 437:Drivers/STM32F7xx_HAL_Driver/Src/stm32f7xx_ll_usb.c **** 
 438:Drivers/STM32F7xx_HAL_Driver/Src/stm32f7xx_ll_usb.c **** /**
 439:Drivers/STM32F7xx_HAL_Driver/Src/stm32f7xx_ll_usb.c ****   * @brief  USB_GetDevSpeed :Return the  Dev Speed
 440:Drivers/STM32F7xx_HAL_Driver/Src/stm32f7xx_ll_usb.c ****   * @param  USBx : Selected device
 441:Drivers/STM32F7xx_HAL_Driver/Src/stm32f7xx_ll_usb.c ****   * @retval speed : device speed
 442:Drivers/STM32F7xx_HAL_Driver/Src/stm32f7xx_ll_usb.c ****   *          This parameter can be one of these values:
 443:Drivers/STM32F7xx_HAL_Driver/Src/stm32f7xx_ll_usb.c ****   *            @arg USB_OTG_SPEED_HIGH: High speed mode
 444:Drivers/STM32F7xx_HAL_Driver/Src/stm32f7xx_ll_usb.c ****   *            @arg USB_OTG_SPEED_FULL: Full speed mode
 445:Drivers/STM32F7xx_HAL_Driver/Src/stm32f7xx_ll_usb.c ****   *            @arg USB_OTG_SPEED_LOW: Low speed mode
 446:Drivers/STM32F7xx_HAL_Driver/Src/stm32f7xx_ll_usb.c ****   */
 447:Drivers/STM32F7xx_HAL_Driver/Src/stm32f7xx_ll_usb.c **** uint8_t USB_GetDevSpeed(USB_OTG_GlobalTypeDef *USBx)
 448:Drivers/STM32F7xx_HAL_Driver/Src/stm32f7xx_ll_usb.c **** {
 449:Drivers/STM32F7xx_HAL_Driver/Src/stm32f7xx_ll_usb.c ****   uint8_t speed = 0;
 450:Drivers/STM32F7xx_HAL_Driver/Src/stm32f7xx_ll_usb.c **** 
 451:Drivers/STM32F7xx_HAL_Driver/Src/stm32f7xx_ll_usb.c ****   if((USBx_DEVICE->DSTS & USB_OTG_DSTS_ENUMSPD) == DSTS_ENUMSPD_HS_PHY_30MHZ_OR_60MHZ)
 452:Drivers/STM32F7xx_HAL_Driver/Src/stm32f7xx_ll_usb.c ****   {
 453:Drivers/STM32F7xx_HAL_Driver/Src/stm32f7xx_ll_usb.c ****     speed = USB_OTG_SPEED_HIGH;
 454:Drivers/STM32F7xx_HAL_Driver/Src/stm32f7xx_ll_usb.c ****   }
 455:Drivers/STM32F7xx_HAL_Driver/Src/stm32f7xx_ll_usb.c ****   else if (((USBx_DEVICE->DSTS & USB_OTG_DSTS_ENUMSPD) == DSTS_ENUMSPD_FS_PHY_30MHZ_OR_60MHZ)||
 456:Drivers/STM32F7xx_HAL_Driver/Src/stm32f7xx_ll_usb.c ****            ((USBx_DEVICE->DSTS & USB_OTG_DSTS_ENUMSPD) == DSTS_ENUMSPD_FS_PHY_48MHZ))
 457:Drivers/STM32F7xx_HAL_Driver/Src/stm32f7xx_ll_usb.c ****   {
 458:Drivers/STM32F7xx_HAL_Driver/Src/stm32f7xx_ll_usb.c ****     speed = USB_OTG_SPEED_FULL;
 459:Drivers/STM32F7xx_HAL_Driver/Src/stm32f7xx_ll_usb.c ****   }
 460:Drivers/STM32F7xx_HAL_Driver/Src/stm32f7xx_ll_usb.c ****   else if((USBx_DEVICE->DSTS & USB_OTG_DSTS_ENUMSPD) == DSTS_ENUMSPD_LS_PHY_6MHZ)
 461:Drivers/STM32F7xx_HAL_Driver/Src/stm32f7xx_ll_usb.c ****   {
 462:Drivers/STM32F7xx_HAL_Driver/Src/stm32f7xx_ll_usb.c ****     speed = USB_OTG_SPEED_LOW;
 463:Drivers/STM32F7xx_HAL_Driver/Src/stm32f7xx_ll_usb.c ****   }
 464:Drivers/STM32F7xx_HAL_Driver/Src/stm32f7xx_ll_usb.c **** 
 465:Drivers/STM32F7xx_HAL_Driver/Src/stm32f7xx_ll_usb.c ****   return speed;
 466:Drivers/STM32F7xx_HAL_Driver/Src/stm32f7xx_ll_usb.c **** }
 467:Drivers/STM32F7xx_HAL_Driver/Src/stm32f7xx_ll_usb.c **** 
 468:Drivers/STM32F7xx_HAL_Driver/Src/stm32f7xx_ll_usb.c **** /**
 469:Drivers/STM32F7xx_HAL_Driver/Src/stm32f7xx_ll_usb.c ****   * @brief  Activate and configure an endpoint
 470:Drivers/STM32F7xx_HAL_Driver/Src/stm32f7xx_ll_usb.c ****   * @param  USBx : Selected device
 471:Drivers/STM32F7xx_HAL_Driver/Src/stm32f7xx_ll_usb.c ****   * @param  ep: pointer to endpoint structure
 472:Drivers/STM32F7xx_HAL_Driver/Src/stm32f7xx_ll_usb.c ****   * @retval HAL status
 473:Drivers/STM32F7xx_HAL_Driver/Src/stm32f7xx_ll_usb.c ****   */
 474:Drivers/STM32F7xx_HAL_Driver/Src/stm32f7xx_ll_usb.c **** HAL_StatusTypeDef USB_ActivateEndpoint(USB_OTG_GlobalTypeDef *USBx, USB_OTG_EPTypeDef *ep)
 475:Drivers/STM32F7xx_HAL_Driver/Src/stm32f7xx_ll_usb.c **** {
 476:Drivers/STM32F7xx_HAL_Driver/Src/stm32f7xx_ll_usb.c ****   if (ep->is_in == 1)
 477:Drivers/STM32F7xx_HAL_Driver/Src/stm32f7xx_ll_usb.c ****   {
 478:Drivers/STM32F7xx_HAL_Driver/Src/stm32f7xx_ll_usb.c ****    USBx_DEVICE->DAINTMSK |= USB_OTG_DAINTMSK_IEPM & ((1 << (ep->num)));
 479:Drivers/STM32F7xx_HAL_Driver/Src/stm32f7xx_ll_usb.c **** 
 480:Drivers/STM32F7xx_HAL_Driver/Src/stm32f7xx_ll_usb.c ****     if (((USBx_INEP(ep->num)->DIEPCTL) & USB_OTG_DIEPCTL_USBAEP) == 0)
 481:Drivers/STM32F7xx_HAL_Driver/Src/stm32f7xx_ll_usb.c ****     {
 482:Drivers/STM32F7xx_HAL_Driver/Src/stm32f7xx_ll_usb.c ****       USBx_INEP(ep->num)->DIEPCTL |= ((ep->maxpacket & USB_OTG_DIEPCTL_MPSIZ ) | (ep->type << 18 ) 
 483:Drivers/STM32F7xx_HAL_Driver/Src/stm32f7xx_ll_usb.c ****         ((ep->num) << 22 ) | (USB_OTG_DIEPCTL_SD0PID_SEVNFRM) | (USB_OTG_DIEPCTL_USBAEP));
 484:Drivers/STM32F7xx_HAL_Driver/Src/stm32f7xx_ll_usb.c ****     }
 485:Drivers/STM32F7xx_HAL_Driver/Src/stm32f7xx_ll_usb.c **** 
 486:Drivers/STM32F7xx_HAL_Driver/Src/stm32f7xx_ll_usb.c ****   }
 487:Drivers/STM32F7xx_HAL_Driver/Src/stm32f7xx_ll_usb.c ****   else
 488:Drivers/STM32F7xx_HAL_Driver/Src/stm32f7xx_ll_usb.c ****   {
ARM GAS  C:\Users\Student\AppData\Local\Temp\ccty2SRd.s 			page 10


 489:Drivers/STM32F7xx_HAL_Driver/Src/stm32f7xx_ll_usb.c ****      USBx_DEVICE->DAINTMSK |= USB_OTG_DAINTMSK_OEPM & ((1 << (ep->num)) << 16);
 490:Drivers/STM32F7xx_HAL_Driver/Src/stm32f7xx_ll_usb.c **** 
 491:Drivers/STM32F7xx_HAL_Driver/Src/stm32f7xx_ll_usb.c ****     if (((USBx_OUTEP(ep->num)->DOEPCTL) & USB_OTG_DOEPCTL_USBAEP) == 0)
 492:Drivers/STM32F7xx_HAL_Driver/Src/stm32f7xx_ll_usb.c ****     {
 493:Drivers/STM32F7xx_HAL_Driver/Src/stm32f7xx_ll_usb.c ****       USBx_OUTEP(ep->num)->DOEPCTL |= ((ep->maxpacket & USB_OTG_DOEPCTL_MPSIZ ) | (ep->type << 18 )
 494:Drivers/STM32F7xx_HAL_Driver/Src/stm32f7xx_ll_usb.c ****        (USB_OTG_DIEPCTL_SD0PID_SEVNFRM)| (USB_OTG_DOEPCTL_USBAEP));
 495:Drivers/STM32F7xx_HAL_Driver/Src/stm32f7xx_ll_usb.c ****     }
 496:Drivers/STM32F7xx_HAL_Driver/Src/stm32f7xx_ll_usb.c ****   }
 497:Drivers/STM32F7xx_HAL_Driver/Src/stm32f7xx_ll_usb.c ****   return HAL_OK;
 498:Drivers/STM32F7xx_HAL_Driver/Src/stm32f7xx_ll_usb.c **** }
 499:Drivers/STM32F7xx_HAL_Driver/Src/stm32f7xx_ll_usb.c **** /**
 500:Drivers/STM32F7xx_HAL_Driver/Src/stm32f7xx_ll_usb.c ****   * @brief  Activate and configure a dedicated endpoint
 501:Drivers/STM32F7xx_HAL_Driver/Src/stm32f7xx_ll_usb.c ****   * @param  USBx : Selected device
 502:Drivers/STM32F7xx_HAL_Driver/Src/stm32f7xx_ll_usb.c ****   * @param  ep: pointer to endpoint structure
 503:Drivers/STM32F7xx_HAL_Driver/Src/stm32f7xx_ll_usb.c ****   * @retval HAL status
 504:Drivers/STM32F7xx_HAL_Driver/Src/stm32f7xx_ll_usb.c ****   */
 505:Drivers/STM32F7xx_HAL_Driver/Src/stm32f7xx_ll_usb.c **** HAL_StatusTypeDef USB_ActivateDedicatedEndpoint(USB_OTG_GlobalTypeDef *USBx, USB_OTG_EPTypeDef *ep)
 506:Drivers/STM32F7xx_HAL_Driver/Src/stm32f7xx_ll_usb.c **** {
 507:Drivers/STM32F7xx_HAL_Driver/Src/stm32f7xx_ll_usb.c ****   static __IO uint32_t debug = 0;
 508:Drivers/STM32F7xx_HAL_Driver/Src/stm32f7xx_ll_usb.c **** 
 509:Drivers/STM32F7xx_HAL_Driver/Src/stm32f7xx_ll_usb.c ****   /* Read DEPCTLn register */
 510:Drivers/STM32F7xx_HAL_Driver/Src/stm32f7xx_ll_usb.c ****   if (ep->is_in == 1)
 511:Drivers/STM32F7xx_HAL_Driver/Src/stm32f7xx_ll_usb.c ****   {
 512:Drivers/STM32F7xx_HAL_Driver/Src/stm32f7xx_ll_usb.c ****     if (((USBx_INEP(ep->num)->DIEPCTL) & USB_OTG_DIEPCTL_USBAEP) == 0)
 513:Drivers/STM32F7xx_HAL_Driver/Src/stm32f7xx_ll_usb.c ****     {
 514:Drivers/STM32F7xx_HAL_Driver/Src/stm32f7xx_ll_usb.c ****       USBx_INEP(ep->num)->DIEPCTL |= ((ep->maxpacket & USB_OTG_DIEPCTL_MPSIZ ) | (ep->type << 18 ) 
 515:Drivers/STM32F7xx_HAL_Driver/Src/stm32f7xx_ll_usb.c ****         ((ep->num) << 22 ) | (USB_OTG_DIEPCTL_SD0PID_SEVNFRM) | (USB_OTG_DIEPCTL_USBAEP));
 516:Drivers/STM32F7xx_HAL_Driver/Src/stm32f7xx_ll_usb.c ****     }
 517:Drivers/STM32F7xx_HAL_Driver/Src/stm32f7xx_ll_usb.c **** 
 518:Drivers/STM32F7xx_HAL_Driver/Src/stm32f7xx_ll_usb.c **** 
 519:Drivers/STM32F7xx_HAL_Driver/Src/stm32f7xx_ll_usb.c ****     debug  |= ((ep->maxpacket & USB_OTG_DIEPCTL_MPSIZ ) | (ep->type << 18 ) |\
 520:Drivers/STM32F7xx_HAL_Driver/Src/stm32f7xx_ll_usb.c ****         ((ep->num) << 22 ) | (USB_OTG_DIEPCTL_SD0PID_SEVNFRM) | (USB_OTG_DIEPCTL_USBAEP));
 521:Drivers/STM32F7xx_HAL_Driver/Src/stm32f7xx_ll_usb.c **** 
 522:Drivers/STM32F7xx_HAL_Driver/Src/stm32f7xx_ll_usb.c ****    USBx_DEVICE->DEACHMSK |= USB_OTG_DAINTMSK_IEPM & ((1 << (ep->num)));
 523:Drivers/STM32F7xx_HAL_Driver/Src/stm32f7xx_ll_usb.c ****   }
 524:Drivers/STM32F7xx_HAL_Driver/Src/stm32f7xx_ll_usb.c ****   else
 525:Drivers/STM32F7xx_HAL_Driver/Src/stm32f7xx_ll_usb.c ****   {
 526:Drivers/STM32F7xx_HAL_Driver/Src/stm32f7xx_ll_usb.c ****     if (((USBx_OUTEP(ep->num)->DOEPCTL) & USB_OTG_DOEPCTL_USBAEP) == 0)
 527:Drivers/STM32F7xx_HAL_Driver/Src/stm32f7xx_ll_usb.c ****     {
 528:Drivers/STM32F7xx_HAL_Driver/Src/stm32f7xx_ll_usb.c ****       USBx_OUTEP(ep->num)->DOEPCTL |= ((ep->maxpacket & USB_OTG_DOEPCTL_MPSIZ ) | (ep->type << 18 )
 529:Drivers/STM32F7xx_HAL_Driver/Src/stm32f7xx_ll_usb.c ****         ((ep->num) << 22 ) | (USB_OTG_DOEPCTL_USBAEP));
 530:Drivers/STM32F7xx_HAL_Driver/Src/stm32f7xx_ll_usb.c **** 
 531:Drivers/STM32F7xx_HAL_Driver/Src/stm32f7xx_ll_usb.c ****       debug = (uint32_t)(((uint32_t )USBx) + USB_OTG_OUT_ENDPOINT_BASE + (0)*USB_OTG_EP_REG_SIZE);
 532:Drivers/STM32F7xx_HAL_Driver/Src/stm32f7xx_ll_usb.c ****       debug = (uint32_t )&USBx_OUTEP(ep->num)->DOEPCTL;
 533:Drivers/STM32F7xx_HAL_Driver/Src/stm32f7xx_ll_usb.c ****       debug |= ((ep->maxpacket & USB_OTG_DOEPCTL_MPSIZ ) | (ep->type << 18 ) |\
 534:Drivers/STM32F7xx_HAL_Driver/Src/stm32f7xx_ll_usb.c ****         ((ep->num) << 22 ) | (USB_OTG_DOEPCTL_USBAEP));
 535:Drivers/STM32F7xx_HAL_Driver/Src/stm32f7xx_ll_usb.c ****     }
 536:Drivers/STM32F7xx_HAL_Driver/Src/stm32f7xx_ll_usb.c **** 
 537:Drivers/STM32F7xx_HAL_Driver/Src/stm32f7xx_ll_usb.c ****      USBx_DEVICE->DEACHMSK |= USB_OTG_DAINTMSK_OEPM & ((1 << (ep->num)) << 16);
 538:Drivers/STM32F7xx_HAL_Driver/Src/stm32f7xx_ll_usb.c ****   }
 539:Drivers/STM32F7xx_HAL_Driver/Src/stm32f7xx_ll_usb.c **** 
 540:Drivers/STM32F7xx_HAL_Driver/Src/stm32f7xx_ll_usb.c ****   return HAL_OK;
 541:Drivers/STM32F7xx_HAL_Driver/Src/stm32f7xx_ll_usb.c **** }
 542:Drivers/STM32F7xx_HAL_Driver/Src/stm32f7xx_ll_usb.c **** /**
 543:Drivers/STM32F7xx_HAL_Driver/Src/stm32f7xx_ll_usb.c ****   * @brief  De-activate and de-initialize an endpoint
 544:Drivers/STM32F7xx_HAL_Driver/Src/stm32f7xx_ll_usb.c ****   * @param  USBx : Selected device
 545:Drivers/STM32F7xx_HAL_Driver/Src/stm32f7xx_ll_usb.c ****   * @param  ep: pointer to endpoint structure
ARM GAS  C:\Users\Student\AppData\Local\Temp\ccty2SRd.s 			page 11


 546:Drivers/STM32F7xx_HAL_Driver/Src/stm32f7xx_ll_usb.c ****   * @retval HAL status
 547:Drivers/STM32F7xx_HAL_Driver/Src/stm32f7xx_ll_usb.c ****   */
 548:Drivers/STM32F7xx_HAL_Driver/Src/stm32f7xx_ll_usb.c **** HAL_StatusTypeDef USB_DeactivateEndpoint(USB_OTG_GlobalTypeDef *USBx, USB_OTG_EPTypeDef *ep)
 549:Drivers/STM32F7xx_HAL_Driver/Src/stm32f7xx_ll_usb.c **** {
 550:Drivers/STM32F7xx_HAL_Driver/Src/stm32f7xx_ll_usb.c ****   /* Read DEPCTLn register */
 551:Drivers/STM32F7xx_HAL_Driver/Src/stm32f7xx_ll_usb.c ****   if (ep->is_in == 1)
 552:Drivers/STM32F7xx_HAL_Driver/Src/stm32f7xx_ll_usb.c ****   {
 553:Drivers/STM32F7xx_HAL_Driver/Src/stm32f7xx_ll_usb.c ****    USBx_DEVICE->DEACHMSK &= ~(USB_OTG_DAINTMSK_IEPM & ((1 << (ep->num))));
 554:Drivers/STM32F7xx_HAL_Driver/Src/stm32f7xx_ll_usb.c ****    USBx_DEVICE->DAINTMSK &= ~(USB_OTG_DAINTMSK_IEPM & ((1 << (ep->num))));
 555:Drivers/STM32F7xx_HAL_Driver/Src/stm32f7xx_ll_usb.c ****    USBx_INEP(ep->num)->DIEPCTL &= ~ USB_OTG_DIEPCTL_USBAEP;
 556:Drivers/STM32F7xx_HAL_Driver/Src/stm32f7xx_ll_usb.c ****   }
 557:Drivers/STM32F7xx_HAL_Driver/Src/stm32f7xx_ll_usb.c ****   else
 558:Drivers/STM32F7xx_HAL_Driver/Src/stm32f7xx_ll_usb.c ****   {
 559:Drivers/STM32F7xx_HAL_Driver/Src/stm32f7xx_ll_usb.c ****      USBx_DEVICE->DEACHMSK &= ~(USB_OTG_DAINTMSK_OEPM & ((1 << (ep->num)) << 16));
 560:Drivers/STM32F7xx_HAL_Driver/Src/stm32f7xx_ll_usb.c ****      USBx_DEVICE->DAINTMSK &= ~(USB_OTG_DAINTMSK_OEPM & ((1 << (ep->num)) << 16));
 561:Drivers/STM32F7xx_HAL_Driver/Src/stm32f7xx_ll_usb.c ****      USBx_OUTEP(ep->num)->DOEPCTL &= ~USB_OTG_DOEPCTL_USBAEP;
 562:Drivers/STM32F7xx_HAL_Driver/Src/stm32f7xx_ll_usb.c ****   }
 563:Drivers/STM32F7xx_HAL_Driver/Src/stm32f7xx_ll_usb.c ****   return HAL_OK;
 564:Drivers/STM32F7xx_HAL_Driver/Src/stm32f7xx_ll_usb.c **** }
 565:Drivers/STM32F7xx_HAL_Driver/Src/stm32f7xx_ll_usb.c **** 
 566:Drivers/STM32F7xx_HAL_Driver/Src/stm32f7xx_ll_usb.c **** /**
 567:Drivers/STM32F7xx_HAL_Driver/Src/stm32f7xx_ll_usb.c ****   * @brief  De-activate and de-initialize a dedicated endpoint
 568:Drivers/STM32F7xx_HAL_Driver/Src/stm32f7xx_ll_usb.c ****   * @param  USBx : Selected device
 569:Drivers/STM32F7xx_HAL_Driver/Src/stm32f7xx_ll_usb.c ****   * @param  ep: pointer to endpoint structure
 570:Drivers/STM32F7xx_HAL_Driver/Src/stm32f7xx_ll_usb.c ****   * @retval HAL status
 571:Drivers/STM32F7xx_HAL_Driver/Src/stm32f7xx_ll_usb.c ****   */
 572:Drivers/STM32F7xx_HAL_Driver/Src/stm32f7xx_ll_usb.c **** HAL_StatusTypeDef USB_DeactivateDedicatedEndpoint(USB_OTG_GlobalTypeDef *USBx, USB_OTG_EPTypeDef *e
 573:Drivers/STM32F7xx_HAL_Driver/Src/stm32f7xx_ll_usb.c **** {
 574:Drivers/STM32F7xx_HAL_Driver/Src/stm32f7xx_ll_usb.c ****   /* Read DEPCTLn register */
 575:Drivers/STM32F7xx_HAL_Driver/Src/stm32f7xx_ll_usb.c ****   if (ep->is_in == 1)
 576:Drivers/STM32F7xx_HAL_Driver/Src/stm32f7xx_ll_usb.c ****   {
 577:Drivers/STM32F7xx_HAL_Driver/Src/stm32f7xx_ll_usb.c ****    USBx_INEP(ep->num)->DIEPCTL &= ~ USB_OTG_DIEPCTL_USBAEP;
 578:Drivers/STM32F7xx_HAL_Driver/Src/stm32f7xx_ll_usb.c ****    USBx_DEVICE->DAINTMSK &= ~(USB_OTG_DAINTMSK_IEPM & ((1 << (ep->num))));
 579:Drivers/STM32F7xx_HAL_Driver/Src/stm32f7xx_ll_usb.c ****   }
 580:Drivers/STM32F7xx_HAL_Driver/Src/stm32f7xx_ll_usb.c ****   else
 581:Drivers/STM32F7xx_HAL_Driver/Src/stm32f7xx_ll_usb.c ****   {
 582:Drivers/STM32F7xx_HAL_Driver/Src/stm32f7xx_ll_usb.c ****      USBx_OUTEP(ep->num)->DOEPCTL &= ~USB_OTG_DOEPCTL_USBAEP;
 583:Drivers/STM32F7xx_HAL_Driver/Src/stm32f7xx_ll_usb.c ****      USBx_DEVICE->DAINTMSK &= ~(USB_OTG_DAINTMSK_OEPM & ((1 << (ep->num)) << 16));
 584:Drivers/STM32F7xx_HAL_Driver/Src/stm32f7xx_ll_usb.c ****   }
 585:Drivers/STM32F7xx_HAL_Driver/Src/stm32f7xx_ll_usb.c ****   return HAL_OK;
 586:Drivers/STM32F7xx_HAL_Driver/Src/stm32f7xx_ll_usb.c **** }
 587:Drivers/STM32F7xx_HAL_Driver/Src/stm32f7xx_ll_usb.c **** 
 588:Drivers/STM32F7xx_HAL_Driver/Src/stm32f7xx_ll_usb.c **** /**
 589:Drivers/STM32F7xx_HAL_Driver/Src/stm32f7xx_ll_usb.c ****   * @brief  USB_EPStartXfer : setup and starts a transfer over an EP
 590:Drivers/STM32F7xx_HAL_Driver/Src/stm32f7xx_ll_usb.c ****   * @param  USBx : Selected device
 591:Drivers/STM32F7xx_HAL_Driver/Src/stm32f7xx_ll_usb.c ****   * @param  ep: pointer to endpoint structure
 592:Drivers/STM32F7xx_HAL_Driver/Src/stm32f7xx_ll_usb.c ****   * @param  dma: USB dma enabled or disabled
 593:Drivers/STM32F7xx_HAL_Driver/Src/stm32f7xx_ll_usb.c ****   *          This parameter can be one of these values:
 594:Drivers/STM32F7xx_HAL_Driver/Src/stm32f7xx_ll_usb.c ****   *           0 : DMA feature not used
 595:Drivers/STM32F7xx_HAL_Driver/Src/stm32f7xx_ll_usb.c ****   *           1 : DMA feature used
 596:Drivers/STM32F7xx_HAL_Driver/Src/stm32f7xx_ll_usb.c ****   * @retval HAL status
 597:Drivers/STM32F7xx_HAL_Driver/Src/stm32f7xx_ll_usb.c ****   */
 598:Drivers/STM32F7xx_HAL_Driver/Src/stm32f7xx_ll_usb.c **** HAL_StatusTypeDef USB_EPStartXfer(USB_OTG_GlobalTypeDef *USBx , USB_OTG_EPTypeDef *ep, uint8_t dma)
 599:Drivers/STM32F7xx_HAL_Driver/Src/stm32f7xx_ll_usb.c **** {
 600:Drivers/STM32F7xx_HAL_Driver/Src/stm32f7xx_ll_usb.c ****   uint16_t pktcnt = 0;
 601:Drivers/STM32F7xx_HAL_Driver/Src/stm32f7xx_ll_usb.c **** 
 602:Drivers/STM32F7xx_HAL_Driver/Src/stm32f7xx_ll_usb.c ****   /* IN endpoint */
ARM GAS  C:\Users\Student\AppData\Local\Temp\ccty2SRd.s 			page 12


 603:Drivers/STM32F7xx_HAL_Driver/Src/stm32f7xx_ll_usb.c ****   if (ep->is_in == 1)
 604:Drivers/STM32F7xx_HAL_Driver/Src/stm32f7xx_ll_usb.c ****   {
 605:Drivers/STM32F7xx_HAL_Driver/Src/stm32f7xx_ll_usb.c ****     /* Zero Length Packet? */
 606:Drivers/STM32F7xx_HAL_Driver/Src/stm32f7xx_ll_usb.c ****     if (ep->xfer_len == 0)
 607:Drivers/STM32F7xx_HAL_Driver/Src/stm32f7xx_ll_usb.c ****     {
 608:Drivers/STM32F7xx_HAL_Driver/Src/stm32f7xx_ll_usb.c ****       USBx_INEP(ep->num)->DIEPTSIZ &= ~(USB_OTG_DIEPTSIZ_PKTCNT);
 609:Drivers/STM32F7xx_HAL_Driver/Src/stm32f7xx_ll_usb.c ****       USBx_INEP(ep->num)->DIEPTSIZ |= (USB_OTG_DIEPTSIZ_PKTCNT & (1 << 19)) ;
 610:Drivers/STM32F7xx_HAL_Driver/Src/stm32f7xx_ll_usb.c ****       USBx_INEP(ep->num)->DIEPTSIZ &= ~(USB_OTG_DIEPTSIZ_XFRSIZ);
 611:Drivers/STM32F7xx_HAL_Driver/Src/stm32f7xx_ll_usb.c ****     }
 612:Drivers/STM32F7xx_HAL_Driver/Src/stm32f7xx_ll_usb.c ****     else
 613:Drivers/STM32F7xx_HAL_Driver/Src/stm32f7xx_ll_usb.c ****     {
 614:Drivers/STM32F7xx_HAL_Driver/Src/stm32f7xx_ll_usb.c ****       /* Program the transfer size and packet count
 615:Drivers/STM32F7xx_HAL_Driver/Src/stm32f7xx_ll_usb.c ****       * as follows: xfersize = N * maxpacket +
 616:Drivers/STM32F7xx_HAL_Driver/Src/stm32f7xx_ll_usb.c ****       * short_packet pktcnt = N + (short_packet
 617:Drivers/STM32F7xx_HAL_Driver/Src/stm32f7xx_ll_usb.c ****       * exist ? 1 : 0)
 618:Drivers/STM32F7xx_HAL_Driver/Src/stm32f7xx_ll_usb.c ****       */
 619:Drivers/STM32F7xx_HAL_Driver/Src/stm32f7xx_ll_usb.c ****       USBx_INEP(ep->num)->DIEPTSIZ &= ~(USB_OTG_DIEPTSIZ_XFRSIZ);
 620:Drivers/STM32F7xx_HAL_Driver/Src/stm32f7xx_ll_usb.c ****       USBx_INEP(ep->num)->DIEPTSIZ &= ~(USB_OTG_DIEPTSIZ_PKTCNT);
 621:Drivers/STM32F7xx_HAL_Driver/Src/stm32f7xx_ll_usb.c ****       USBx_INEP(ep->num)->DIEPTSIZ |= (USB_OTG_DIEPTSIZ_PKTCNT & (((ep->xfer_len + ep->maxpacket -1
 622:Drivers/STM32F7xx_HAL_Driver/Src/stm32f7xx_ll_usb.c ****       USBx_INEP(ep->num)->DIEPTSIZ |= (USB_OTG_DIEPTSIZ_XFRSIZ & ep->xfer_len);
 623:Drivers/STM32F7xx_HAL_Driver/Src/stm32f7xx_ll_usb.c **** 
 624:Drivers/STM32F7xx_HAL_Driver/Src/stm32f7xx_ll_usb.c ****       if (ep->type == EP_TYPE_ISOC)
 625:Drivers/STM32F7xx_HAL_Driver/Src/stm32f7xx_ll_usb.c ****       {
 626:Drivers/STM32F7xx_HAL_Driver/Src/stm32f7xx_ll_usb.c ****         USBx_INEP(ep->num)->DIEPTSIZ &= ~(USB_OTG_DIEPTSIZ_MULCNT);
 627:Drivers/STM32F7xx_HAL_Driver/Src/stm32f7xx_ll_usb.c ****         USBx_INEP(ep->num)->DIEPTSIZ |= (USB_OTG_DIEPTSIZ_MULCNT & (1 << 29));
 628:Drivers/STM32F7xx_HAL_Driver/Src/stm32f7xx_ll_usb.c ****       }
 629:Drivers/STM32F7xx_HAL_Driver/Src/stm32f7xx_ll_usb.c ****     }
 630:Drivers/STM32F7xx_HAL_Driver/Src/stm32f7xx_ll_usb.c **** 
 631:Drivers/STM32F7xx_HAL_Driver/Src/stm32f7xx_ll_usb.c ****     if (dma == 1)
 632:Drivers/STM32F7xx_HAL_Driver/Src/stm32f7xx_ll_usb.c ****     {
 633:Drivers/STM32F7xx_HAL_Driver/Src/stm32f7xx_ll_usb.c ****       USBx_INEP(ep->num)->DIEPDMA = (uint32_t)(ep->dma_addr);
 634:Drivers/STM32F7xx_HAL_Driver/Src/stm32f7xx_ll_usb.c ****     }
 635:Drivers/STM32F7xx_HAL_Driver/Src/stm32f7xx_ll_usb.c ****     else
 636:Drivers/STM32F7xx_HAL_Driver/Src/stm32f7xx_ll_usb.c ****     {
 637:Drivers/STM32F7xx_HAL_Driver/Src/stm32f7xx_ll_usb.c ****       if (ep->type != EP_TYPE_ISOC)
 638:Drivers/STM32F7xx_HAL_Driver/Src/stm32f7xx_ll_usb.c ****       {
 639:Drivers/STM32F7xx_HAL_Driver/Src/stm32f7xx_ll_usb.c ****         /* Enable the Tx FIFO Empty Interrupt for this EP */
 640:Drivers/STM32F7xx_HAL_Driver/Src/stm32f7xx_ll_usb.c ****         if (ep->xfer_len > 0)
 641:Drivers/STM32F7xx_HAL_Driver/Src/stm32f7xx_ll_usb.c ****         {
 642:Drivers/STM32F7xx_HAL_Driver/Src/stm32f7xx_ll_usb.c ****           USBx_DEVICE->DIEPEMPMSK |= 1 << ep->num;
 643:Drivers/STM32F7xx_HAL_Driver/Src/stm32f7xx_ll_usb.c ****         }
 644:Drivers/STM32F7xx_HAL_Driver/Src/stm32f7xx_ll_usb.c ****       }
 645:Drivers/STM32F7xx_HAL_Driver/Src/stm32f7xx_ll_usb.c ****     }
 646:Drivers/STM32F7xx_HAL_Driver/Src/stm32f7xx_ll_usb.c **** 
 647:Drivers/STM32F7xx_HAL_Driver/Src/stm32f7xx_ll_usb.c ****     if (ep->type == EP_TYPE_ISOC)
 648:Drivers/STM32F7xx_HAL_Driver/Src/stm32f7xx_ll_usb.c ****     {
 649:Drivers/STM32F7xx_HAL_Driver/Src/stm32f7xx_ll_usb.c ****       if ((USBx_DEVICE->DSTS & ( 1 << 8 )) == 0)
 650:Drivers/STM32F7xx_HAL_Driver/Src/stm32f7xx_ll_usb.c ****       {
 651:Drivers/STM32F7xx_HAL_Driver/Src/stm32f7xx_ll_usb.c ****         USBx_INEP(ep->num)->DIEPCTL |= USB_OTG_DIEPCTL_SODDFRM;
 652:Drivers/STM32F7xx_HAL_Driver/Src/stm32f7xx_ll_usb.c ****       }
 653:Drivers/STM32F7xx_HAL_Driver/Src/stm32f7xx_ll_usb.c ****       else
 654:Drivers/STM32F7xx_HAL_Driver/Src/stm32f7xx_ll_usb.c ****       {
 655:Drivers/STM32F7xx_HAL_Driver/Src/stm32f7xx_ll_usb.c ****         USBx_INEP(ep->num)->DIEPCTL |= USB_OTG_DIEPCTL_SD0PID_SEVNFRM;
 656:Drivers/STM32F7xx_HAL_Driver/Src/stm32f7xx_ll_usb.c ****       }
 657:Drivers/STM32F7xx_HAL_Driver/Src/stm32f7xx_ll_usb.c ****     }
 658:Drivers/STM32F7xx_HAL_Driver/Src/stm32f7xx_ll_usb.c **** 
 659:Drivers/STM32F7xx_HAL_Driver/Src/stm32f7xx_ll_usb.c ****     /* EP enable, IN data in FIFO */
ARM GAS  C:\Users\Student\AppData\Local\Temp\ccty2SRd.s 			page 13


 660:Drivers/STM32F7xx_HAL_Driver/Src/stm32f7xx_ll_usb.c ****     USBx_INEP(ep->num)->DIEPCTL |= (USB_OTG_DIEPCTL_CNAK | USB_OTG_DIEPCTL_EPENA);
 661:Drivers/STM32F7xx_HAL_Driver/Src/stm32f7xx_ll_usb.c **** 
 662:Drivers/STM32F7xx_HAL_Driver/Src/stm32f7xx_ll_usb.c ****     if (ep->type == EP_TYPE_ISOC)
 663:Drivers/STM32F7xx_HAL_Driver/Src/stm32f7xx_ll_usb.c ****     {
 664:Drivers/STM32F7xx_HAL_Driver/Src/stm32f7xx_ll_usb.c ****       USB_WritePacket(USBx, ep->xfer_buff, ep->num, ep->xfer_len, dma);
 665:Drivers/STM32F7xx_HAL_Driver/Src/stm32f7xx_ll_usb.c ****     }
 666:Drivers/STM32F7xx_HAL_Driver/Src/stm32f7xx_ll_usb.c ****   }
 667:Drivers/STM32F7xx_HAL_Driver/Src/stm32f7xx_ll_usb.c ****   else /* OUT endpoint */
 668:Drivers/STM32F7xx_HAL_Driver/Src/stm32f7xx_ll_usb.c ****   {
 669:Drivers/STM32F7xx_HAL_Driver/Src/stm32f7xx_ll_usb.c ****     /* Program the transfer size and packet count as follows:
 670:Drivers/STM32F7xx_HAL_Driver/Src/stm32f7xx_ll_usb.c ****     * pktcnt = N
 671:Drivers/STM32F7xx_HAL_Driver/Src/stm32f7xx_ll_usb.c ****     * xfersize = N * maxpacket
 672:Drivers/STM32F7xx_HAL_Driver/Src/stm32f7xx_ll_usb.c ****     */
 673:Drivers/STM32F7xx_HAL_Driver/Src/stm32f7xx_ll_usb.c ****     USBx_OUTEP(ep->num)->DOEPTSIZ &= ~(USB_OTG_DOEPTSIZ_XFRSIZ);
 674:Drivers/STM32F7xx_HAL_Driver/Src/stm32f7xx_ll_usb.c ****     USBx_OUTEP(ep->num)->DOEPTSIZ &= ~(USB_OTG_DOEPTSIZ_PKTCNT);
 675:Drivers/STM32F7xx_HAL_Driver/Src/stm32f7xx_ll_usb.c **** 
 676:Drivers/STM32F7xx_HAL_Driver/Src/stm32f7xx_ll_usb.c ****     if (ep->xfer_len == 0)
 677:Drivers/STM32F7xx_HAL_Driver/Src/stm32f7xx_ll_usb.c ****     {
 678:Drivers/STM32F7xx_HAL_Driver/Src/stm32f7xx_ll_usb.c ****       USBx_OUTEP(ep->num)->DOEPTSIZ |= (USB_OTG_DOEPTSIZ_XFRSIZ & ep->maxpacket);
 679:Drivers/STM32F7xx_HAL_Driver/Src/stm32f7xx_ll_usb.c ****       USBx_OUTEP(ep->num)->DOEPTSIZ |= (USB_OTG_DOEPTSIZ_PKTCNT & (1 << 19)) ;
 680:Drivers/STM32F7xx_HAL_Driver/Src/stm32f7xx_ll_usb.c ****     }
 681:Drivers/STM32F7xx_HAL_Driver/Src/stm32f7xx_ll_usb.c ****     else
 682:Drivers/STM32F7xx_HAL_Driver/Src/stm32f7xx_ll_usb.c ****     {
 683:Drivers/STM32F7xx_HAL_Driver/Src/stm32f7xx_ll_usb.c ****       pktcnt = (ep->xfer_len + ep->maxpacket -1)/ ep->maxpacket;
 684:Drivers/STM32F7xx_HAL_Driver/Src/stm32f7xx_ll_usb.c ****       USBx_OUTEP(ep->num)->DOEPTSIZ |= (USB_OTG_DOEPTSIZ_PKTCNT & (pktcnt << 19));
 685:Drivers/STM32F7xx_HAL_Driver/Src/stm32f7xx_ll_usb.c ****       USBx_OUTEP(ep->num)->DOEPTSIZ |= (USB_OTG_DOEPTSIZ_XFRSIZ & (ep->maxpacket * pktcnt));
 686:Drivers/STM32F7xx_HAL_Driver/Src/stm32f7xx_ll_usb.c ****     }
 687:Drivers/STM32F7xx_HAL_Driver/Src/stm32f7xx_ll_usb.c **** 
 688:Drivers/STM32F7xx_HAL_Driver/Src/stm32f7xx_ll_usb.c ****     if (dma == 1)
 689:Drivers/STM32F7xx_HAL_Driver/Src/stm32f7xx_ll_usb.c ****     {
 690:Drivers/STM32F7xx_HAL_Driver/Src/stm32f7xx_ll_usb.c ****       USBx_OUTEP(ep->num)->DOEPDMA = (uint32_t)ep->xfer_buff;
 691:Drivers/STM32F7xx_HAL_Driver/Src/stm32f7xx_ll_usb.c ****     }
 692:Drivers/STM32F7xx_HAL_Driver/Src/stm32f7xx_ll_usb.c **** 
 693:Drivers/STM32F7xx_HAL_Driver/Src/stm32f7xx_ll_usb.c ****     if (ep->type == EP_TYPE_ISOC)
 694:Drivers/STM32F7xx_HAL_Driver/Src/stm32f7xx_ll_usb.c ****     {
 695:Drivers/STM32F7xx_HAL_Driver/Src/stm32f7xx_ll_usb.c ****       if ((USBx_DEVICE->DSTS & ( 1 << 8 )) == 0)
 696:Drivers/STM32F7xx_HAL_Driver/Src/stm32f7xx_ll_usb.c ****       {
 697:Drivers/STM32F7xx_HAL_Driver/Src/stm32f7xx_ll_usb.c ****         USBx_OUTEP(ep->num)->DOEPCTL |= USB_OTG_DOEPCTL_SODDFRM;
 698:Drivers/STM32F7xx_HAL_Driver/Src/stm32f7xx_ll_usb.c ****       }
 699:Drivers/STM32F7xx_HAL_Driver/Src/stm32f7xx_ll_usb.c ****       else
 700:Drivers/STM32F7xx_HAL_Driver/Src/stm32f7xx_ll_usb.c ****       {
 701:Drivers/STM32F7xx_HAL_Driver/Src/stm32f7xx_ll_usb.c ****         USBx_OUTEP(ep->num)->DOEPCTL |= USB_OTG_DOEPCTL_SD0PID_SEVNFRM;
 702:Drivers/STM32F7xx_HAL_Driver/Src/stm32f7xx_ll_usb.c ****       }
 703:Drivers/STM32F7xx_HAL_Driver/Src/stm32f7xx_ll_usb.c ****     }
 704:Drivers/STM32F7xx_HAL_Driver/Src/stm32f7xx_ll_usb.c ****     /* EP enable */
 705:Drivers/STM32F7xx_HAL_Driver/Src/stm32f7xx_ll_usb.c ****     USBx_OUTEP(ep->num)->DOEPCTL |= (USB_OTG_DOEPCTL_CNAK | USB_OTG_DOEPCTL_EPENA);
 706:Drivers/STM32F7xx_HAL_Driver/Src/stm32f7xx_ll_usb.c ****   }
 707:Drivers/STM32F7xx_HAL_Driver/Src/stm32f7xx_ll_usb.c ****   return HAL_OK;
 708:Drivers/STM32F7xx_HAL_Driver/Src/stm32f7xx_ll_usb.c **** }
 709:Drivers/STM32F7xx_HAL_Driver/Src/stm32f7xx_ll_usb.c **** 
 710:Drivers/STM32F7xx_HAL_Driver/Src/stm32f7xx_ll_usb.c **** /**
 711:Drivers/STM32F7xx_HAL_Driver/Src/stm32f7xx_ll_usb.c ****   * @brief  USB_EP0StartXfer : setup and starts a transfer over the EP  0
 712:Drivers/STM32F7xx_HAL_Driver/Src/stm32f7xx_ll_usb.c ****   * @param  USBx : Selected device
 713:Drivers/STM32F7xx_HAL_Driver/Src/stm32f7xx_ll_usb.c ****   * @param  ep: pointer to endpoint structure
 714:Drivers/STM32F7xx_HAL_Driver/Src/stm32f7xx_ll_usb.c ****   * @param  dma: USB dma enabled or disabled
 715:Drivers/STM32F7xx_HAL_Driver/Src/stm32f7xx_ll_usb.c ****   *          This parameter can be one of these values:
 716:Drivers/STM32F7xx_HAL_Driver/Src/stm32f7xx_ll_usb.c ****   *           0 : DMA feature not used
ARM GAS  C:\Users\Student\AppData\Local\Temp\ccty2SRd.s 			page 14


 717:Drivers/STM32F7xx_HAL_Driver/Src/stm32f7xx_ll_usb.c ****   *           1 : DMA feature used
 718:Drivers/STM32F7xx_HAL_Driver/Src/stm32f7xx_ll_usb.c ****   * @retval HAL status
 719:Drivers/STM32F7xx_HAL_Driver/Src/stm32f7xx_ll_usb.c ****   */
 720:Drivers/STM32F7xx_HAL_Driver/Src/stm32f7xx_ll_usb.c **** HAL_StatusTypeDef USB_EP0StartXfer(USB_OTG_GlobalTypeDef *USBx , USB_OTG_EPTypeDef *ep, uint8_t dma
 721:Drivers/STM32F7xx_HAL_Driver/Src/stm32f7xx_ll_usb.c **** {
 722:Drivers/STM32F7xx_HAL_Driver/Src/stm32f7xx_ll_usb.c ****   /* IN endpoint */
 723:Drivers/STM32F7xx_HAL_Driver/Src/stm32f7xx_ll_usb.c ****   if (ep->is_in == 1)
 724:Drivers/STM32F7xx_HAL_Driver/Src/stm32f7xx_ll_usb.c ****   {
 725:Drivers/STM32F7xx_HAL_Driver/Src/stm32f7xx_ll_usb.c ****     /* Zero Length Packet? */
 726:Drivers/STM32F7xx_HAL_Driver/Src/stm32f7xx_ll_usb.c ****     if (ep->xfer_len == 0)
 727:Drivers/STM32F7xx_HAL_Driver/Src/stm32f7xx_ll_usb.c ****     {
 728:Drivers/STM32F7xx_HAL_Driver/Src/stm32f7xx_ll_usb.c ****       USBx_INEP(ep->num)->DIEPTSIZ &= ~(USB_OTG_DIEPTSIZ_PKTCNT);
 729:Drivers/STM32F7xx_HAL_Driver/Src/stm32f7xx_ll_usb.c ****       USBx_INEP(ep->num)->DIEPTSIZ |= (USB_OTG_DIEPTSIZ_PKTCNT & (1 << 19)) ;
 730:Drivers/STM32F7xx_HAL_Driver/Src/stm32f7xx_ll_usb.c ****       USBx_INEP(ep->num)->DIEPTSIZ &= ~(USB_OTG_DIEPTSIZ_XFRSIZ);
 731:Drivers/STM32F7xx_HAL_Driver/Src/stm32f7xx_ll_usb.c ****     }
 732:Drivers/STM32F7xx_HAL_Driver/Src/stm32f7xx_ll_usb.c ****     else
 733:Drivers/STM32F7xx_HAL_Driver/Src/stm32f7xx_ll_usb.c ****     {
 734:Drivers/STM32F7xx_HAL_Driver/Src/stm32f7xx_ll_usb.c ****       /* Program the transfer size and packet count
 735:Drivers/STM32F7xx_HAL_Driver/Src/stm32f7xx_ll_usb.c ****       * as follows: xfersize = N * maxpacket +
 736:Drivers/STM32F7xx_HAL_Driver/Src/stm32f7xx_ll_usb.c ****       * short_packet pktcnt = N + (short_packet
 737:Drivers/STM32F7xx_HAL_Driver/Src/stm32f7xx_ll_usb.c ****       * exist ? 1 : 0)
 738:Drivers/STM32F7xx_HAL_Driver/Src/stm32f7xx_ll_usb.c ****       */
 739:Drivers/STM32F7xx_HAL_Driver/Src/stm32f7xx_ll_usb.c ****       USBx_INEP(ep->num)->DIEPTSIZ &= ~(USB_OTG_DIEPTSIZ_XFRSIZ);
 740:Drivers/STM32F7xx_HAL_Driver/Src/stm32f7xx_ll_usb.c ****       USBx_INEP(ep->num)->DIEPTSIZ &= ~(USB_OTG_DIEPTSIZ_PKTCNT);
 741:Drivers/STM32F7xx_HAL_Driver/Src/stm32f7xx_ll_usb.c **** 
 742:Drivers/STM32F7xx_HAL_Driver/Src/stm32f7xx_ll_usb.c ****       if(ep->xfer_len > ep->maxpacket)
 743:Drivers/STM32F7xx_HAL_Driver/Src/stm32f7xx_ll_usb.c ****       {
 744:Drivers/STM32F7xx_HAL_Driver/Src/stm32f7xx_ll_usb.c ****         ep->xfer_len = ep->maxpacket;
 745:Drivers/STM32F7xx_HAL_Driver/Src/stm32f7xx_ll_usb.c ****       }
 746:Drivers/STM32F7xx_HAL_Driver/Src/stm32f7xx_ll_usb.c ****       USBx_INEP(ep->num)->DIEPTSIZ |= (USB_OTG_DIEPTSIZ_PKTCNT & (1 << 19)) ;
 747:Drivers/STM32F7xx_HAL_Driver/Src/stm32f7xx_ll_usb.c ****       USBx_INEP(ep->num)->DIEPTSIZ |= (USB_OTG_DIEPTSIZ_XFRSIZ & ep->xfer_len);
 748:Drivers/STM32F7xx_HAL_Driver/Src/stm32f7xx_ll_usb.c **** 
 749:Drivers/STM32F7xx_HAL_Driver/Src/stm32f7xx_ll_usb.c ****     }
 750:Drivers/STM32F7xx_HAL_Driver/Src/stm32f7xx_ll_usb.c **** 
 751:Drivers/STM32F7xx_HAL_Driver/Src/stm32f7xx_ll_usb.c ****     if (dma == 1)
 752:Drivers/STM32F7xx_HAL_Driver/Src/stm32f7xx_ll_usb.c ****     {
 753:Drivers/STM32F7xx_HAL_Driver/Src/stm32f7xx_ll_usb.c ****       USBx_INEP(ep->num)->DIEPDMA = (uint32_t)(ep->dma_addr);
 754:Drivers/STM32F7xx_HAL_Driver/Src/stm32f7xx_ll_usb.c ****     }
 755:Drivers/STM32F7xx_HAL_Driver/Src/stm32f7xx_ll_usb.c ****     else
 756:Drivers/STM32F7xx_HAL_Driver/Src/stm32f7xx_ll_usb.c ****     {
 757:Drivers/STM32F7xx_HAL_Driver/Src/stm32f7xx_ll_usb.c ****       /* Enable the Tx FIFO Empty Interrupt for this EP */
 758:Drivers/STM32F7xx_HAL_Driver/Src/stm32f7xx_ll_usb.c ****       if (ep->xfer_len > 0U)
 759:Drivers/STM32F7xx_HAL_Driver/Src/stm32f7xx_ll_usb.c ****       {
 760:Drivers/STM32F7xx_HAL_Driver/Src/stm32f7xx_ll_usb.c ****         USBx_DEVICE->DIEPEMPMSK |= 1U << (ep->num);
 761:Drivers/STM32F7xx_HAL_Driver/Src/stm32f7xx_ll_usb.c ****       }
 762:Drivers/STM32F7xx_HAL_Driver/Src/stm32f7xx_ll_usb.c ****     }
 763:Drivers/STM32F7xx_HAL_Driver/Src/stm32f7xx_ll_usb.c **** 
 764:Drivers/STM32F7xx_HAL_Driver/Src/stm32f7xx_ll_usb.c ****     /* EP enable, IN data in FIFO */
 765:Drivers/STM32F7xx_HAL_Driver/Src/stm32f7xx_ll_usb.c ****     USBx_INEP(ep->num)->DIEPCTL |= (USB_OTG_DIEPCTL_CNAK | USB_OTG_DIEPCTL_EPENA);
 766:Drivers/STM32F7xx_HAL_Driver/Src/stm32f7xx_ll_usb.c ****   }
 767:Drivers/STM32F7xx_HAL_Driver/Src/stm32f7xx_ll_usb.c ****   else /* OUT endpoint */
 768:Drivers/STM32F7xx_HAL_Driver/Src/stm32f7xx_ll_usb.c ****   {
 769:Drivers/STM32F7xx_HAL_Driver/Src/stm32f7xx_ll_usb.c ****     /* Program the transfer size and packet count as follows:
 770:Drivers/STM32F7xx_HAL_Driver/Src/stm32f7xx_ll_usb.c ****     * pktcnt = N
 771:Drivers/STM32F7xx_HAL_Driver/Src/stm32f7xx_ll_usb.c ****     * xfersize = N * maxpacket
 772:Drivers/STM32F7xx_HAL_Driver/Src/stm32f7xx_ll_usb.c ****     */
 773:Drivers/STM32F7xx_HAL_Driver/Src/stm32f7xx_ll_usb.c ****     USBx_OUTEP(ep->num)->DOEPTSIZ &= ~(USB_OTG_DOEPTSIZ_XFRSIZ);
ARM GAS  C:\Users\Student\AppData\Local\Temp\ccty2SRd.s 			page 15


 774:Drivers/STM32F7xx_HAL_Driver/Src/stm32f7xx_ll_usb.c ****     USBx_OUTEP(ep->num)->DOEPTSIZ &= ~(USB_OTG_DOEPTSIZ_PKTCNT);
 775:Drivers/STM32F7xx_HAL_Driver/Src/stm32f7xx_ll_usb.c **** 
 776:Drivers/STM32F7xx_HAL_Driver/Src/stm32f7xx_ll_usb.c ****     if (ep->xfer_len > 0)
 777:Drivers/STM32F7xx_HAL_Driver/Src/stm32f7xx_ll_usb.c ****     {
 778:Drivers/STM32F7xx_HAL_Driver/Src/stm32f7xx_ll_usb.c ****       ep->xfer_len = ep->maxpacket;
 779:Drivers/STM32F7xx_HAL_Driver/Src/stm32f7xx_ll_usb.c ****     }
 780:Drivers/STM32F7xx_HAL_Driver/Src/stm32f7xx_ll_usb.c **** 
 781:Drivers/STM32F7xx_HAL_Driver/Src/stm32f7xx_ll_usb.c ****     USBx_OUTEP(ep->num)->DOEPTSIZ |= (USB_OTG_DOEPTSIZ_PKTCNT & (1 << 19));
 782:Drivers/STM32F7xx_HAL_Driver/Src/stm32f7xx_ll_usb.c ****     USBx_OUTEP(ep->num)->DOEPTSIZ |= (USB_OTG_DOEPTSIZ_XFRSIZ & (ep->maxpacket));
 783:Drivers/STM32F7xx_HAL_Driver/Src/stm32f7xx_ll_usb.c **** 
 784:Drivers/STM32F7xx_HAL_Driver/Src/stm32f7xx_ll_usb.c **** 
 785:Drivers/STM32F7xx_HAL_Driver/Src/stm32f7xx_ll_usb.c ****     if (dma == 1)
 786:Drivers/STM32F7xx_HAL_Driver/Src/stm32f7xx_ll_usb.c ****     {
 787:Drivers/STM32F7xx_HAL_Driver/Src/stm32f7xx_ll_usb.c ****       USBx_OUTEP(ep->num)->DOEPDMA = (uint32_t)(ep->xfer_buff);
 788:Drivers/STM32F7xx_HAL_Driver/Src/stm32f7xx_ll_usb.c ****     }
 789:Drivers/STM32F7xx_HAL_Driver/Src/stm32f7xx_ll_usb.c **** 
 790:Drivers/STM32F7xx_HAL_Driver/Src/stm32f7xx_ll_usb.c ****     /* EP enable */
 791:Drivers/STM32F7xx_HAL_Driver/Src/stm32f7xx_ll_usb.c ****     USBx_OUTEP(ep->num)->DOEPCTL |= (USB_OTG_DOEPCTL_CNAK | USB_OTG_DOEPCTL_EPENA);
 792:Drivers/STM32F7xx_HAL_Driver/Src/stm32f7xx_ll_usb.c ****   }
 793:Drivers/STM32F7xx_HAL_Driver/Src/stm32f7xx_ll_usb.c ****   return HAL_OK;
 794:Drivers/STM32F7xx_HAL_Driver/Src/stm32f7xx_ll_usb.c **** }
 795:Drivers/STM32F7xx_HAL_Driver/Src/stm32f7xx_ll_usb.c **** 
 796:Drivers/STM32F7xx_HAL_Driver/Src/stm32f7xx_ll_usb.c **** /**
 797:Drivers/STM32F7xx_HAL_Driver/Src/stm32f7xx_ll_usb.c ****   * @brief  USB_WritePacket : Writes a packet into the Tx FIFO associated
 798:Drivers/STM32F7xx_HAL_Driver/Src/stm32f7xx_ll_usb.c ****   *         with the EP/channel
 799:Drivers/STM32F7xx_HAL_Driver/Src/stm32f7xx_ll_usb.c ****   * @param  USBx : Selected device
 800:Drivers/STM32F7xx_HAL_Driver/Src/stm32f7xx_ll_usb.c ****   * @param  src :  pointer to source buffer
 801:Drivers/STM32F7xx_HAL_Driver/Src/stm32f7xx_ll_usb.c ****   * @param  ch_ep_num : endpoint or host channel number
 802:Drivers/STM32F7xx_HAL_Driver/Src/stm32f7xx_ll_usb.c ****   * @param  len : Number of bytes to write
 803:Drivers/STM32F7xx_HAL_Driver/Src/stm32f7xx_ll_usb.c ****   * @param  dma: USB dma enabled or disabled
 804:Drivers/STM32F7xx_HAL_Driver/Src/stm32f7xx_ll_usb.c ****   *          This parameter can be one of these values:
 805:Drivers/STM32F7xx_HAL_Driver/Src/stm32f7xx_ll_usb.c ****   *           0 : DMA feature not used
 806:Drivers/STM32F7xx_HAL_Driver/Src/stm32f7xx_ll_usb.c ****   *           1 : DMA feature used
 807:Drivers/STM32F7xx_HAL_Driver/Src/stm32f7xx_ll_usb.c ****   * @retval HAL status
 808:Drivers/STM32F7xx_HAL_Driver/Src/stm32f7xx_ll_usb.c ****   */
 809:Drivers/STM32F7xx_HAL_Driver/Src/stm32f7xx_ll_usb.c **** HAL_StatusTypeDef USB_WritePacket(USB_OTG_GlobalTypeDef *USBx, uint8_t *src, uint8_t ch_ep_num, uin
 810:Drivers/STM32F7xx_HAL_Driver/Src/stm32f7xx_ll_usb.c **** {
 811:Drivers/STM32F7xx_HAL_Driver/Src/stm32f7xx_ll_usb.c ****   uint32_t count32b= 0 , i= 0;
 812:Drivers/STM32F7xx_HAL_Driver/Src/stm32f7xx_ll_usb.c **** 
 813:Drivers/STM32F7xx_HAL_Driver/Src/stm32f7xx_ll_usb.c ****   if (dma == 0)
 814:Drivers/STM32F7xx_HAL_Driver/Src/stm32f7xx_ll_usb.c ****   {
 815:Drivers/STM32F7xx_HAL_Driver/Src/stm32f7xx_ll_usb.c ****     count32b =  (len + 3) / 4;
 816:Drivers/STM32F7xx_HAL_Driver/Src/stm32f7xx_ll_usb.c ****     for (i = 0; i < count32b; i++, src += 4)
 817:Drivers/STM32F7xx_HAL_Driver/Src/stm32f7xx_ll_usb.c ****     {
 818:Drivers/STM32F7xx_HAL_Driver/Src/stm32f7xx_ll_usb.c ****       USBx_DFIFO(ch_ep_num) = *((__packed uint32_t *)src);
 819:Drivers/STM32F7xx_HAL_Driver/Src/stm32f7xx_ll_usb.c ****     }
 820:Drivers/STM32F7xx_HAL_Driver/Src/stm32f7xx_ll_usb.c ****   }
 821:Drivers/STM32F7xx_HAL_Driver/Src/stm32f7xx_ll_usb.c ****   return HAL_OK;
 822:Drivers/STM32F7xx_HAL_Driver/Src/stm32f7xx_ll_usb.c **** }
 823:Drivers/STM32F7xx_HAL_Driver/Src/stm32f7xx_ll_usb.c **** 
 824:Drivers/STM32F7xx_HAL_Driver/Src/stm32f7xx_ll_usb.c **** /**
 825:Drivers/STM32F7xx_HAL_Driver/Src/stm32f7xx_ll_usb.c ****   * @brief  USB_ReadPacket : read a packet from the Tx FIFO associated
 826:Drivers/STM32F7xx_HAL_Driver/Src/stm32f7xx_ll_usb.c ****   *         with the EP/channel
 827:Drivers/STM32F7xx_HAL_Driver/Src/stm32f7xx_ll_usb.c ****   * @param  USBx : Selected device
 828:Drivers/STM32F7xx_HAL_Driver/Src/stm32f7xx_ll_usb.c ****   * @param  src : source pointer
 829:Drivers/STM32F7xx_HAL_Driver/Src/stm32f7xx_ll_usb.c ****   * @param  ch_ep_num : endpoint or host channel number
 830:Drivers/STM32F7xx_HAL_Driver/Src/stm32f7xx_ll_usb.c ****   * @param  len : Number of bytes to read
ARM GAS  C:\Users\Student\AppData\Local\Temp\ccty2SRd.s 			page 16


 831:Drivers/STM32F7xx_HAL_Driver/Src/stm32f7xx_ll_usb.c ****   * @param  dma: USB dma enabled or disabled
 832:Drivers/STM32F7xx_HAL_Driver/Src/stm32f7xx_ll_usb.c ****   *          This parameter can be one of these values:
 833:Drivers/STM32F7xx_HAL_Driver/Src/stm32f7xx_ll_usb.c ****   *           0 : DMA feature not used
 834:Drivers/STM32F7xx_HAL_Driver/Src/stm32f7xx_ll_usb.c ****   *           1 : DMA feature used
 835:Drivers/STM32F7xx_HAL_Driver/Src/stm32f7xx_ll_usb.c ****   * @retval pointer to destination buffer
 836:Drivers/STM32F7xx_HAL_Driver/Src/stm32f7xx_ll_usb.c ****   */
 837:Drivers/STM32F7xx_HAL_Driver/Src/stm32f7xx_ll_usb.c **** void *USB_ReadPacket(USB_OTG_GlobalTypeDef *USBx, uint8_t *dest, uint16_t len)
 838:Drivers/STM32F7xx_HAL_Driver/Src/stm32f7xx_ll_usb.c **** {
 839:Drivers/STM32F7xx_HAL_Driver/Src/stm32f7xx_ll_usb.c ****   uint32_t i=0;
 840:Drivers/STM32F7xx_HAL_Driver/Src/stm32f7xx_ll_usb.c ****   uint32_t count32b = (len + 3) / 4;
 841:Drivers/STM32F7xx_HAL_Driver/Src/stm32f7xx_ll_usb.c **** 
 842:Drivers/STM32F7xx_HAL_Driver/Src/stm32f7xx_ll_usb.c ****   for ( i = 0; i < count32b; i++, dest += 4 )
 843:Drivers/STM32F7xx_HAL_Driver/Src/stm32f7xx_ll_usb.c ****   {
 844:Drivers/STM32F7xx_HAL_Driver/Src/stm32f7xx_ll_usb.c ****     *(__packed uint32_t *)dest = USBx_DFIFO(0);
 845:Drivers/STM32F7xx_HAL_Driver/Src/stm32f7xx_ll_usb.c **** 
 846:Drivers/STM32F7xx_HAL_Driver/Src/stm32f7xx_ll_usb.c ****   }
 847:Drivers/STM32F7xx_HAL_Driver/Src/stm32f7xx_ll_usb.c ****   return ((void *)dest);
 848:Drivers/STM32F7xx_HAL_Driver/Src/stm32f7xx_ll_usb.c **** }
 849:Drivers/STM32F7xx_HAL_Driver/Src/stm32f7xx_ll_usb.c **** 
 850:Drivers/STM32F7xx_HAL_Driver/Src/stm32f7xx_ll_usb.c **** /**
 851:Drivers/STM32F7xx_HAL_Driver/Src/stm32f7xx_ll_usb.c ****   * @brief  USB_EPSetStall : set a stall condition over an EP
 852:Drivers/STM32F7xx_HAL_Driver/Src/stm32f7xx_ll_usb.c ****   * @param  USBx : Selected device
 853:Drivers/STM32F7xx_HAL_Driver/Src/stm32f7xx_ll_usb.c ****   * @param  ep: pointer to endpoint structure
 854:Drivers/STM32F7xx_HAL_Driver/Src/stm32f7xx_ll_usb.c ****   * @retval HAL status
 855:Drivers/STM32F7xx_HAL_Driver/Src/stm32f7xx_ll_usb.c ****   */
 856:Drivers/STM32F7xx_HAL_Driver/Src/stm32f7xx_ll_usb.c **** HAL_StatusTypeDef USB_EPSetStall(USB_OTG_GlobalTypeDef *USBx , USB_OTG_EPTypeDef *ep)
 857:Drivers/STM32F7xx_HAL_Driver/Src/stm32f7xx_ll_usb.c **** {
 858:Drivers/STM32F7xx_HAL_Driver/Src/stm32f7xx_ll_usb.c ****   if (ep->is_in == 1)
 859:Drivers/STM32F7xx_HAL_Driver/Src/stm32f7xx_ll_usb.c ****   {
 860:Drivers/STM32F7xx_HAL_Driver/Src/stm32f7xx_ll_usb.c ****     if (((USBx_INEP(ep->num)->DIEPCTL) & USB_OTG_DIEPCTL_EPENA) == 0)
 861:Drivers/STM32F7xx_HAL_Driver/Src/stm32f7xx_ll_usb.c ****     {
 862:Drivers/STM32F7xx_HAL_Driver/Src/stm32f7xx_ll_usb.c ****       USBx_INEP(ep->num)->DIEPCTL &= ~(USB_OTG_DIEPCTL_EPDIS);
 863:Drivers/STM32F7xx_HAL_Driver/Src/stm32f7xx_ll_usb.c ****     }
 864:Drivers/STM32F7xx_HAL_Driver/Src/stm32f7xx_ll_usb.c ****     USBx_INEP(ep->num)->DIEPCTL |= USB_OTG_DIEPCTL_STALL;
 865:Drivers/STM32F7xx_HAL_Driver/Src/stm32f7xx_ll_usb.c ****   }
 866:Drivers/STM32F7xx_HAL_Driver/Src/stm32f7xx_ll_usb.c ****   else
 867:Drivers/STM32F7xx_HAL_Driver/Src/stm32f7xx_ll_usb.c ****   {
 868:Drivers/STM32F7xx_HAL_Driver/Src/stm32f7xx_ll_usb.c ****     if (((USBx_OUTEP(ep->num)->DOEPCTL) & USB_OTG_DOEPCTL_EPENA) == 0)
 869:Drivers/STM32F7xx_HAL_Driver/Src/stm32f7xx_ll_usb.c ****     {
 870:Drivers/STM32F7xx_HAL_Driver/Src/stm32f7xx_ll_usb.c ****       USBx_OUTEP(ep->num)->DOEPCTL &= ~(USB_OTG_DOEPCTL_EPDIS);
 871:Drivers/STM32F7xx_HAL_Driver/Src/stm32f7xx_ll_usb.c ****     }
 872:Drivers/STM32F7xx_HAL_Driver/Src/stm32f7xx_ll_usb.c ****     USBx_OUTEP(ep->num)->DOEPCTL |= USB_OTG_DOEPCTL_STALL;
 873:Drivers/STM32F7xx_HAL_Driver/Src/stm32f7xx_ll_usb.c ****   }
 874:Drivers/STM32F7xx_HAL_Driver/Src/stm32f7xx_ll_usb.c ****   return HAL_OK;
 875:Drivers/STM32F7xx_HAL_Driver/Src/stm32f7xx_ll_usb.c **** }
 876:Drivers/STM32F7xx_HAL_Driver/Src/stm32f7xx_ll_usb.c **** 
 877:Drivers/STM32F7xx_HAL_Driver/Src/stm32f7xx_ll_usb.c **** 
 878:Drivers/STM32F7xx_HAL_Driver/Src/stm32f7xx_ll_usb.c **** /**
 879:Drivers/STM32F7xx_HAL_Driver/Src/stm32f7xx_ll_usb.c ****   * @brief  USB_EPClearStall : Clear a stall condition over an EP
 880:Drivers/STM32F7xx_HAL_Driver/Src/stm32f7xx_ll_usb.c ****   * @param  USBx : Selected device
 881:Drivers/STM32F7xx_HAL_Driver/Src/stm32f7xx_ll_usb.c ****   * @param  ep: pointer to endpoint structure
 882:Drivers/STM32F7xx_HAL_Driver/Src/stm32f7xx_ll_usb.c ****   * @retval HAL status
 883:Drivers/STM32F7xx_HAL_Driver/Src/stm32f7xx_ll_usb.c ****   */
 884:Drivers/STM32F7xx_HAL_Driver/Src/stm32f7xx_ll_usb.c **** HAL_StatusTypeDef USB_EPClearStall(USB_OTG_GlobalTypeDef *USBx, USB_OTG_EPTypeDef *ep)
 885:Drivers/STM32F7xx_HAL_Driver/Src/stm32f7xx_ll_usb.c **** {
 886:Drivers/STM32F7xx_HAL_Driver/Src/stm32f7xx_ll_usb.c ****   if (ep->is_in == 1)
 887:Drivers/STM32F7xx_HAL_Driver/Src/stm32f7xx_ll_usb.c ****   {
ARM GAS  C:\Users\Student\AppData\Local\Temp\ccty2SRd.s 			page 17


 888:Drivers/STM32F7xx_HAL_Driver/Src/stm32f7xx_ll_usb.c ****     USBx_INEP(ep->num)->DIEPCTL &= ~USB_OTG_DIEPCTL_STALL;
 889:Drivers/STM32F7xx_HAL_Driver/Src/stm32f7xx_ll_usb.c ****     if (ep->type == EP_TYPE_INTR || ep->type == EP_TYPE_BULK)
 890:Drivers/STM32F7xx_HAL_Driver/Src/stm32f7xx_ll_usb.c ****     {
 891:Drivers/STM32F7xx_HAL_Driver/Src/stm32f7xx_ll_usb.c ****        USBx_INEP(ep->num)->DIEPCTL |= USB_OTG_DIEPCTL_SD0PID_SEVNFRM; /* DATA0 */
 892:Drivers/STM32F7xx_HAL_Driver/Src/stm32f7xx_ll_usb.c ****     }
 893:Drivers/STM32F7xx_HAL_Driver/Src/stm32f7xx_ll_usb.c ****   }
 894:Drivers/STM32F7xx_HAL_Driver/Src/stm32f7xx_ll_usb.c ****   else
 895:Drivers/STM32F7xx_HAL_Driver/Src/stm32f7xx_ll_usb.c ****   {
 896:Drivers/STM32F7xx_HAL_Driver/Src/stm32f7xx_ll_usb.c ****     USBx_OUTEP(ep->num)->DOEPCTL &= ~USB_OTG_DOEPCTL_STALL;
 897:Drivers/STM32F7xx_HAL_Driver/Src/stm32f7xx_ll_usb.c ****     if (ep->type == EP_TYPE_INTR || ep->type == EP_TYPE_BULK)
 898:Drivers/STM32F7xx_HAL_Driver/Src/stm32f7xx_ll_usb.c ****     {
 899:Drivers/STM32F7xx_HAL_Driver/Src/stm32f7xx_ll_usb.c ****       USBx_OUTEP(ep->num)->DOEPCTL |= USB_OTG_DOEPCTL_SD0PID_SEVNFRM; /* DATA0 */
 900:Drivers/STM32F7xx_HAL_Driver/Src/stm32f7xx_ll_usb.c ****     }
 901:Drivers/STM32F7xx_HAL_Driver/Src/stm32f7xx_ll_usb.c ****   }
 902:Drivers/STM32F7xx_HAL_Driver/Src/stm32f7xx_ll_usb.c ****   return HAL_OK;
 903:Drivers/STM32F7xx_HAL_Driver/Src/stm32f7xx_ll_usb.c **** }
 904:Drivers/STM32F7xx_HAL_Driver/Src/stm32f7xx_ll_usb.c **** 
 905:Drivers/STM32F7xx_HAL_Driver/Src/stm32f7xx_ll_usb.c **** /**
 906:Drivers/STM32F7xx_HAL_Driver/Src/stm32f7xx_ll_usb.c ****   * @brief  USB_StopDevice : Stop the usb device mode
 907:Drivers/STM32F7xx_HAL_Driver/Src/stm32f7xx_ll_usb.c ****   * @param  USBx : Selected device
 908:Drivers/STM32F7xx_HAL_Driver/Src/stm32f7xx_ll_usb.c ****   * @retval HAL status
 909:Drivers/STM32F7xx_HAL_Driver/Src/stm32f7xx_ll_usb.c ****   */
 910:Drivers/STM32F7xx_HAL_Driver/Src/stm32f7xx_ll_usb.c **** HAL_StatusTypeDef USB_StopDevice(USB_OTG_GlobalTypeDef *USBx)
 911:Drivers/STM32F7xx_HAL_Driver/Src/stm32f7xx_ll_usb.c **** {
 912:Drivers/STM32F7xx_HAL_Driver/Src/stm32f7xx_ll_usb.c ****   uint32_t i;
 913:Drivers/STM32F7xx_HAL_Driver/Src/stm32f7xx_ll_usb.c **** 
 914:Drivers/STM32F7xx_HAL_Driver/Src/stm32f7xx_ll_usb.c ****   /* Clear Pending interrupt */
 915:Drivers/STM32F7xx_HAL_Driver/Src/stm32f7xx_ll_usb.c ****   for (i = 0; i < 15 ; i++)
 916:Drivers/STM32F7xx_HAL_Driver/Src/stm32f7xx_ll_usb.c ****   {
 917:Drivers/STM32F7xx_HAL_Driver/Src/stm32f7xx_ll_usb.c ****     USBx_INEP(i)->DIEPINT  = 0xFF;
 918:Drivers/STM32F7xx_HAL_Driver/Src/stm32f7xx_ll_usb.c ****     USBx_OUTEP(i)->DOEPINT  = 0xFF;
 919:Drivers/STM32F7xx_HAL_Driver/Src/stm32f7xx_ll_usb.c ****   }
 920:Drivers/STM32F7xx_HAL_Driver/Src/stm32f7xx_ll_usb.c ****   USBx_DEVICE->DAINT = 0xFFFFFFFF;
 921:Drivers/STM32F7xx_HAL_Driver/Src/stm32f7xx_ll_usb.c **** 
 922:Drivers/STM32F7xx_HAL_Driver/Src/stm32f7xx_ll_usb.c ****   /* Clear interrupt masks */
 923:Drivers/STM32F7xx_HAL_Driver/Src/stm32f7xx_ll_usb.c ****   USBx_DEVICE->DIEPMSK  = 0;
 924:Drivers/STM32F7xx_HAL_Driver/Src/stm32f7xx_ll_usb.c ****   USBx_DEVICE->DOEPMSK  = 0;
 925:Drivers/STM32F7xx_HAL_Driver/Src/stm32f7xx_ll_usb.c ****   USBx_DEVICE->DAINTMSK = 0;
 926:Drivers/STM32F7xx_HAL_Driver/Src/stm32f7xx_ll_usb.c **** 
 927:Drivers/STM32F7xx_HAL_Driver/Src/stm32f7xx_ll_usb.c ****   /* Flush the FIFO */
 928:Drivers/STM32F7xx_HAL_Driver/Src/stm32f7xx_ll_usb.c ****   USB_FlushRxFifo(USBx);
 929:Drivers/STM32F7xx_HAL_Driver/Src/stm32f7xx_ll_usb.c ****   USB_FlushTxFifo(USBx ,  0x10 );
 930:Drivers/STM32F7xx_HAL_Driver/Src/stm32f7xx_ll_usb.c **** 
 931:Drivers/STM32F7xx_HAL_Driver/Src/stm32f7xx_ll_usb.c ****   return HAL_OK;
 932:Drivers/STM32F7xx_HAL_Driver/Src/stm32f7xx_ll_usb.c **** }
 933:Drivers/STM32F7xx_HAL_Driver/Src/stm32f7xx_ll_usb.c **** 
 934:Drivers/STM32F7xx_HAL_Driver/Src/stm32f7xx_ll_usb.c **** /**
 935:Drivers/STM32F7xx_HAL_Driver/Src/stm32f7xx_ll_usb.c ****   * @brief  USB_SetDevAddress : Stop the usb device mode
 936:Drivers/STM32F7xx_HAL_Driver/Src/stm32f7xx_ll_usb.c ****   * @param  USBx : Selected device
 937:Drivers/STM32F7xx_HAL_Driver/Src/stm32f7xx_ll_usb.c ****   * @param  address : new device address to be assigned
 938:Drivers/STM32F7xx_HAL_Driver/Src/stm32f7xx_ll_usb.c ****   *          This parameter can be a value from 0 to 255
 939:Drivers/STM32F7xx_HAL_Driver/Src/stm32f7xx_ll_usb.c ****   * @retval HAL status
 940:Drivers/STM32F7xx_HAL_Driver/Src/stm32f7xx_ll_usb.c ****   */
 941:Drivers/STM32F7xx_HAL_Driver/Src/stm32f7xx_ll_usb.c **** HAL_StatusTypeDef  USB_SetDevAddress (USB_OTG_GlobalTypeDef *USBx, uint8_t address)
 942:Drivers/STM32F7xx_HAL_Driver/Src/stm32f7xx_ll_usb.c **** {
 943:Drivers/STM32F7xx_HAL_Driver/Src/stm32f7xx_ll_usb.c ****   USBx_DEVICE->DCFG &= ~ (USB_OTG_DCFG_DAD);
 944:Drivers/STM32F7xx_HAL_Driver/Src/stm32f7xx_ll_usb.c ****   USBx_DEVICE->DCFG |= (address << 4) & USB_OTG_DCFG_DAD ;
ARM GAS  C:\Users\Student\AppData\Local\Temp\ccty2SRd.s 			page 18


 945:Drivers/STM32F7xx_HAL_Driver/Src/stm32f7xx_ll_usb.c **** 
 946:Drivers/STM32F7xx_HAL_Driver/Src/stm32f7xx_ll_usb.c ****   return HAL_OK;
 947:Drivers/STM32F7xx_HAL_Driver/Src/stm32f7xx_ll_usb.c **** }
 948:Drivers/STM32F7xx_HAL_Driver/Src/stm32f7xx_ll_usb.c **** 
 949:Drivers/STM32F7xx_HAL_Driver/Src/stm32f7xx_ll_usb.c **** /**
 950:Drivers/STM32F7xx_HAL_Driver/Src/stm32f7xx_ll_usb.c ****   * @brief  USB_DevConnect : Connect the USB device by enabling the pull-up/pull-down
 951:Drivers/STM32F7xx_HAL_Driver/Src/stm32f7xx_ll_usb.c ****   * @param  USBx : Selected device
 952:Drivers/STM32F7xx_HAL_Driver/Src/stm32f7xx_ll_usb.c ****   * @retval HAL status
 953:Drivers/STM32F7xx_HAL_Driver/Src/stm32f7xx_ll_usb.c ****   */
 954:Drivers/STM32F7xx_HAL_Driver/Src/stm32f7xx_ll_usb.c **** HAL_StatusTypeDef  USB_DevConnect (USB_OTG_GlobalTypeDef *USBx)
 955:Drivers/STM32F7xx_HAL_Driver/Src/stm32f7xx_ll_usb.c **** {
 956:Drivers/STM32F7xx_HAL_Driver/Src/stm32f7xx_ll_usb.c ****   USBx_DEVICE->DCTL &= ~USB_OTG_DCTL_SDIS ;
 957:Drivers/STM32F7xx_HAL_Driver/Src/stm32f7xx_ll_usb.c ****   HAL_Delay(3);
 958:Drivers/STM32F7xx_HAL_Driver/Src/stm32f7xx_ll_usb.c **** 
 959:Drivers/STM32F7xx_HAL_Driver/Src/stm32f7xx_ll_usb.c ****   return HAL_OK;
 960:Drivers/STM32F7xx_HAL_Driver/Src/stm32f7xx_ll_usb.c **** }
 961:Drivers/STM32F7xx_HAL_Driver/Src/stm32f7xx_ll_usb.c **** 
 962:Drivers/STM32F7xx_HAL_Driver/Src/stm32f7xx_ll_usb.c **** /**
 963:Drivers/STM32F7xx_HAL_Driver/Src/stm32f7xx_ll_usb.c ****   * @brief  USB_DevDisconnect : Disconnect the USB device by disabling the pull-up/pull-down
 964:Drivers/STM32F7xx_HAL_Driver/Src/stm32f7xx_ll_usb.c ****   * @param  USBx : Selected device
 965:Drivers/STM32F7xx_HAL_Driver/Src/stm32f7xx_ll_usb.c ****   * @retval HAL status
 966:Drivers/STM32F7xx_HAL_Driver/Src/stm32f7xx_ll_usb.c ****   */
 967:Drivers/STM32F7xx_HAL_Driver/Src/stm32f7xx_ll_usb.c **** HAL_StatusTypeDef  USB_DevDisconnect (USB_OTG_GlobalTypeDef *USBx)
 968:Drivers/STM32F7xx_HAL_Driver/Src/stm32f7xx_ll_usb.c **** {
 969:Drivers/STM32F7xx_HAL_Driver/Src/stm32f7xx_ll_usb.c ****   USBx_DEVICE->DCTL |= USB_OTG_DCTL_SDIS ;
 970:Drivers/STM32F7xx_HAL_Driver/Src/stm32f7xx_ll_usb.c ****   HAL_Delay(3);
 971:Drivers/STM32F7xx_HAL_Driver/Src/stm32f7xx_ll_usb.c **** 
 972:Drivers/STM32F7xx_HAL_Driver/Src/stm32f7xx_ll_usb.c ****   return HAL_OK;
 973:Drivers/STM32F7xx_HAL_Driver/Src/stm32f7xx_ll_usb.c **** }
 974:Drivers/STM32F7xx_HAL_Driver/Src/stm32f7xx_ll_usb.c **** 
 975:Drivers/STM32F7xx_HAL_Driver/Src/stm32f7xx_ll_usb.c **** /**
 976:Drivers/STM32F7xx_HAL_Driver/Src/stm32f7xx_ll_usb.c ****   * @brief  USB_ReadInterrupts: return the global USB interrupt status
 977:Drivers/STM32F7xx_HAL_Driver/Src/stm32f7xx_ll_usb.c ****   * @param  USBx : Selected device
 978:Drivers/STM32F7xx_HAL_Driver/Src/stm32f7xx_ll_usb.c ****   * @retval HAL status
 979:Drivers/STM32F7xx_HAL_Driver/Src/stm32f7xx_ll_usb.c ****   */
 980:Drivers/STM32F7xx_HAL_Driver/Src/stm32f7xx_ll_usb.c **** uint32_t  USB_ReadInterrupts (USB_OTG_GlobalTypeDef *USBx)
 981:Drivers/STM32F7xx_HAL_Driver/Src/stm32f7xx_ll_usb.c **** {
 982:Drivers/STM32F7xx_HAL_Driver/Src/stm32f7xx_ll_usb.c ****   uint32_t v = 0;
 983:Drivers/STM32F7xx_HAL_Driver/Src/stm32f7xx_ll_usb.c **** 
 984:Drivers/STM32F7xx_HAL_Driver/Src/stm32f7xx_ll_usb.c ****   v = USBx->GINTSTS;
 985:Drivers/STM32F7xx_HAL_Driver/Src/stm32f7xx_ll_usb.c ****   v &= USBx->GINTMSK;
 986:Drivers/STM32F7xx_HAL_Driver/Src/stm32f7xx_ll_usb.c ****   return v;
 987:Drivers/STM32F7xx_HAL_Driver/Src/stm32f7xx_ll_usb.c **** }
 988:Drivers/STM32F7xx_HAL_Driver/Src/stm32f7xx_ll_usb.c **** 
 989:Drivers/STM32F7xx_HAL_Driver/Src/stm32f7xx_ll_usb.c **** /**
 990:Drivers/STM32F7xx_HAL_Driver/Src/stm32f7xx_ll_usb.c ****   * @brief  USB_ReadDevAllOutEpInterrupt: return the USB device OUT endpoints interrupt status
 991:Drivers/STM32F7xx_HAL_Driver/Src/stm32f7xx_ll_usb.c ****   * @param  USBx : Selected device
 992:Drivers/STM32F7xx_HAL_Driver/Src/stm32f7xx_ll_usb.c ****   * @retval HAL status
 993:Drivers/STM32F7xx_HAL_Driver/Src/stm32f7xx_ll_usb.c ****   */
 994:Drivers/STM32F7xx_HAL_Driver/Src/stm32f7xx_ll_usb.c **** uint32_t USB_ReadDevAllOutEpInterrupt (USB_OTG_GlobalTypeDef *USBx)
 995:Drivers/STM32F7xx_HAL_Driver/Src/stm32f7xx_ll_usb.c **** {
 996:Drivers/STM32F7xx_HAL_Driver/Src/stm32f7xx_ll_usb.c ****   uint32_t v;
 997:Drivers/STM32F7xx_HAL_Driver/Src/stm32f7xx_ll_usb.c ****   v  = USBx_DEVICE->DAINT;
 998:Drivers/STM32F7xx_HAL_Driver/Src/stm32f7xx_ll_usb.c ****   v &= USBx_DEVICE->DAINTMSK;
 999:Drivers/STM32F7xx_HAL_Driver/Src/stm32f7xx_ll_usb.c ****   return ((v & 0xffff0000) >> 16);
1000:Drivers/STM32F7xx_HAL_Driver/Src/stm32f7xx_ll_usb.c **** }
1001:Drivers/STM32F7xx_HAL_Driver/Src/stm32f7xx_ll_usb.c **** 
ARM GAS  C:\Users\Student\AppData\Local\Temp\ccty2SRd.s 			page 19


1002:Drivers/STM32F7xx_HAL_Driver/Src/stm32f7xx_ll_usb.c **** /**
1003:Drivers/STM32F7xx_HAL_Driver/Src/stm32f7xx_ll_usb.c ****   * @brief  USB_ReadDevAllInEpInterrupt: return the USB device IN endpoints interrupt status
1004:Drivers/STM32F7xx_HAL_Driver/Src/stm32f7xx_ll_usb.c ****   * @param  USBx : Selected device
1005:Drivers/STM32F7xx_HAL_Driver/Src/stm32f7xx_ll_usb.c ****   * @retval HAL status
1006:Drivers/STM32F7xx_HAL_Driver/Src/stm32f7xx_ll_usb.c ****   */
1007:Drivers/STM32F7xx_HAL_Driver/Src/stm32f7xx_ll_usb.c **** uint32_t USB_ReadDevAllInEpInterrupt (USB_OTG_GlobalTypeDef *USBx)
1008:Drivers/STM32F7xx_HAL_Driver/Src/stm32f7xx_ll_usb.c **** {
1009:Drivers/STM32F7xx_HAL_Driver/Src/stm32f7xx_ll_usb.c ****   uint32_t v;
1010:Drivers/STM32F7xx_HAL_Driver/Src/stm32f7xx_ll_usb.c ****   v  = USBx_DEVICE->DAINT;
1011:Drivers/STM32F7xx_HAL_Driver/Src/stm32f7xx_ll_usb.c ****   v &= USBx_DEVICE->DAINTMSK;
1012:Drivers/STM32F7xx_HAL_Driver/Src/stm32f7xx_ll_usb.c ****   return ((v & 0xFFFF));
1013:Drivers/STM32F7xx_HAL_Driver/Src/stm32f7xx_ll_usb.c **** }
1014:Drivers/STM32F7xx_HAL_Driver/Src/stm32f7xx_ll_usb.c **** 
1015:Drivers/STM32F7xx_HAL_Driver/Src/stm32f7xx_ll_usb.c **** /**
1016:Drivers/STM32F7xx_HAL_Driver/Src/stm32f7xx_ll_usb.c ****   * @brief  Returns Device OUT EP Interrupt register
1017:Drivers/STM32F7xx_HAL_Driver/Src/stm32f7xx_ll_usb.c ****   * @param  USBx : Selected device
1018:Drivers/STM32F7xx_HAL_Driver/Src/stm32f7xx_ll_usb.c ****   * @param  epnum : endpoint number
1019:Drivers/STM32F7xx_HAL_Driver/Src/stm32f7xx_ll_usb.c ****   *          This parameter can be a value from 0 to 15
1020:Drivers/STM32F7xx_HAL_Driver/Src/stm32f7xx_ll_usb.c ****   * @retval Device OUT EP Interrupt register
1021:Drivers/STM32F7xx_HAL_Driver/Src/stm32f7xx_ll_usb.c ****   */
1022:Drivers/STM32F7xx_HAL_Driver/Src/stm32f7xx_ll_usb.c **** uint32_t USB_ReadDevOutEPInterrupt (USB_OTG_GlobalTypeDef *USBx , uint8_t epnum)
1023:Drivers/STM32F7xx_HAL_Driver/Src/stm32f7xx_ll_usb.c **** {
1024:Drivers/STM32F7xx_HAL_Driver/Src/stm32f7xx_ll_usb.c ****   uint32_t v;
1025:Drivers/STM32F7xx_HAL_Driver/Src/stm32f7xx_ll_usb.c ****   v  = USBx_OUTEP(epnum)->DOEPINT;
1026:Drivers/STM32F7xx_HAL_Driver/Src/stm32f7xx_ll_usb.c ****   v &= USBx_DEVICE->DOEPMSK;
1027:Drivers/STM32F7xx_HAL_Driver/Src/stm32f7xx_ll_usb.c ****   return v;
1028:Drivers/STM32F7xx_HAL_Driver/Src/stm32f7xx_ll_usb.c **** }
1029:Drivers/STM32F7xx_HAL_Driver/Src/stm32f7xx_ll_usb.c **** 
1030:Drivers/STM32F7xx_HAL_Driver/Src/stm32f7xx_ll_usb.c **** /**
1031:Drivers/STM32F7xx_HAL_Driver/Src/stm32f7xx_ll_usb.c ****   * @brief  Returns Device IN EP Interrupt register
1032:Drivers/STM32F7xx_HAL_Driver/Src/stm32f7xx_ll_usb.c ****   * @param  USBx : Selected device
1033:Drivers/STM32F7xx_HAL_Driver/Src/stm32f7xx_ll_usb.c ****   * @param  epnum : endpoint number
1034:Drivers/STM32F7xx_HAL_Driver/Src/stm32f7xx_ll_usb.c ****   *          This parameter can be a value from 0 to 15
1035:Drivers/STM32F7xx_HAL_Driver/Src/stm32f7xx_ll_usb.c ****   * @retval Device IN EP Interrupt register
1036:Drivers/STM32F7xx_HAL_Driver/Src/stm32f7xx_ll_usb.c ****   */
1037:Drivers/STM32F7xx_HAL_Driver/Src/stm32f7xx_ll_usb.c **** uint32_t USB_ReadDevInEPInterrupt (USB_OTG_GlobalTypeDef *USBx , uint8_t epnum)
1038:Drivers/STM32F7xx_HAL_Driver/Src/stm32f7xx_ll_usb.c **** {
1039:Drivers/STM32F7xx_HAL_Driver/Src/stm32f7xx_ll_usb.c ****   uint32_t v, msk, emp;
1040:Drivers/STM32F7xx_HAL_Driver/Src/stm32f7xx_ll_usb.c **** 
1041:Drivers/STM32F7xx_HAL_Driver/Src/stm32f7xx_ll_usb.c ****   msk = USBx_DEVICE->DIEPMSK;
1042:Drivers/STM32F7xx_HAL_Driver/Src/stm32f7xx_ll_usb.c ****   emp = USBx_DEVICE->DIEPEMPMSK;
1043:Drivers/STM32F7xx_HAL_Driver/Src/stm32f7xx_ll_usb.c ****   msk |= ((emp >> epnum) & 0x1) << 7;
1044:Drivers/STM32F7xx_HAL_Driver/Src/stm32f7xx_ll_usb.c ****   v = USBx_INEP(epnum)->DIEPINT & msk;
1045:Drivers/STM32F7xx_HAL_Driver/Src/stm32f7xx_ll_usb.c ****   return v;
1046:Drivers/STM32F7xx_HAL_Driver/Src/stm32f7xx_ll_usb.c **** }
1047:Drivers/STM32F7xx_HAL_Driver/Src/stm32f7xx_ll_usb.c **** 
1048:Drivers/STM32F7xx_HAL_Driver/Src/stm32f7xx_ll_usb.c **** /**
1049:Drivers/STM32F7xx_HAL_Driver/Src/stm32f7xx_ll_usb.c ****   * @brief  USB_ClearInterrupts: clear a USB interrupt
1050:Drivers/STM32F7xx_HAL_Driver/Src/stm32f7xx_ll_usb.c ****   * @param  USBx : Selected device
1051:Drivers/STM32F7xx_HAL_Driver/Src/stm32f7xx_ll_usb.c ****   * @param  interrupt : interrupt flag
1052:Drivers/STM32F7xx_HAL_Driver/Src/stm32f7xx_ll_usb.c ****   * @retval None
1053:Drivers/STM32F7xx_HAL_Driver/Src/stm32f7xx_ll_usb.c ****   */
1054:Drivers/STM32F7xx_HAL_Driver/Src/stm32f7xx_ll_usb.c **** void  USB_ClearInterrupts (USB_OTG_GlobalTypeDef *USBx, uint32_t interrupt)
1055:Drivers/STM32F7xx_HAL_Driver/Src/stm32f7xx_ll_usb.c **** {
1056:Drivers/STM32F7xx_HAL_Driver/Src/stm32f7xx_ll_usb.c ****   USBx->GINTSTS |= interrupt;
1057:Drivers/STM32F7xx_HAL_Driver/Src/stm32f7xx_ll_usb.c **** }
1058:Drivers/STM32F7xx_HAL_Driver/Src/stm32f7xx_ll_usb.c **** 
ARM GAS  C:\Users\Student\AppData\Local\Temp\ccty2SRd.s 			page 20


1059:Drivers/STM32F7xx_HAL_Driver/Src/stm32f7xx_ll_usb.c **** /**
1060:Drivers/STM32F7xx_HAL_Driver/Src/stm32f7xx_ll_usb.c ****   * @brief  Returns USB core mode
1061:Drivers/STM32F7xx_HAL_Driver/Src/stm32f7xx_ll_usb.c ****   * @param  USBx : Selected device
1062:Drivers/STM32F7xx_HAL_Driver/Src/stm32f7xx_ll_usb.c ****   * @retval return core mode : Host or Device
1063:Drivers/STM32F7xx_HAL_Driver/Src/stm32f7xx_ll_usb.c ****   *          This parameter can be one of these values:
1064:Drivers/STM32F7xx_HAL_Driver/Src/stm32f7xx_ll_usb.c ****   *           0 : Host
1065:Drivers/STM32F7xx_HAL_Driver/Src/stm32f7xx_ll_usb.c ****   *           1 : Device
1066:Drivers/STM32F7xx_HAL_Driver/Src/stm32f7xx_ll_usb.c ****   */
1067:Drivers/STM32F7xx_HAL_Driver/Src/stm32f7xx_ll_usb.c **** uint32_t USB_GetMode(USB_OTG_GlobalTypeDef *USBx)
1068:Drivers/STM32F7xx_HAL_Driver/Src/stm32f7xx_ll_usb.c **** {
1069:Drivers/STM32F7xx_HAL_Driver/Src/stm32f7xx_ll_usb.c ****   return ((USBx->GINTSTS ) & 0x1);
1070:Drivers/STM32F7xx_HAL_Driver/Src/stm32f7xx_ll_usb.c **** }
1071:Drivers/STM32F7xx_HAL_Driver/Src/stm32f7xx_ll_usb.c **** 
1072:Drivers/STM32F7xx_HAL_Driver/Src/stm32f7xx_ll_usb.c **** 
1073:Drivers/STM32F7xx_HAL_Driver/Src/stm32f7xx_ll_usb.c **** /**
1074:Drivers/STM32F7xx_HAL_Driver/Src/stm32f7xx_ll_usb.c ****   * @brief  Activate EP0 for Setup transactions
1075:Drivers/STM32F7xx_HAL_Driver/Src/stm32f7xx_ll_usb.c ****   * @param  USBx : Selected device
1076:Drivers/STM32F7xx_HAL_Driver/Src/stm32f7xx_ll_usb.c ****   * @retval HAL status
1077:Drivers/STM32F7xx_HAL_Driver/Src/stm32f7xx_ll_usb.c ****   */
1078:Drivers/STM32F7xx_HAL_Driver/Src/stm32f7xx_ll_usb.c **** HAL_StatusTypeDef  USB_ActivateSetup (USB_OTG_GlobalTypeDef *USBx)
1079:Drivers/STM32F7xx_HAL_Driver/Src/stm32f7xx_ll_usb.c **** {
1080:Drivers/STM32F7xx_HAL_Driver/Src/stm32f7xx_ll_usb.c ****   /* Set the MPS of the IN EP based on the enumeration speed */
1081:Drivers/STM32F7xx_HAL_Driver/Src/stm32f7xx_ll_usb.c ****   USBx_INEP(0)->DIEPCTL &= ~USB_OTG_DIEPCTL_MPSIZ;
1082:Drivers/STM32F7xx_HAL_Driver/Src/stm32f7xx_ll_usb.c **** 
1083:Drivers/STM32F7xx_HAL_Driver/Src/stm32f7xx_ll_usb.c ****   if((USBx_DEVICE->DSTS & USB_OTG_DSTS_ENUMSPD) == DSTS_ENUMSPD_LS_PHY_6MHZ)
1084:Drivers/STM32F7xx_HAL_Driver/Src/stm32f7xx_ll_usb.c ****   {
1085:Drivers/STM32F7xx_HAL_Driver/Src/stm32f7xx_ll_usb.c ****     USBx_INEP(0)->DIEPCTL |= 3;
1086:Drivers/STM32F7xx_HAL_Driver/Src/stm32f7xx_ll_usb.c ****   }
1087:Drivers/STM32F7xx_HAL_Driver/Src/stm32f7xx_ll_usb.c ****   USBx_DEVICE->DCTL |= USB_OTG_DCTL_CGINAK;
1088:Drivers/STM32F7xx_HAL_Driver/Src/stm32f7xx_ll_usb.c **** 
1089:Drivers/STM32F7xx_HAL_Driver/Src/stm32f7xx_ll_usb.c ****   return HAL_OK;
1090:Drivers/STM32F7xx_HAL_Driver/Src/stm32f7xx_ll_usb.c **** }
1091:Drivers/STM32F7xx_HAL_Driver/Src/stm32f7xx_ll_usb.c **** 
1092:Drivers/STM32F7xx_HAL_Driver/Src/stm32f7xx_ll_usb.c **** 
1093:Drivers/STM32F7xx_HAL_Driver/Src/stm32f7xx_ll_usb.c **** /**
1094:Drivers/STM32F7xx_HAL_Driver/Src/stm32f7xx_ll_usb.c ****   * @brief  Prepare the EP0 to start the first control setup
1095:Drivers/STM32F7xx_HAL_Driver/Src/stm32f7xx_ll_usb.c ****   * @param  USBx : Selected device
1096:Drivers/STM32F7xx_HAL_Driver/Src/stm32f7xx_ll_usb.c ****   * @param  dma: USB dma enabled or disabled
1097:Drivers/STM32F7xx_HAL_Driver/Src/stm32f7xx_ll_usb.c ****   *          This parameter can be one of these values:
1098:Drivers/STM32F7xx_HAL_Driver/Src/stm32f7xx_ll_usb.c ****   *           0 : DMA feature not used
1099:Drivers/STM32F7xx_HAL_Driver/Src/stm32f7xx_ll_usb.c ****   *           1 : DMA feature used
1100:Drivers/STM32F7xx_HAL_Driver/Src/stm32f7xx_ll_usb.c ****   * @param  psetup : pointer to setup packet
1101:Drivers/STM32F7xx_HAL_Driver/Src/stm32f7xx_ll_usb.c ****   * @retval HAL status
1102:Drivers/STM32F7xx_HAL_Driver/Src/stm32f7xx_ll_usb.c ****   */
1103:Drivers/STM32F7xx_HAL_Driver/Src/stm32f7xx_ll_usb.c **** HAL_StatusTypeDef USB_EP0_OutStart(USB_OTG_GlobalTypeDef *USBx, uint8_t dma, uint8_t *psetup)
1104:Drivers/STM32F7xx_HAL_Driver/Src/stm32f7xx_ll_usb.c **** {
1105:Drivers/STM32F7xx_HAL_Driver/Src/stm32f7xx_ll_usb.c ****   USBx_OUTEP(0)->DOEPTSIZ = 0;
1106:Drivers/STM32F7xx_HAL_Driver/Src/stm32f7xx_ll_usb.c ****   USBx_OUTEP(0)->DOEPTSIZ |= (USB_OTG_DOEPTSIZ_PKTCNT & (1 << 19)) ;
1107:Drivers/STM32F7xx_HAL_Driver/Src/stm32f7xx_ll_usb.c ****   USBx_OUTEP(0)->DOEPTSIZ |= (3 * 8);
1108:Drivers/STM32F7xx_HAL_Driver/Src/stm32f7xx_ll_usb.c ****   USBx_OUTEP(0)->DOEPTSIZ |=  USB_OTG_DOEPTSIZ_STUPCNT;
1109:Drivers/STM32F7xx_HAL_Driver/Src/stm32f7xx_ll_usb.c **** 
1110:Drivers/STM32F7xx_HAL_Driver/Src/stm32f7xx_ll_usb.c ****   if (dma == 1)
1111:Drivers/STM32F7xx_HAL_Driver/Src/stm32f7xx_ll_usb.c ****   {
1112:Drivers/STM32F7xx_HAL_Driver/Src/stm32f7xx_ll_usb.c ****     USBx_OUTEP(0)->DOEPDMA = (uint32_t)psetup;
1113:Drivers/STM32F7xx_HAL_Driver/Src/stm32f7xx_ll_usb.c ****     /* EP enable */
1114:Drivers/STM32F7xx_HAL_Driver/Src/stm32f7xx_ll_usb.c ****     USBx_OUTEP(0)->DOEPCTL = 0x80008000;
1115:Drivers/STM32F7xx_HAL_Driver/Src/stm32f7xx_ll_usb.c ****   }
ARM GAS  C:\Users\Student\AppData\Local\Temp\ccty2SRd.s 			page 21


1116:Drivers/STM32F7xx_HAL_Driver/Src/stm32f7xx_ll_usb.c **** 
1117:Drivers/STM32F7xx_HAL_Driver/Src/stm32f7xx_ll_usb.c ****   return HAL_OK;
1118:Drivers/STM32F7xx_HAL_Driver/Src/stm32f7xx_ll_usb.c **** }
1119:Drivers/STM32F7xx_HAL_Driver/Src/stm32f7xx_ll_usb.c **** 
1120:Drivers/STM32F7xx_HAL_Driver/Src/stm32f7xx_ll_usb.c **** 
1121:Drivers/STM32F7xx_HAL_Driver/Src/stm32f7xx_ll_usb.c **** /**
1122:Drivers/STM32F7xx_HAL_Driver/Src/stm32f7xx_ll_usb.c ****   * @brief  Reset the USB Core (needed after USB clock settings change)
1123:Drivers/STM32F7xx_HAL_Driver/Src/stm32f7xx_ll_usb.c ****   * @param  USBx : Selected device
1124:Drivers/STM32F7xx_HAL_Driver/Src/stm32f7xx_ll_usb.c ****   * @retval HAL status
1125:Drivers/STM32F7xx_HAL_Driver/Src/stm32f7xx_ll_usb.c ****   */
1126:Drivers/STM32F7xx_HAL_Driver/Src/stm32f7xx_ll_usb.c **** static HAL_StatusTypeDef USB_CoreReset(USB_OTG_GlobalTypeDef *USBx)
1127:Drivers/STM32F7xx_HAL_Driver/Src/stm32f7xx_ll_usb.c **** {
  27              		.loc 1 1127 0
  28              		.cfi_startproc
  29              		@ args = 0, pretend = 0, frame = 0
  30              		@ frame_needed = 0, uses_anonymous_args = 0
  31              		@ link register save eliminated.
  32              	.LVL0:
1128:Drivers/STM32F7xx_HAL_Driver/Src/stm32f7xx_ll_usb.c ****   uint32_t count = 0;
  33              		.loc 1 1128 0
  34 0000 0023     		movs	r3, #0
  35              	.LVL1:
  36              	.L3:
1129:Drivers/STM32F7xx_HAL_Driver/Src/stm32f7xx_ll_usb.c **** 
1130:Drivers/STM32F7xx_HAL_Driver/Src/stm32f7xx_ll_usb.c ****   /* Wait for AHB master IDLE state. */
1131:Drivers/STM32F7xx_HAL_Driver/Src/stm32f7xx_ll_usb.c ****   do
1132:Drivers/STM32F7xx_HAL_Driver/Src/stm32f7xx_ll_usb.c ****   {
1133:Drivers/STM32F7xx_HAL_Driver/Src/stm32f7xx_ll_usb.c ****     if (++count > 200000)
  37              		.loc 1 1133 0
  38 0002 0133     		adds	r3, r3, #1
  39              	.LVL2:
  40 0004 0C4A     		ldr	r2, .L7
  41 0006 9342     		cmp	r3, r2
  42 0008 11D8     		bhi	.L5
1134:Drivers/STM32F7xx_HAL_Driver/Src/stm32f7xx_ll_usb.c ****     {
1135:Drivers/STM32F7xx_HAL_Driver/Src/stm32f7xx_ll_usb.c ****       return HAL_TIMEOUT;
1136:Drivers/STM32F7xx_HAL_Driver/Src/stm32f7xx_ll_usb.c ****     }
1137:Drivers/STM32F7xx_HAL_Driver/Src/stm32f7xx_ll_usb.c ****   }
1138:Drivers/STM32F7xx_HAL_Driver/Src/stm32f7xx_ll_usb.c ****   while ((USBx->GRSTCTL & USB_OTG_GRSTCTL_AHBIDL) == 0);
  43              		.loc 1 1138 0
  44 000a 0269     		ldr	r2, [r0, #16]
  45 000c 002A     		cmp	r2, #0
  46 000e F8DA     		bge	.L3
  47              	.LVL3:
1139:Drivers/STM32F7xx_HAL_Driver/Src/stm32f7xx_ll_usb.c **** 
1140:Drivers/STM32F7xx_HAL_Driver/Src/stm32f7xx_ll_usb.c ****   /* Core Soft Reset */
1141:Drivers/STM32F7xx_HAL_Driver/Src/stm32f7xx_ll_usb.c ****   count = 0;
1142:Drivers/STM32F7xx_HAL_Driver/Src/stm32f7xx_ll_usb.c ****   USBx->GRSTCTL |= USB_OTG_GRSTCTL_CSRST;
  48              		.loc 1 1142 0
  49 0010 0369     		ldr	r3, [r0, #16]
  50 0012 43F00103 		orr	r3, r3, #1
  51 0016 0361     		str	r3, [r0, #16]
1141:Drivers/STM32F7xx_HAL_Driver/Src/stm32f7xx_ll_usb.c ****   USBx->GRSTCTL |= USB_OTG_GRSTCTL_CSRST;
  52              		.loc 1 1141 0
  53 0018 0023     		movs	r3, #0
  54              	.LVL4:
  55              	.L4:
ARM GAS  C:\Users\Student\AppData\Local\Temp\ccty2SRd.s 			page 22


1143:Drivers/STM32F7xx_HAL_Driver/Src/stm32f7xx_ll_usb.c **** 
1144:Drivers/STM32F7xx_HAL_Driver/Src/stm32f7xx_ll_usb.c ****   do
1145:Drivers/STM32F7xx_HAL_Driver/Src/stm32f7xx_ll_usb.c ****   {
1146:Drivers/STM32F7xx_HAL_Driver/Src/stm32f7xx_ll_usb.c ****     if (++count > 200000)
  56              		.loc 1 1146 0
  57 001a 0133     		adds	r3, r3, #1
  58              	.LVL5:
  59 001c 064A     		ldr	r2, .L7
  60 001e 9342     		cmp	r3, r2
  61 0020 07D8     		bhi	.L6
1147:Drivers/STM32F7xx_HAL_Driver/Src/stm32f7xx_ll_usb.c ****     {
1148:Drivers/STM32F7xx_HAL_Driver/Src/stm32f7xx_ll_usb.c ****       return HAL_TIMEOUT;
1149:Drivers/STM32F7xx_HAL_Driver/Src/stm32f7xx_ll_usb.c ****     }
1150:Drivers/STM32F7xx_HAL_Driver/Src/stm32f7xx_ll_usb.c ****   }
1151:Drivers/STM32F7xx_HAL_Driver/Src/stm32f7xx_ll_usb.c ****   while ((USBx->GRSTCTL & USB_OTG_GRSTCTL_CSRST) == USB_OTG_GRSTCTL_CSRST);
  62              		.loc 1 1151 0
  63 0022 0269     		ldr	r2, [r0, #16]
  64 0024 12F0010F 		tst	r2, #1
  65 0028 F7D1     		bne	.L4
1152:Drivers/STM32F7xx_HAL_Driver/Src/stm32f7xx_ll_usb.c **** 
1153:Drivers/STM32F7xx_HAL_Driver/Src/stm32f7xx_ll_usb.c ****   return HAL_OK;
  66              		.loc 1 1153 0
  67 002a 0020     		movs	r0, #0
  68              	.LVL6:
  69 002c 7047     		bx	lr
  70              	.LVL7:
  71              	.L5:
1135:Drivers/STM32F7xx_HAL_Driver/Src/stm32f7xx_ll_usb.c ****     }
  72              		.loc 1 1135 0
  73 002e 0320     		movs	r0, #3
  74              	.LVL8:
  75 0030 7047     		bx	lr
  76              	.LVL9:
  77              	.L6:
1148:Drivers/STM32F7xx_HAL_Driver/Src/stm32f7xx_ll_usb.c ****     }
  78              		.loc 1 1148 0
  79 0032 0320     		movs	r0, #3
  80              	.LVL10:
1154:Drivers/STM32F7xx_HAL_Driver/Src/stm32f7xx_ll_usb.c **** }
  81              		.loc 1 1154 0
  82 0034 7047     		bx	lr
  83              	.L8:
  84 0036 00BF     		.align	2
  85              	.L7:
  86 0038 400D0300 		.word	200000
  87              		.cfi_endproc
  88              	.LFE168:
  90              		.section	.text.USB_CoreInit,"ax",%progbits
  91              		.align	1
  92              		.global	USB_CoreInit
  93              		.syntax unified
  94              		.thumb
  95              		.thumb_func
  96              		.fpu fpv5-sp-d16
  98              	USB_CoreInit:
  99              	.LFB136:
 103:Drivers/STM32F7xx_HAL_Driver/Src/stm32f7xx_ll_usb.c ****   if (cfg.phy_itface == USB_OTG_ULPI_PHY)
ARM GAS  C:\Users\Student\AppData\Local\Temp\ccty2SRd.s 			page 23


 100              		.loc 1 103 0
 101              		.cfi_startproc
 102              		@ args = 56, pretend = 16, frame = 0
 103              		@ frame_needed = 0, uses_anonymous_args = 0
 104              	.LVL11:
 105 0000 84B0     		sub	sp, sp, #16
 106              	.LCFI0:
 107              		.cfi_def_cfa_offset 16
 108 0002 10B5     		push	{r4, lr}
 109              	.LCFI1:
 110              		.cfi_def_cfa_offset 24
 111              		.cfi_offset 4, -24
 112              		.cfi_offset 14, -20
 113 0004 0446     		mov	r4, r0
 114 0006 03A8     		add	r0, sp, #12
 115              	.LVL12:
 116 0008 80E80E00 		stm	r0, {r1, r2, r3}
 104:Drivers/STM32F7xx_HAL_Driver/Src/stm32f7xx_ll_usb.c ****   {
 117              		.loc 1 104 0
 118 000c 089B     		ldr	r3, [sp, #32]
 119 000e 012B     		cmp	r3, #1
 120 0010 11D0     		beq	.L15
 152:Drivers/STM32F7xx_HAL_Driver/Src/stm32f7xx_ll_usb.c **** 
 121              		.loc 1 152 0
 122 0012 E368     		ldr	r3, [r4, #12]
 123 0014 43F04003 		orr	r3, r3, #64
 124 0018 E360     		str	r3, [r4, #12]
 155:Drivers/STM32F7xx_HAL_Driver/Src/stm32f7xx_ll_usb.c **** 
 125              		.loc 1 155 0
 126 001a 2046     		mov	r0, r4
 127 001c FFF7FEFF 		bl	USB_CoreReset
 128              	.LVL13:
 158:Drivers/STM32F7xx_HAL_Driver/Src/stm32f7xx_ll_usb.c ****   }
 129              		.loc 1 158 0
 130 0020 4FF48033 		mov	r3, #65536
 131 0024 A363     		str	r3, [r4, #56]
 132              	.L12:
 161:Drivers/STM32F7xx_HAL_Driver/Src/stm32f7xx_ll_usb.c ****   {
 133              		.loc 1 161 0
 134 0026 069B     		ldr	r3, [sp, #24]
 135 0028 012B     		cmp	r3, #1
 136 002a 1CD0     		beq	.L16
 137              	.L13:
 168:Drivers/STM32F7xx_HAL_Driver/Src/stm32f7xx_ll_usb.c **** 
 138              		.loc 1 168 0
 139 002c 0020     		movs	r0, #0
 140 002e BDE81040 		pop	{r4, lr}
 141              	.LCFI2:
 142              		.cfi_remember_state
 143              		.cfi_restore 14
 144              		.cfi_restore 4
 145              		.cfi_def_cfa_offset 16
 146              	.LVL14:
 147 0032 04B0     		add	sp, sp, #16
 148              	.LCFI3:
 149              		.cfi_def_cfa_offset 0
 150 0034 7047     		bx	lr
ARM GAS  C:\Users\Student\AppData\Local\Temp\ccty2SRd.s 			page 24


 151              	.LVL15:
 152              	.L15:
 153              	.LCFI4:
 154              		.cfi_restore_state
 107:Drivers/STM32F7xx_HAL_Driver/Src/stm32f7xx_ll_usb.c **** 
 155              		.loc 1 107 0
 156 0036 A36B     		ldr	r3, [r4, #56]
 157 0038 23F48033 		bic	r3, r3, #65536
 158 003c A363     		str	r3, [r4, #56]
 110:Drivers/STM32F7xx_HAL_Driver/Src/stm32f7xx_ll_usb.c **** 
 159              		.loc 1 110 0
 160 003e E268     		ldr	r2, [r4, #12]
 161 0040 0D4B     		ldr	r3, .L18
 162 0042 1340     		ands	r3, r3, r2
 163 0044 E360     		str	r3, [r4, #12]
 113:Drivers/STM32F7xx_HAL_Driver/Src/stm32f7xx_ll_usb.c ****     if(cfg.use_external_vbus == 1)
 164              		.loc 1 113 0
 165 0046 E368     		ldr	r3, [r4, #12]
 166 0048 23F44013 		bic	r3, r3, #3145728
 167 004c E360     		str	r3, [r4, #12]
 114:Drivers/STM32F7xx_HAL_Driver/Src/stm32f7xx_ll_usb.c ****     {
 168              		.loc 1 114 0
 169 004e 0F9B     		ldr	r3, [sp, #60]
 170 0050 012B     		cmp	r3, #1
 171 0052 03D0     		beq	.L17
 172              	.L11:
 119:Drivers/STM32F7xx_HAL_Driver/Src/stm32f7xx_ll_usb.c ****   }
 173              		.loc 1 119 0
 174 0054 2046     		mov	r0, r4
 175 0056 FFF7FEFF 		bl	USB_CoreReset
 176              	.LVL16:
 177 005a E4E7     		b	.L12
 178              	.L17:
 116:Drivers/STM32F7xx_HAL_Driver/Src/stm32f7xx_ll_usb.c ****     }
 179              		.loc 1 116 0
 180 005c E368     		ldr	r3, [r4, #12]
 181 005e 43F48013 		orr	r3, r3, #1048576
 182 0062 E360     		str	r3, [r4, #12]
 183 0064 F6E7     		b	.L11
 184              	.L16:
 163:Drivers/STM32F7xx_HAL_Driver/Src/stm32f7xx_ll_usb.c ****     USBx->GAHBCFG |= USB_OTG_GAHBCFG_DMAEN;
 185              		.loc 1 163 0
 186 0066 A368     		ldr	r3, [r4, #8]
 187 0068 43F00603 		orr	r3, r3, #6
 188 006c A360     		str	r3, [r4, #8]
 164:Drivers/STM32F7xx_HAL_Driver/Src/stm32f7xx_ll_usb.c ****   }
 189              		.loc 1 164 0
 190 006e A368     		ldr	r3, [r4, #8]
 191 0070 43F02003 		orr	r3, r3, #32
 192 0074 A360     		str	r3, [r4, #8]
 193 0076 D9E7     		b	.L13
 194              	.L19:
 195              		.align	2
 196              	.L18:
 197 0078 BFFFBDFF 		.word	-4325441
 198              		.cfi_endproc
 199              	.LFE136:
ARM GAS  C:\Users\Student\AppData\Local\Temp\ccty2SRd.s 			page 25


 201              		.section	.text.USB_EnableGlobalInt,"ax",%progbits
 202              		.align	1
 203              		.global	USB_EnableGlobalInt
 204              		.syntax unified
 205              		.thumb
 206              		.thumb_func
 207              		.fpu fpv5-sp-d16
 209              	USB_EnableGlobalInt:
 210              	.LFB137:
 177:Drivers/STM32F7xx_HAL_Driver/Src/stm32f7xx_ll_usb.c ****   USBx->GAHBCFG |= USB_OTG_GAHBCFG_GINT;
 211              		.loc 1 177 0
 212              		.cfi_startproc
 213              		@ args = 0, pretend = 0, frame = 0
 214              		@ frame_needed = 0, uses_anonymous_args = 0
 215              		@ link register save eliminated.
 216              	.LVL17:
 178:Drivers/STM32F7xx_HAL_Driver/Src/stm32f7xx_ll_usb.c ****   return HAL_OK;
 217              		.loc 1 178 0
 218 0000 8368     		ldr	r3, [r0, #8]
 219 0002 43F00103 		orr	r3, r3, #1
 220 0006 8360     		str	r3, [r0, #8]
 180:Drivers/STM32F7xx_HAL_Driver/Src/stm32f7xx_ll_usb.c **** 
 221              		.loc 1 180 0
 222 0008 0020     		movs	r0, #0
 223              	.LVL18:
 224 000a 7047     		bx	lr
 225              		.cfi_endproc
 226              	.LFE137:
 228              		.section	.text.USB_DisableGlobalInt,"ax",%progbits
 229              		.align	1
 230              		.global	USB_DisableGlobalInt
 231              		.syntax unified
 232              		.thumb
 233              		.thumb_func
 234              		.fpu fpv5-sp-d16
 236              	USB_DisableGlobalInt:
 237              	.LFB138:
 190:Drivers/STM32F7xx_HAL_Driver/Src/stm32f7xx_ll_usb.c ****   USBx->GAHBCFG &= ~USB_OTG_GAHBCFG_GINT;
 238              		.loc 1 190 0
 239              		.cfi_startproc
 240              		@ args = 0, pretend = 0, frame = 0
 241              		@ frame_needed = 0, uses_anonymous_args = 0
 242              		@ link register save eliminated.
 243              	.LVL19:
 191:Drivers/STM32F7xx_HAL_Driver/Src/stm32f7xx_ll_usb.c ****   return HAL_OK;
 244              		.loc 1 191 0
 245 0000 8368     		ldr	r3, [r0, #8]
 246 0002 23F00103 		bic	r3, r3, #1
 247 0006 8360     		str	r3, [r0, #8]
 193:Drivers/STM32F7xx_HAL_Driver/Src/stm32f7xx_ll_usb.c **** 
 248              		.loc 1 193 0
 249 0008 0020     		movs	r0, #0
 250              	.LVL20:
 251 000a 7047     		bx	lr
 252              		.cfi_endproc
 253              	.LFE138:
 255              		.section	.text.USB_SetCurrentMode,"ax",%progbits
ARM GAS  C:\Users\Student\AppData\Local\Temp\ccty2SRd.s 			page 26


 256              		.align	1
 257              		.global	USB_SetCurrentMode
 258              		.syntax unified
 259              		.thumb
 260              		.thumb_func
 261              		.fpu fpv5-sp-d16
 263              	USB_SetCurrentMode:
 264              	.LFB139:
 206:Drivers/STM32F7xx_HAL_Driver/Src/stm32f7xx_ll_usb.c ****   USBx->GUSBCFG &= ~(USB_OTG_GUSBCFG_FHMOD | USB_OTG_GUSBCFG_FDMOD);
 265              		.loc 1 206 0
 266              		.cfi_startproc
 267              		@ args = 0, pretend = 0, frame = 0
 268              		@ frame_needed = 0, uses_anonymous_args = 0
 269              	.LVL21:
 270 0000 08B5     		push	{r3, lr}
 271              	.LCFI5:
 272              		.cfi_def_cfa_offset 8
 273              		.cfi_offset 3, -8
 274              		.cfi_offset 14, -4
 207:Drivers/STM32F7xx_HAL_Driver/Src/stm32f7xx_ll_usb.c **** 
 275              		.loc 1 207 0
 276 0002 C368     		ldr	r3, [r0, #12]
 277 0004 23F0C043 		bic	r3, r3, #1610612736
 278 0008 C360     		str	r3, [r0, #12]
 209:Drivers/STM32F7xx_HAL_Driver/Src/stm32f7xx_ll_usb.c ****   {
 279              		.loc 1 209 0
 280 000a 0129     		cmp	r1, #1
 281 000c 09D0     		beq	.L26
 213:Drivers/STM32F7xx_HAL_Driver/Src/stm32f7xx_ll_usb.c ****   {
 282              		.loc 1 213 0
 283 000e 19B9     		cbnz	r1, .L24
 215:Drivers/STM32F7xx_HAL_Driver/Src/stm32f7xx_ll_usb.c ****   }
 284              		.loc 1 215 0
 285 0010 C368     		ldr	r3, [r0, #12]
 286 0012 43F08043 		orr	r3, r3, #1073741824
 287 0016 C360     		str	r3, [r0, #12]
 288              	.L24:
 217:Drivers/STM32F7xx_HAL_Driver/Src/stm32f7xx_ll_usb.c **** 
 289              		.loc 1 217 0
 290 0018 3220     		movs	r0, #50
 291              	.LVL22:
 292 001a FFF7FEFF 		bl	HAL_Delay
 293              	.LVL23:
 220:Drivers/STM32F7xx_HAL_Driver/Src/stm32f7xx_ll_usb.c **** 
 294              		.loc 1 220 0
 295 001e 0020     		movs	r0, #0
 296 0020 08BD     		pop	{r3, pc}
 297              	.LVL24:
 298              	.L26:
 211:Drivers/STM32F7xx_HAL_Driver/Src/stm32f7xx_ll_usb.c ****   }
 299              		.loc 1 211 0
 300 0022 C368     		ldr	r3, [r0, #12]
 301 0024 43F00053 		orr	r3, r3, #536870912
 302 0028 C360     		str	r3, [r0, #12]
 303 002a F5E7     		b	.L24
 304              		.cfi_endproc
 305              	.LFE139:
ARM GAS  C:\Users\Student\AppData\Local\Temp\ccty2SRd.s 			page 27


 307              		.section	.text.USB_FlushTxFifo,"ax",%progbits
 308              		.align	1
 309              		.global	USB_FlushTxFifo
 310              		.syntax unified
 311              		.thumb
 312              		.thumb_func
 313              		.fpu fpv5-sp-d16
 315              	USB_FlushTxFifo:
 316              	.LFB141:
 379:Drivers/STM32F7xx_HAL_Driver/Src/stm32f7xx_ll_usb.c ****   uint32_t count = 0;
 317              		.loc 1 379 0
 318              		.cfi_startproc
 319              		@ args = 0, pretend = 0, frame = 0
 320              		@ frame_needed = 0, uses_anonymous_args = 0
 321              		@ link register save eliminated.
 322              	.LVL25:
 382:Drivers/STM32F7xx_HAL_Driver/Src/stm32f7xx_ll_usb.c **** 
 323              		.loc 1 382 0
 324 0000 8901     		lsls	r1, r1, #6
 325              	.LVL26:
 326 0002 41F02001 		orr	r1, r1, #32
 327 0006 0161     		str	r1, [r0, #16]
 380:Drivers/STM32F7xx_HAL_Driver/Src/stm32f7xx_ll_usb.c **** 
 328              		.loc 1 380 0
 329 0008 0023     		movs	r3, #0
 330              	.LVL27:
 331              	.L29:
 386:Drivers/STM32F7xx_HAL_Driver/Src/stm32f7xx_ll_usb.c ****     {
 332              		.loc 1 386 0
 333 000a 0133     		adds	r3, r3, #1
 334              	.LVL28:
 335 000c 054A     		ldr	r2, .L31
 336 000e 9342     		cmp	r3, r2
 337 0010 05D8     		bhi	.L30
 391:Drivers/STM32F7xx_HAL_Driver/Src/stm32f7xx_ll_usb.c **** 
 338              		.loc 1 391 0
 339 0012 0269     		ldr	r2, [r0, #16]
 340 0014 12F0200F 		tst	r2, #32
 341 0018 F7D1     		bne	.L29
 393:Drivers/STM32F7xx_HAL_Driver/Src/stm32f7xx_ll_usb.c **** }
 342              		.loc 1 393 0
 343 001a 0020     		movs	r0, #0
 344              	.LVL29:
 345 001c 7047     		bx	lr
 346              	.LVL30:
 347              	.L30:
 388:Drivers/STM32F7xx_HAL_Driver/Src/stm32f7xx_ll_usb.c ****     }
 348              		.loc 1 388 0
 349 001e 0320     		movs	r0, #3
 350              	.LVL31:
 394:Drivers/STM32F7xx_HAL_Driver/Src/stm32f7xx_ll_usb.c **** 
 351              		.loc 1 394 0
 352 0020 7047     		bx	lr
 353              	.L32:
 354 0022 00BF     		.align	2
 355              	.L31:
 356 0024 400D0300 		.word	200000
ARM GAS  C:\Users\Student\AppData\Local\Temp\ccty2SRd.s 			page 28


 357              		.cfi_endproc
 358              	.LFE141:
 360              		.section	.text.USB_FlushRxFifo,"ax",%progbits
 361              		.align	1
 362              		.global	USB_FlushRxFifo
 363              		.syntax unified
 364              		.thumb
 365              		.thumb_func
 366              		.fpu fpv5-sp-d16
 368              	USB_FlushRxFifo:
 369              	.LFB142:
 403:Drivers/STM32F7xx_HAL_Driver/Src/stm32f7xx_ll_usb.c ****   uint32_t count = 0;
 370              		.loc 1 403 0
 371              		.cfi_startproc
 372              		@ args = 0, pretend = 0, frame = 0
 373              		@ frame_needed = 0, uses_anonymous_args = 0
 374              		@ link register save eliminated.
 375              	.LVL32:
 406:Drivers/STM32F7xx_HAL_Driver/Src/stm32f7xx_ll_usb.c **** 
 376              		.loc 1 406 0
 377 0000 1023     		movs	r3, #16
 378 0002 0361     		str	r3, [r0, #16]
 404:Drivers/STM32F7xx_HAL_Driver/Src/stm32f7xx_ll_usb.c **** 
 379              		.loc 1 404 0
 380 0004 0023     		movs	r3, #0
 381              	.LVL33:
 382              	.L35:
 410:Drivers/STM32F7xx_HAL_Driver/Src/stm32f7xx_ll_usb.c ****     {
 383              		.loc 1 410 0
 384 0006 0133     		adds	r3, r3, #1
 385              	.LVL34:
 386 0008 054A     		ldr	r2, .L37
 387 000a 9342     		cmp	r3, r2
 388 000c 05D8     		bhi	.L36
 415:Drivers/STM32F7xx_HAL_Driver/Src/stm32f7xx_ll_usb.c **** 
 389              		.loc 1 415 0
 390 000e 0269     		ldr	r2, [r0, #16]
 391 0010 12F0100F 		tst	r2, #16
 392 0014 F7D1     		bne	.L35
 417:Drivers/STM32F7xx_HAL_Driver/Src/stm32f7xx_ll_usb.c **** }
 393              		.loc 1 417 0
 394 0016 0020     		movs	r0, #0
 395              	.LVL35:
 396 0018 7047     		bx	lr
 397              	.LVL36:
 398              	.L36:
 412:Drivers/STM32F7xx_HAL_Driver/Src/stm32f7xx_ll_usb.c ****     }
 399              		.loc 1 412 0
 400 001a 0320     		movs	r0, #3
 401              	.LVL37:
 418:Drivers/STM32F7xx_HAL_Driver/Src/stm32f7xx_ll_usb.c **** 
 402              		.loc 1 418 0
 403 001c 7047     		bx	lr
 404              	.L38:
 405 001e 00BF     		.align	2
 406              	.L37:
 407 0020 400D0300 		.word	200000
ARM GAS  C:\Users\Student\AppData\Local\Temp\ccty2SRd.s 			page 29


 408              		.cfi_endproc
 409              	.LFE142:
 411              		.section	.text.USB_SetDevSpeed,"ax",%progbits
 412              		.align	1
 413              		.global	USB_SetDevSpeed
 414              		.syntax unified
 415              		.thumb
 416              		.thumb_func
 417              		.fpu fpv5-sp-d16
 419              	USB_SetDevSpeed:
 420              	.LFB143:
 433:Drivers/STM32F7xx_HAL_Driver/Src/stm32f7xx_ll_usb.c ****   USBx_DEVICE->DCFG |= speed;
 421              		.loc 1 433 0
 422              		.cfi_startproc
 423              		@ args = 0, pretend = 0, frame = 0
 424              		@ frame_needed = 0, uses_anonymous_args = 0
 425              		@ link register save eliminated.
 426              	.LVL38:
 434:Drivers/STM32F7xx_HAL_Driver/Src/stm32f7xx_ll_usb.c ****   return HAL_OK;
 427              		.loc 1 434 0
 428 0000 D0F80038 		ldr	r3, [r0, #2048]
 429 0004 1943     		orrs	r1, r1, r3
 430              	.LVL39:
 431 0006 C0F80018 		str	r1, [r0, #2048]
 436:Drivers/STM32F7xx_HAL_Driver/Src/stm32f7xx_ll_usb.c **** 
 432              		.loc 1 436 0
 433 000a 0020     		movs	r0, #0
 434              	.LVL40:
 435 000c 7047     		bx	lr
 436              		.cfi_endproc
 437              	.LFE143:
 439              		.section	.text.USB_DevInit,"ax",%progbits
 440              		.align	1
 441              		.global	USB_DevInit
 442              		.syntax unified
 443              		.thumb
 444              		.thumb_func
 445              		.fpu fpv5-sp-d16
 447              	USB_DevInit:
 448              	.LFB140:
 231:Drivers/STM32F7xx_HAL_Driver/Src/stm32f7xx_ll_usb.c ****   uint32_t i = 0;
 449              		.loc 1 231 0
 450              		.cfi_startproc
 451              		@ args = 56, pretend = 16, frame = 0
 452              		@ frame_needed = 0, uses_anonymous_args = 0
 453              	.LVL41:
 454 0000 84B0     		sub	sp, sp, #16
 455              	.LCFI6:
 456              		.cfi_def_cfa_offset 16
 457 0002 F8B5     		push	{r3, r4, r5, r6, r7, lr}
 458              	.LCFI7:
 459              		.cfi_def_cfa_offset 40
 460              		.cfi_offset 3, -40
 461              		.cfi_offset 4, -36
 462              		.cfi_offset 5, -32
 463              		.cfi_offset 6, -28
 464              		.cfi_offset 7, -24
ARM GAS  C:\Users\Student\AppData\Local\Temp\ccty2SRd.s 			page 30


 465              		.cfi_offset 14, -20
 466 0004 0546     		mov	r5, r0
 467 0006 07A8     		add	r0, sp, #28
 468              	.LVL42:
 469 0008 80E80E00 		stm	r0, {r1, r2, r3}
 470              	.LVL43:
 235:Drivers/STM32F7xx_HAL_Driver/Src/stm32f7xx_ll_usb.c **** 
 471              		.loc 1 235 0
 472 000c AB6B     		ldr	r3, [r5, #56]
 473 000e 43F40013 		orr	r3, r3, #2097152
 474 0012 AB63     		str	r3, [r5, #56]
 237:Drivers/STM32F7xx_HAL_Driver/Src/stm32f7xx_ll_usb.c ****   {
 475              		.loc 1 237 0
 476 0014 119F     		ldr	r7, [sp, #68]
 477 0016 5FB9     		cbnz	r7, .L41
 240:Drivers/STM32F7xx_HAL_Driver/Src/stm32f7xx_ll_usb.c **** 
 478              		.loc 1 240 0
 479 0018 AB6B     		ldr	r3, [r5, #56]
 480 001a 23F40013 		bic	r3, r3, #2097152
 481 001e AB63     		str	r3, [r5, #56]
 243:Drivers/STM32F7xx_HAL_Driver/Src/stm32f7xx_ll_usb.c ****     USBx->GOTGCTL |= USB_OTG_GOTGCTL_BVALOVAL;
 482              		.loc 1 243 0
 483 0020 2B68     		ldr	r3, [r5]
 484 0022 43F04003 		orr	r3, r3, #64
 485 0026 2B60     		str	r3, [r5]
 244:Drivers/STM32F7xx_HAL_Driver/Src/stm32f7xx_ll_usb.c ****   }
 486              		.loc 1 244 0
 487 0028 2B68     		ldr	r3, [r5]
 488 002a 43F08003 		orr	r3, r3, #128
 489 002e 2B60     		str	r3, [r5]
 490              	.L41:
 248:Drivers/STM32F7xx_HAL_Driver/Src/stm32f7xx_ll_usb.c **** 
 491              		.loc 1 248 0
 492 0030 2C46     		mov	r4, r5
 493 0032 0023     		movs	r3, #0
 494 0034 C5F8003E 		str	r3, [r5, #3584]
 251:Drivers/STM32F7xx_HAL_Driver/Src/stm32f7xx_ll_usb.c **** 
 495              		.loc 1 251 0
 496 0038 05F50066 		add	r6, r5, #2048
 497 003c D5F80038 		ldr	r3, [r5, #2048]
 498 0040 C5F80038 		str	r3, [r5, #2048]
 253:Drivers/STM32F7xx_HAL_Driver/Src/stm32f7xx_ll_usb.c ****   {
 499              		.loc 1 253 0
 500 0044 0C9B     		ldr	r3, [sp, #48]
 501 0046 012B     		cmp	r3, #1
 502 0048 14D0     		beq	.L60
 503              	.LVL44:
 267:Drivers/STM32F7xx_HAL_Driver/Src/stm32f7xx_ll_usb.c ****   {
 504              		.loc 1 267 0
 505 004a 032B     		cmp	r3, #3
 506 004c 1ED0     		beq	.L61
 284:Drivers/STM32F7xx_HAL_Driver/Src/stm32f7xx_ll_usb.c ****   }
 507              		.loc 1 284 0
 508 004e 0321     		movs	r1, #3
 509 0050 2846     		mov	r0, r5
 510 0052 FFF7FEFF 		bl	USB_SetDevSpeed
 511              	.LVL45:
ARM GAS  C:\Users\Student\AppData\Local\Temp\ccty2SRd.s 			page 31


 512              	.L44:
 288:Drivers/STM32F7xx_HAL_Driver/Src/stm32f7xx_ll_usb.c ****   USB_FlushRxFifo(USBx);
 513              		.loc 1 288 0
 514 0056 1021     		movs	r1, #16
 515 0058 2846     		mov	r0, r5
 516 005a FFF7FEFF 		bl	USB_FlushTxFifo
 517              	.LVL46:
 289:Drivers/STM32F7xx_HAL_Driver/Src/stm32f7xx_ll_usb.c **** 
 518              		.loc 1 289 0
 519 005e 2846     		mov	r0, r5
 520 0060 FFF7FEFF 		bl	USB_FlushRxFifo
 521              	.LVL47:
 292:Drivers/STM32F7xx_HAL_Driver/Src/stm32f7xx_ll_usb.c ****   USBx_DEVICE->DOEPMSK = 0;
 522              		.loc 1 292 0
 523 0064 0023     		movs	r3, #0
 524 0066 3361     		str	r3, [r6, #16]
 293:Drivers/STM32F7xx_HAL_Driver/Src/stm32f7xx_ll_usb.c ****   USBx_DEVICE->DAINT = 0xFFFFFFFF;
 525              		.loc 1 293 0
 526 0068 7361     		str	r3, [r6, #20]
 294:Drivers/STM32F7xx_HAL_Driver/Src/stm32f7xx_ll_usb.c ****   USBx_DEVICE->DAINTMSK = 0;
 527              		.loc 1 294 0
 528 006a 4FF0FF32 		mov	r2, #-1
 529 006e B261     		str	r2, [r6, #24]
 295:Drivers/STM32F7xx_HAL_Driver/Src/stm32f7xx_ll_usb.c **** 
 530              		.loc 1 295 0
 531 0070 F361     		str	r3, [r6, #28]
 297:Drivers/STM32F7xx_HAL_Driver/Src/stm32f7xx_ll_usb.c ****   {
 532              		.loc 1 297 0
 533 0072 20E0     		b	.L47
 534              	.L60:
 255:Drivers/STM32F7xx_HAL_Driver/Src/stm32f7xx_ll_usb.c ****     {
 535              		.loc 1 255 0
 536 0074 099B     		ldr	r3, [sp, #36]
 537 0076 23B9     		cbnz	r3, .L43
 258:Drivers/STM32F7xx_HAL_Driver/Src/stm32f7xx_ll_usb.c ****     }
 538              		.loc 1 258 0
 539 0078 0021     		movs	r1, #0
 540 007a 2846     		mov	r0, r5
 541 007c FFF7FEFF 		bl	USB_SetDevSpeed
 542              	.LVL48:
 543 0080 E9E7     		b	.L44
 544              	.L43:
 263:Drivers/STM32F7xx_HAL_Driver/Src/stm32f7xx_ll_usb.c ****     }
 545              		.loc 1 263 0
 546 0082 0121     		movs	r1, #1
 547 0084 2846     		mov	r0, r5
 548 0086 FFF7FEFF 		bl	USB_SetDevSpeed
 549              	.LVL49:
 550 008a E4E7     		b	.L44
 551              	.L61:
 269:Drivers/STM32F7xx_HAL_Driver/Src/stm32f7xx_ll_usb.c ****     {
 552              		.loc 1 269 0
 553 008c 099B     		ldr	r3, [sp, #36]
 554 008e 23B9     		cbnz	r3, .L46
 272:Drivers/STM32F7xx_HAL_Driver/Src/stm32f7xx_ll_usb.c ****     }
 555              		.loc 1 272 0
 556 0090 0021     		movs	r1, #0
ARM GAS  C:\Users\Student\AppData\Local\Temp\ccty2SRd.s 			page 32


 557 0092 2846     		mov	r0, r5
 558 0094 FFF7FEFF 		bl	USB_SetDevSpeed
 559              	.LVL50:
 560 0098 DDE7     		b	.L44
 561              	.L46:
 277:Drivers/STM32F7xx_HAL_Driver/Src/stm32f7xx_ll_usb.c ****     }
 562              		.loc 1 277 0
 563 009a 0121     		movs	r1, #1
 564 009c 2846     		mov	r0, r5
 565 009e FFF7FEFF 		bl	USB_SetDevSpeed
 566              	.LVL51:
 567 00a2 D8E7     		b	.L44
 568              	.LVL52:
 569              	.L63:
 301:Drivers/STM32F7xx_HAL_Driver/Src/stm32f7xx_ll_usb.c ****     }
 570              		.loc 1 301 0
 571 00a4 4FF09040 		mov	r0, #1207959552
 572 00a8 C2F80009 		str	r0, [r2, #2304]
 573              	.L49:
 308:Drivers/STM32F7xx_HAL_Driver/Src/stm32f7xx_ll_usb.c ****     USBx_INEP(i)->DIEPINT  = 0xFF;
 574              		.loc 1 308 0 discriminator 2
 575 00ac 0022     		movs	r2, #0
 576 00ae 0A61     		str	r2, [r1, #16]
 309:Drivers/STM32F7xx_HAL_Driver/Src/stm32f7xx_ll_usb.c ****   }
 577              		.loc 1 309 0 discriminator 2
 578 00b0 FF22     		movs	r2, #255
 579 00b2 8A60     		str	r2, [r1, #8]
 297:Drivers/STM32F7xx_HAL_Driver/Src/stm32f7xx_ll_usb.c ****   {
 580              		.loc 1 297 0 discriminator 2
 581 00b4 0133     		adds	r3, r3, #1
 582              	.LVL53:
 583              	.L47:
 297:Drivers/STM32F7xx_HAL_Driver/Src/stm32f7xx_ll_usb.c ****   {
 584              		.loc 1 297 0 is_stmt 0 discriminator 1
 585 00b6 0799     		ldr	r1, [sp, #28]
 586 00b8 8B42     		cmp	r3, r1
 587 00ba 0BD2     		bcs	.L62
 299:Drivers/STM32F7xx_HAL_Driver/Src/stm32f7xx_ll_usb.c ****     {
 588              		.loc 1 299 0 is_stmt 1
 589 00bc 04EB4312 		add	r2, r4, r3, lsl #5
 590 00c0 02F51061 		add	r1, r2, #2304
 591 00c4 D2F80009 		ldr	r0, [r2, #2304]
 592 00c8 0028     		cmp	r0, #0
 593 00ca EBDB     		blt	.L63
 305:Drivers/STM32F7xx_HAL_Driver/Src/stm32f7xx_ll_usb.c ****     }
 594              		.loc 1 305 0
 595 00cc 0020     		movs	r0, #0
 596 00ce C2F80009 		str	r0, [r2, #2304]
 597 00d2 EBE7     		b	.L49
 598              	.L62:
 599 00d4 0023     		movs	r3, #0
 600              	.LVL54:
 601 00d6 08E0     		b	.L51
 602              	.LVL55:
 603              	.L65:
 316:Drivers/STM32F7xx_HAL_Driver/Src/stm32f7xx_ll_usb.c ****     }
 604              		.loc 1 316 0
ARM GAS  C:\Users\Student\AppData\Local\Temp\ccty2SRd.s 			page 33


 605 00d8 4FF0904E 		mov	lr, #1207959552
 606 00dc C2F800EB 		str	lr, [r2, #2816]
 607              	.L53:
 323:Drivers/STM32F7xx_HAL_Driver/Src/stm32f7xx_ll_usb.c ****     USBx_OUTEP(i)->DOEPINT  = 0xFF;
 608              		.loc 1 323 0 discriminator 2
 609 00e0 0022     		movs	r2, #0
 610 00e2 0261     		str	r2, [r0, #16]
 324:Drivers/STM32F7xx_HAL_Driver/Src/stm32f7xx_ll_usb.c ****   }
 611              		.loc 1 324 0 discriminator 2
 612 00e4 FF22     		movs	r2, #255
 613 00e6 8260     		str	r2, [r0, #8]
 312:Drivers/STM32F7xx_HAL_Driver/Src/stm32f7xx_ll_usb.c ****   {
 614              		.loc 1 312 0 discriminator 2
 615 00e8 0133     		adds	r3, r3, #1
 616              	.LVL56:
 617              	.L51:
 312:Drivers/STM32F7xx_HAL_Driver/Src/stm32f7xx_ll_usb.c ****   {
 618              		.loc 1 312 0 is_stmt 0 discriminator 1
 619 00ea 8B42     		cmp	r3, r1
 620 00ec 0DD2     		bcs	.L64
 314:Drivers/STM32F7xx_HAL_Driver/Src/stm32f7xx_ll_usb.c ****     {
 621              		.loc 1 314 0 is_stmt 1
 622 00ee 04EB4312 		add	r2, r4, r3, lsl #5
 623 00f2 02F53060 		add	r0, r2, #2816
 624 00f6 D2F800EB 		ldr	lr, [r2, #2816]
 625 00fa BEF1000F 		cmp	lr, #0
 626 00fe EBDB     		blt	.L65
 320:Drivers/STM32F7xx_HAL_Driver/Src/stm32f7xx_ll_usb.c ****     }
 627              		.loc 1 320 0
 628 0100 4FF0000E 		mov	lr, #0
 629 0104 C2F800EB 		str	lr, [r2, #2816]
 630 0108 EAE7     		b	.L53
 631              	.L64:
 327:Drivers/STM32F7xx_HAL_Driver/Src/stm32f7xx_ll_usb.c **** 
 632              		.loc 1 327 0
 633 010a 3369     		ldr	r3, [r6, #16]
 634              	.LVL57:
 635 010c 23F48073 		bic	r3, r3, #256
 636 0110 3361     		str	r3, [r6, #16]
 329:Drivers/STM32F7xx_HAL_Driver/Src/stm32f7xx_ll_usb.c ****   {
 637              		.loc 1 329 0
 638 0112 0A9B     		ldr	r3, [sp, #40]
 639 0114 012B     		cmp	r3, #1
 640 0116 1AD0     		beq	.L66
 641              	.L55:
 339:Drivers/STM32F7xx_HAL_Driver/Src/stm32f7xx_ll_usb.c **** 
 642              		.loc 1 339 0
 643 0118 0022     		movs	r2, #0
 644 011a AA61     		str	r2, [r5, #24]
 342:Drivers/STM32F7xx_HAL_Driver/Src/stm32f7xx_ll_usb.c **** 
 645              		.loc 1 342 0
 646 011c 6FF08042 		mvn	r2, #1073741824
 647 0120 6A61     		str	r2, [r5, #20]
 345:Drivers/STM32F7xx_HAL_Driver/Src/stm32f7xx_ll_usb.c ****   {
 648              		.loc 1 345 0
 649 0122 1BB9     		cbnz	r3, .L56
 347:Drivers/STM32F7xx_HAL_Driver/Src/stm32f7xx_ll_usb.c ****   }
ARM GAS  C:\Users\Student\AppData\Local\Temp\ccty2SRd.s 			page 34


 650              		.loc 1 347 0
 651 0124 AB69     		ldr	r3, [r5, #24]
 652 0126 43F01003 		orr	r3, r3, #16
 653 012a AB61     		str	r3, [r5, #24]
 654              	.L56:
 351:Drivers/STM32F7xx_HAL_Driver/Src/stm32f7xx_ll_usb.c ****                     USB_OTG_GINTMSK_ENUMDNEM | USB_OTG_GINTMSK_IEPINT |\
 655              		.loc 1 351 0
 656 012c AA69     		ldr	r2, [r5, #24]
 657 012e 0E4B     		ldr	r3, .L68
 658 0130 1343     		orrs	r3, r3, r2
 659 0132 AB61     		str	r3, [r5, #24]
 356:Drivers/STM32F7xx_HAL_Driver/Src/stm32f7xx_ll_usb.c ****   {
 660              		.loc 1 356 0
 661 0134 0D9B     		ldr	r3, [sp, #52]
 662 0136 1BB1     		cbz	r3, .L57
 358:Drivers/STM32F7xx_HAL_Driver/Src/stm32f7xx_ll_usb.c ****   }
 663              		.loc 1 358 0
 664 0138 AB69     		ldr	r3, [r5, #24]
 665 013a 43F00803 		orr	r3, r3, #8
 666 013e AB61     		str	r3, [r5, #24]
 667              	.L57:
 361:Drivers/STM32F7xx_HAL_Driver/Src/stm32f7xx_ll_usb.c ****   {
 668              		.loc 1 361 0
 669 0140 012F     		cmp	r7, #1
 670 0142 0CD0     		beq	.L67
 671              	.L58:
 367:Drivers/STM32F7xx_HAL_Driver/Src/stm32f7xx_ll_usb.c **** 
 672              		.loc 1 367 0
 673 0144 0020     		movs	r0, #0
 674 0146 BDE8F840 		pop	{r3, r4, r5, r6, r7, lr}
 675              	.LCFI8:
 676              		.cfi_remember_state
 677              		.cfi_restore 14
 678              		.cfi_restore 7
 679              		.cfi_restore 6
 680              		.cfi_restore 5
 681              		.cfi_restore 4
 682              		.cfi_restore 3
 683              		.cfi_def_cfa_offset 16
 684              	.LVL58:
 685 014a 04B0     		add	sp, sp, #16
 686              	.LCFI9:
 687              		.cfi_def_cfa_offset 0
 688 014c 7047     		bx	lr
 689              	.LVL59:
 690              	.L66:
 691              	.LCFI10:
 692              		.cfi_restore_state
 332:Drivers/STM32F7xx_HAL_Driver/Src/stm32f7xx_ll_usb.c ****     USBx_DEVICE->DTHRCTL |= (USB_OTG_DTHRCTL_RXTHREN | USB_OTG_DTHRCTL_ISOTHREN | USB_OTG_DTHRCTL_N
 693              		.loc 1 332 0
 694 014e 074A     		ldr	r2, .L68+4
 695 0150 3263     		str	r2, [r6, #48]
 333:Drivers/STM32F7xx_HAL_Driver/Src/stm32f7xx_ll_usb.c **** 
 696              		.loc 1 333 0
 697 0152 316B     		ldr	r1, [r6, #48]
 698 0154 064A     		ldr	r2, .L68+8
 699 0156 0A43     		orrs	r2, r2, r1
ARM GAS  C:\Users\Student\AppData\Local\Temp\ccty2SRd.s 			page 35


 700 0158 3263     		str	r2, [r6, #48]
 335:Drivers/STM32F7xx_HAL_Driver/Src/stm32f7xx_ll_usb.c ****   }
 701              		.loc 1 335 0
 702 015a 326B     		ldr	r2, [r6, #48]
 703 015c DCE7     		b	.L55
 704              	.L67:
 363:Drivers/STM32F7xx_HAL_Driver/Src/stm32f7xx_ll_usb.c ****   }
 705              		.loc 1 363 0
 706 015e AA69     		ldr	r2, [r5, #24]
 707 0160 044B     		ldr	r3, .L68+12
 708 0162 1343     		orrs	r3, r3, r2
 709 0164 AB61     		str	r3, [r5, #24]
 710 0166 EDE7     		b	.L58
 711              	.L69:
 712              		.align	2
 713              	.L68:
 714 0168 00383C80 		.word	-2143537152
 715 016c 00018000 		.word	8388864
 716 0170 03000100 		.word	65539
 717 0174 04000040 		.word	1073741828
 718              		.cfi_endproc
 719              	.LFE140:
 721              		.section	.text.USB_GetDevSpeed,"ax",%progbits
 722              		.align	1
 723              		.global	USB_GetDevSpeed
 724              		.syntax unified
 725              		.thumb
 726              		.thumb_func
 727              		.fpu fpv5-sp-d16
 729              	USB_GetDevSpeed:
 730              	.LFB144:
 448:Drivers/STM32F7xx_HAL_Driver/Src/stm32f7xx_ll_usb.c ****   uint8_t speed = 0;
 731              		.loc 1 448 0
 732              		.cfi_startproc
 733              		@ args = 0, pretend = 0, frame = 0
 734              		@ frame_needed = 0, uses_anonymous_args = 0
 735              		@ link register save eliminated.
 736              	.LVL60:
 451:Drivers/STM32F7xx_HAL_Driver/Src/stm32f7xx_ll_usb.c ****   {
 737              		.loc 1 451 0
 738 0000 D0F80838 		ldr	r3, [r0, #2056]
 739 0004 00F50060 		add	r0, r0, #2048
 740              	.LVL61:
 741 0008 13F0060F 		tst	r3, #6
 742 000c 10D0     		beq	.L72
 455:Drivers/STM32F7xx_HAL_Driver/Src/stm32f7xx_ll_usb.c ****            ((USBx_DEVICE->DSTS & USB_OTG_DSTS_ENUMSPD) == DSTS_ENUMSPD_FS_PHY_48MHZ))
 743              		.loc 1 455 0
 744 000e 8368     		ldr	r3, [r0, #8]
 745 0010 03F00603 		and	r3, r3, #6
 746 0014 022B     		cmp	r3, #2
 747 0016 0DD0     		beq	.L73
 456:Drivers/STM32F7xx_HAL_Driver/Src/stm32f7xx_ll_usb.c ****   {
 748              		.loc 1 456 0 discriminator 1
 749 0018 8368     		ldr	r3, [r0, #8]
 750 001a 03F00603 		and	r3, r3, #6
 455:Drivers/STM32F7xx_HAL_Driver/Src/stm32f7xx_ll_usb.c ****            ((USBx_DEVICE->DSTS & USB_OTG_DSTS_ENUMSPD) == DSTS_ENUMSPD_FS_PHY_48MHZ))
 751              		.loc 1 455 0 discriminator 1
ARM GAS  C:\Users\Student\AppData\Local\Temp\ccty2SRd.s 			page 36


 752 001e 062B     		cmp	r3, #6
 753 0020 0AD0     		beq	.L74
 460:Drivers/STM32F7xx_HAL_Driver/Src/stm32f7xx_ll_usb.c ****   {
 754              		.loc 1 460 0
 755 0022 8368     		ldr	r3, [r0, #8]
 756 0024 03F00603 		and	r3, r3, #6
 757 0028 042B     		cmp	r3, #4
 758 002a 07D0     		beq	.L75
 449:Drivers/STM32F7xx_HAL_Driver/Src/stm32f7xx_ll_usb.c **** 
 759              		.loc 1 449 0
 760 002c 0020     		movs	r0, #0
 761              	.LVL62:
 762 002e 7047     		bx	lr
 763              	.L72:
 453:Drivers/STM32F7xx_HAL_Driver/Src/stm32f7xx_ll_usb.c ****   }
 764              		.loc 1 453 0
 765 0030 0020     		movs	r0, #0
 766 0032 7047     		bx	lr
 767              	.L73:
 458:Drivers/STM32F7xx_HAL_Driver/Src/stm32f7xx_ll_usb.c ****   }
 768              		.loc 1 458 0
 769 0034 0320     		movs	r0, #3
 770 0036 7047     		bx	lr
 771              	.L74:
 772 0038 0320     		movs	r0, #3
 773 003a 7047     		bx	lr
 774              	.L75:
 462:Drivers/STM32F7xx_HAL_Driver/Src/stm32f7xx_ll_usb.c ****   }
 775              		.loc 1 462 0
 776 003c 0220     		movs	r0, #2
 777              	.LVL63:
 466:Drivers/STM32F7xx_HAL_Driver/Src/stm32f7xx_ll_usb.c **** 
 778              		.loc 1 466 0
 779 003e 7047     		bx	lr
 780              		.cfi_endproc
 781              	.LFE144:
 783              		.section	.text.USB_ActivateEndpoint,"ax",%progbits
 784              		.align	1
 785              		.global	USB_ActivateEndpoint
 786              		.syntax unified
 787              		.thumb
 788              		.thumb_func
 789              		.fpu fpv5-sp-d16
 791              	USB_ActivateEndpoint:
 792              	.LFB145:
 475:Drivers/STM32F7xx_HAL_Driver/Src/stm32f7xx_ll_usb.c ****   if (ep->is_in == 1)
 793              		.loc 1 475 0
 794              		.cfi_startproc
 795              		@ args = 0, pretend = 0, frame = 0
 796              		@ frame_needed = 0, uses_anonymous_args = 0
 797              		@ link register save eliminated.
 798              	.LVL64:
 799 0000 30B4     		push	{r4, r5}
 800              	.LCFI11:
 801              		.cfi_def_cfa_offset 8
 802              		.cfi_offset 4, -8
 803              		.cfi_offset 5, -4
ARM GAS  C:\Users\Student\AppData\Local\Temp\ccty2SRd.s 			page 37


 476:Drivers/STM32F7xx_HAL_Driver/Src/stm32f7xx_ll_usb.c ****   {
 804              		.loc 1 476 0
 805 0002 4B78     		ldrb	r3, [r1, #1]	@ zero_extendqisi2
 806 0004 012B     		cmp	r3, #1
 807 0006 20D0     		beq	.L80
 489:Drivers/STM32F7xx_HAL_Driver/Src/stm32f7xx_ll_usb.c **** 
 808              		.loc 1 489 0
 809 0008 D0F81C38 		ldr	r3, [r0, #2076]
 810 000c 0D78     		ldrb	r5, [r1]	@ zero_extendqisi2
 811 000e 0122     		movs	r2, #1
 812 0010 AA40     		lsls	r2, r2, r5
 813 0012 43EA0243 		orr	r3, r3, r2, lsl #16
 814 0016 C0F81C38 		str	r3, [r0, #2076]
 491:Drivers/STM32F7xx_HAL_Driver/Src/stm32f7xx_ll_usb.c ****     {
 815              		.loc 1 491 0
 816 001a 0B78     		ldrb	r3, [r1]	@ zero_extendqisi2
 817 001c 00EB4310 		add	r0, r0, r3, lsl #5
 818              	.LVL65:
 819 0020 D0F8003B 		ldr	r3, [r0, #2816]
 820 0024 13F4004F 		tst	r3, #32768
 821 0028 0CD1     		bne	.L78
 493:Drivers/STM32F7xx_HAL_Driver/Src/stm32f7xx_ll_usb.c ****        (USB_OTG_DIEPCTL_SD0PID_SEVNFRM)| (USB_OTG_DOEPCTL_USBAEP));
 822              		.loc 1 493 0
 823 002a D0F8002B 		ldr	r2, [r0, #2816]
 824 002e 8B68     		ldr	r3, [r1, #8]
 825 0030 C3F30A03 		ubfx	r3, r3, #0, #11
 826 0034 C978     		ldrb	r1, [r1, #3]	@ zero_extendqisi2
 827              	.LVL66:
 828 0036 43EA8143 		orr	r3, r3, r1, lsl #18
 829 003a 1343     		orrs	r3, r3, r2
 830 003c 134A     		ldr	r2, .L81
 831 003e 1A43     		orrs	r2, r2, r3
 832 0040 C0F8002B 		str	r2, [r0, #2816]
 833              	.L78:
 498:Drivers/STM32F7xx_HAL_Driver/Src/stm32f7xx_ll_usb.c **** /**
 834              		.loc 1 498 0
 835 0044 0020     		movs	r0, #0
 836 0046 30BC     		pop	{r4, r5}
 837              	.LCFI12:
 838              		.cfi_remember_state
 839              		.cfi_restore 5
 840              		.cfi_restore 4
 841              		.cfi_def_cfa_offset 0
 842 0048 7047     		bx	lr
 843              	.LVL67:
 844              	.L80:
 845              	.LCFI13:
 846              		.cfi_restore_state
 478:Drivers/STM32F7xx_HAL_Driver/Src/stm32f7xx_ll_usb.c **** 
 847              		.loc 1 478 0
 848 004a D0F81C28 		ldr	r2, [r0, #2076]
 849 004e 0D78     		ldrb	r5, [r1]	@ zero_extendqisi2
 850 0050 AB40     		lsls	r3, r3, r5
 851 0052 9BB2     		uxth	r3, r3
 852 0054 1343     		orrs	r3, r3, r2
 853 0056 C0F81C38 		str	r3, [r0, #2076]
 480:Drivers/STM32F7xx_HAL_Driver/Src/stm32f7xx_ll_usb.c ****     {
ARM GAS  C:\Users\Student\AppData\Local\Temp\ccty2SRd.s 			page 38


 854              		.loc 1 480 0
 855 005a 0A78     		ldrb	r2, [r1]	@ zero_extendqisi2
 856 005c 00EB4210 		add	r0, r0, r2, lsl #5
 857              	.LVL68:
 858 0060 D0F80039 		ldr	r3, [r0, #2304]
 859 0064 13F4004F 		tst	r3, #32768
 860 0068 ECD1     		bne	.L78
 482:Drivers/STM32F7xx_HAL_Driver/Src/stm32f7xx_ll_usb.c ****         ((ep->num) << 22 ) | (USB_OTG_DIEPCTL_SD0PID_SEVNFRM) | (USB_OTG_DIEPCTL_USBAEP));
 861              		.loc 1 482 0
 862 006a D0F80049 		ldr	r4, [r0, #2304]
 863 006e 8B68     		ldr	r3, [r1, #8]
 864 0070 C3F30A03 		ubfx	r3, r3, #0, #11
 865 0074 C978     		ldrb	r1, [r1, #3]	@ zero_extendqisi2
 866              	.LVL69:
 867 0076 43EA8143 		orr	r3, r3, r1, lsl #18
 868 007a 43EA8253 		orr	r3, r3, r2, lsl #22
 869 007e 2343     		orrs	r3, r3, r4
 870 0080 024A     		ldr	r2, .L81
 871 0082 1A43     		orrs	r2, r2, r3
 872 0084 C0F80029 		str	r2, [r0, #2304]
 873 0088 DCE7     		b	.L78
 874              	.L82:
 875 008a 00BF     		.align	2
 876              	.L81:
 877 008c 00800010 		.word	268468224
 878              		.cfi_endproc
 879              	.LFE145:
 881              		.section	.text.USB_ActivateDedicatedEndpoint,"ax",%progbits
 882              		.align	1
 883              		.global	USB_ActivateDedicatedEndpoint
 884              		.syntax unified
 885              		.thumb
 886              		.thumb_func
 887              		.fpu fpv5-sp-d16
 889              	USB_ActivateDedicatedEndpoint:
 890              	.LFB146:
 506:Drivers/STM32F7xx_HAL_Driver/Src/stm32f7xx_ll_usb.c ****   static __IO uint32_t debug = 0;
 891              		.loc 1 506 0
 892              		.cfi_startproc
 893              		@ args = 0, pretend = 0, frame = 0
 894              		@ frame_needed = 0, uses_anonymous_args = 0
 895              		@ link register save eliminated.
 896              	.LVL70:
 897 0000 70B4     		push	{r4, r5, r6}
 898              	.LCFI14:
 899              		.cfi_def_cfa_offset 12
 900              		.cfi_offset 4, -12
 901              		.cfi_offset 5, -8
 902              		.cfi_offset 6, -4
 510:Drivers/STM32F7xx_HAL_Driver/Src/stm32f7xx_ll_usb.c ****   {
 903              		.loc 1 510 0
 904 0002 4B78     		ldrb	r3, [r1, #1]	@ zero_extendqisi2
 905 0004 012B     		cmp	r3, #1
 906 0006 39D0     		beq	.L89
 526:Drivers/STM32F7xx_HAL_Driver/Src/stm32f7xx_ll_usb.c ****     {
 907              		.loc 1 526 0
 908 0008 0D78     		ldrb	r5, [r1]	@ zero_extendqisi2
ARM GAS  C:\Users\Student\AppData\Local\Temp\ccty2SRd.s 			page 39


 909 000a 00EB4512 		add	r2, r0, r5, lsl #5
 910 000e D2F8003B 		ldr	r3, [r2, #2816]
 911 0012 13F4004F 		tst	r3, #32768
 912 0016 25D1     		bne	.L87
 528:Drivers/STM32F7xx_HAL_Driver/Src/stm32f7xx_ll_usb.c ****         ((ep->num) << 22 ) | (USB_OTG_DOEPCTL_USBAEP));
 913              		.loc 1 528 0
 914 0018 D2F8004B 		ldr	r4, [r2, #2816]
 915 001c 8B68     		ldr	r3, [r1, #8]
 916 001e C3F30A03 		ubfx	r3, r3, #0, #11
 917 0022 CE78     		ldrb	r6, [r1, #3]	@ zero_extendqisi2
 918 0024 43EA8643 		orr	r3, r3, r6, lsl #18
 919 0028 43EA8553 		orr	r3, r3, r5, lsl #22
 920 002c 2343     		orrs	r3, r3, r4
 921 002e 43F40043 		orr	r3, r3, #32768
 922 0032 C2F8003B 		str	r3, [r2, #2816]
 531:Drivers/STM32F7xx_HAL_Driver/Src/stm32f7xx_ll_usb.c ****       debug = (uint32_t )&USBx_OUTEP(ep->num)->DOEPCTL;
 923              		.loc 1 531 0
 924 0036 00F53063 		add	r3, r0, #2816
 925 003a 284A     		ldr	r2, .L90
 926 003c 1360     		str	r3, [r2]
 532:Drivers/STM32F7xx_HAL_Driver/Src/stm32f7xx_ll_usb.c ****       debug |= ((ep->maxpacket & USB_OTG_DOEPCTL_MPSIZ ) | (ep->type << 18 ) |\
 927              		.loc 1 532 0
 928 003e 0D78     		ldrb	r5, [r1]	@ zero_extendqisi2
 929 0040 00EB4514 		add	r4, r0, r5, lsl #5
 930 0044 04F53064 		add	r4, r4, #2816
 931 0048 1460     		str	r4, [r2]
 533:Drivers/STM32F7xx_HAL_Driver/Src/stm32f7xx_ll_usb.c ****         ((ep->num) << 22 ) | (USB_OTG_DOEPCTL_USBAEP));
 932              		.loc 1 533 0
 933 004a 8B68     		ldr	r3, [r1, #8]
 934 004c C3F30A03 		ubfx	r3, r3, #0, #11
 935 0050 CC78     		ldrb	r4, [r1, #3]	@ zero_extendqisi2
 936 0052 43EA8443 		orr	r3, r3, r4, lsl #18
 937 0056 43EA8553 		orr	r3, r3, r5, lsl #22
 938 005a 1468     		ldr	r4, [r2]
 939 005c 2343     		orrs	r3, r3, r4
 940 005e 43F40043 		orr	r3, r3, #32768
 941 0062 1360     		str	r3, [r2]
 942              	.L87:
 537:Drivers/STM32F7xx_HAL_Driver/Src/stm32f7xx_ll_usb.c ****   }
 943              		.loc 1 537 0
 944 0064 D0F83C38 		ldr	r3, [r0, #2108]
 945 0068 0978     		ldrb	r1, [r1]	@ zero_extendqisi2
 946              	.LVL71:
 947 006a 0122     		movs	r2, #1
 948 006c 8A40     		lsls	r2, r2, r1
 949 006e 43EA0243 		orr	r3, r3, r2, lsl #16
 950 0072 C0F83C38 		str	r3, [r0, #2108]
 951              	.L86:
 541:Drivers/STM32F7xx_HAL_Driver/Src/stm32f7xx_ll_usb.c **** /**
 952              		.loc 1 541 0
 953 0076 0020     		movs	r0, #0
 954              	.LVL72:
 955 0078 70BC     		pop	{r4, r5, r6}
 956              	.LCFI15:
 957              		.cfi_remember_state
 958              		.cfi_restore 6
 959              		.cfi_restore 5
ARM GAS  C:\Users\Student\AppData\Local\Temp\ccty2SRd.s 			page 40


 960              		.cfi_restore 4
 961              		.cfi_def_cfa_offset 0
 962 007a 7047     		bx	lr
 963              	.LVL73:
 964              	.L89:
 965              	.LCFI16:
 966              		.cfi_restore_state
 512:Drivers/STM32F7xx_HAL_Driver/Src/stm32f7xx_ll_usb.c ****     {
 967              		.loc 1 512 0
 968 007c 0C78     		ldrb	r4, [r1]	@ zero_extendqisi2
 969 007e 00EB4412 		add	r2, r0, r4, lsl #5
 970 0082 D2F80039 		ldr	r3, [r2, #2304]
 971 0086 13F4004F 		tst	r3, #32768
 972 008a 0ED1     		bne	.L85
 514:Drivers/STM32F7xx_HAL_Driver/Src/stm32f7xx_ll_usb.c ****         ((ep->num) << 22 ) | (USB_OTG_DIEPCTL_SD0PID_SEVNFRM) | (USB_OTG_DIEPCTL_USBAEP));
 973              		.loc 1 514 0
 974 008c D2F80059 		ldr	r5, [r2, #2304]
 975 0090 8B68     		ldr	r3, [r1, #8]
 976 0092 C3F30A03 		ubfx	r3, r3, #0, #11
 977 0096 CE78     		ldrb	r6, [r1, #3]	@ zero_extendqisi2
 978 0098 43EA8643 		orr	r3, r3, r6, lsl #18
 979 009c 43EA8453 		orr	r3, r3, r4, lsl #22
 980 00a0 2B43     		orrs	r3, r3, r5
 981 00a2 0F4C     		ldr	r4, .L90+4
 982 00a4 1C43     		orrs	r4, r4, r3
 983 00a6 C2F80049 		str	r4, [r2, #2304]
 984              	.L85:
 519:Drivers/STM32F7xx_HAL_Driver/Src/stm32f7xx_ll_usb.c ****         ((ep->num) << 22 ) | (USB_OTG_DIEPCTL_SD0PID_SEVNFRM) | (USB_OTG_DIEPCTL_USBAEP));
 985              		.loc 1 519 0
 986 00aa 8B68     		ldr	r3, [r1, #8]
 987 00ac C3F30A03 		ubfx	r3, r3, #0, #11
 988 00b0 CA78     		ldrb	r2, [r1, #3]	@ zero_extendqisi2
 989 00b2 43EA8243 		orr	r3, r3, r2, lsl #18
 520:Drivers/STM32F7xx_HAL_Driver/Src/stm32f7xx_ll_usb.c **** 
 990              		.loc 1 520 0
 991 00b6 0978     		ldrb	r1, [r1]	@ zero_extendqisi2
 992              	.LVL74:
 519:Drivers/STM32F7xx_HAL_Driver/Src/stm32f7xx_ll_usb.c ****         ((ep->num) << 22 ) | (USB_OTG_DIEPCTL_SD0PID_SEVNFRM) | (USB_OTG_DIEPCTL_USBAEP));
 993              		.loc 1 519 0
 994 00b8 43EA8153 		orr	r3, r3, r1, lsl #22
 995 00bc 074C     		ldr	r4, .L90
 996 00be 2268     		ldr	r2, [r4]
 997 00c0 1343     		orrs	r3, r3, r2
 998 00c2 074A     		ldr	r2, .L90+4
 999 00c4 1A43     		orrs	r2, r2, r3
 1000 00c6 2260     		str	r2, [r4]
 522:Drivers/STM32F7xx_HAL_Driver/Src/stm32f7xx_ll_usb.c ****   }
 1001              		.loc 1 522 0
 1002 00c8 D0F83C28 		ldr	r2, [r0, #2108]
 1003 00cc 0123     		movs	r3, #1
 1004 00ce 8B40     		lsls	r3, r3, r1
 1005 00d0 9BB2     		uxth	r3, r3
 1006 00d2 1343     		orrs	r3, r3, r2
 1007 00d4 C0F83C38 		str	r3, [r0, #2108]
 1008 00d8 CDE7     		b	.L86
 1009              	.L91:
 1010 00da 00BF     		.align	2
ARM GAS  C:\Users\Student\AppData\Local\Temp\ccty2SRd.s 			page 41


 1011              	.L90:
 1012 00dc 00000000 		.word	.LANCHOR0
 1013 00e0 00800010 		.word	268468224
 1014              		.cfi_endproc
 1015              	.LFE146:
 1017              		.section	.text.USB_DeactivateEndpoint,"ax",%progbits
 1018              		.align	1
 1019              		.global	USB_DeactivateEndpoint
 1020              		.syntax unified
 1021              		.thumb
 1022              		.thumb_func
 1023              		.fpu fpv5-sp-d16
 1025              	USB_DeactivateEndpoint:
 1026              	.LFB147:
 549:Drivers/STM32F7xx_HAL_Driver/Src/stm32f7xx_ll_usb.c ****   /* Read DEPCTLn register */
 1027              		.loc 1 549 0
 1028              		.cfi_startproc
 1029              		@ args = 0, pretend = 0, frame = 0
 1030              		@ frame_needed = 0, uses_anonymous_args = 0
 1031              		@ link register save eliminated.
 1032              	.LVL75:
 1033 0000 30B4     		push	{r4, r5}
 1034              	.LCFI17:
 1035              		.cfi_def_cfa_offset 8
 1036              		.cfi_offset 4, -8
 1037              		.cfi_offset 5, -4
 551:Drivers/STM32F7xx_HAL_Driver/Src/stm32f7xx_ll_usb.c ****   {
 1038              		.loc 1 551 0
 1039 0002 4B78     		ldrb	r3, [r1, #1]	@ zero_extendqisi2
 1040 0004 012B     		cmp	r3, #1
 1041 0006 1DD0     		beq	.L96
 559:Drivers/STM32F7xx_HAL_Driver/Src/stm32f7xx_ll_usb.c ****      USBx_DEVICE->DAINTMSK &= ~(USB_OTG_DAINTMSK_OEPM & ((1 << (ep->num)) << 16));
 1042              		.loc 1 559 0
 1043 0008 D0F83C48 		ldr	r4, [r0, #2108]
 1044 000c 0D78     		ldrb	r5, [r1]	@ zero_extendqisi2
 1045 000e 0122     		movs	r2, #1
 1046 0010 02FA05F5 		lsl	r5, r2, r5
 1047 0014 24EA0544 		bic	r4, r4, r5, lsl #16
 1048 0018 C0F83C48 		str	r4, [r0, #2108]
 560:Drivers/STM32F7xx_HAL_Driver/Src/stm32f7xx_ll_usb.c ****      USBx_OUTEP(ep->num)->DOEPCTL &= ~USB_OTG_DOEPCTL_USBAEP;
 1049              		.loc 1 560 0
 1050 001c D0F81C48 		ldr	r4, [r0, #2076]
 1051 0020 0D78     		ldrb	r5, [r1]	@ zero_extendqisi2
 1052 0022 AA40     		lsls	r2, r2, r5
 1053 0024 24EA0242 		bic	r2, r4, r2, lsl #16
 1054 0028 C0F81C28 		str	r2, [r0, #2076]
 561:Drivers/STM32F7xx_HAL_Driver/Src/stm32f7xx_ll_usb.c ****   }
 1055              		.loc 1 561 0
 1056 002c 0B78     		ldrb	r3, [r1]	@ zero_extendqisi2
 1057 002e 00EB4310 		add	r0, r0, r3, lsl #5
 1058              	.LVL76:
 1059 0032 D0F8003B 		ldr	r3, [r0, #2816]
 1060 0036 23F40043 		bic	r3, r3, #32768
 1061 003a C0F8003B 		str	r3, [r0, #2816]
 1062              	.L94:
 564:Drivers/STM32F7xx_HAL_Driver/Src/stm32f7xx_ll_usb.c **** 
 1063              		.loc 1 564 0
ARM GAS  C:\Users\Student\AppData\Local\Temp\ccty2SRd.s 			page 42


 1064 003e 0020     		movs	r0, #0
 1065 0040 30BC     		pop	{r4, r5}
 1066              	.LCFI18:
 1067              		.cfi_remember_state
 1068              		.cfi_restore 5
 1069              		.cfi_restore 4
 1070              		.cfi_def_cfa_offset 0
 1071 0042 7047     		bx	lr
 1072              	.LVL77:
 1073              	.L96:
 1074              	.LCFI19:
 1075              		.cfi_restore_state
 553:Drivers/STM32F7xx_HAL_Driver/Src/stm32f7xx_ll_usb.c ****    USBx_DEVICE->DAINTMSK &= ~(USB_OTG_DAINTMSK_IEPM & ((1 << (ep->num))));
 1076              		.loc 1 553 0
 1077 0044 D0F83C58 		ldr	r5, [r0, #2108]
 1078 0048 0A78     		ldrb	r2, [r1]	@ zero_extendqisi2
 1079 004a 03FA02F2 		lsl	r2, r3, r2
 1080 004e 92B2     		uxth	r2, r2
 1081 0050 25EA0202 		bic	r2, r5, r2
 1082 0054 C0F83C28 		str	r2, [r0, #2108]
 554:Drivers/STM32F7xx_HAL_Driver/Src/stm32f7xx_ll_usb.c ****    USBx_INEP(ep->num)->DIEPCTL &= ~ USB_OTG_DIEPCTL_USBAEP;
 1083              		.loc 1 554 0
 1084 0058 D0F81C28 		ldr	r2, [r0, #2076]
 1085 005c 0D78     		ldrb	r5, [r1]	@ zero_extendqisi2
 1086 005e AB40     		lsls	r3, r3, r5
 1087 0060 9BB2     		uxth	r3, r3
 1088 0062 22EA0303 		bic	r3, r2, r3
 1089 0066 C0F81C38 		str	r3, [r0, #2076]
 555:Drivers/STM32F7xx_HAL_Driver/Src/stm32f7xx_ll_usb.c ****   }
 1090              		.loc 1 555 0
 1091 006a 0B78     		ldrb	r3, [r1]	@ zero_extendqisi2
 1092 006c 00EB4310 		add	r0, r0, r3, lsl #5
 1093              	.LVL78:
 1094 0070 D0F80039 		ldr	r3, [r0, #2304]
 1095 0074 23F40043 		bic	r3, r3, #32768
 1096 0078 C0F80039 		str	r3, [r0, #2304]
 1097 007c DFE7     		b	.L94
 1098              		.cfi_endproc
 1099              	.LFE147:
 1101              		.section	.text.USB_DeactivateDedicatedEndpoint,"ax",%progbits
 1102              		.align	1
 1103              		.global	USB_DeactivateDedicatedEndpoint
 1104              		.syntax unified
 1105              		.thumb
 1106              		.thumb_func
 1107              		.fpu fpv5-sp-d16
 1109              	USB_DeactivateDedicatedEndpoint:
 1110              	.LFB148:
 573:Drivers/STM32F7xx_HAL_Driver/Src/stm32f7xx_ll_usb.c ****   /* Read DEPCTLn register */
 1111              		.loc 1 573 0
 1112              		.cfi_startproc
 1113              		@ args = 0, pretend = 0, frame = 0
 1114              		@ frame_needed = 0, uses_anonymous_args = 0
 1115              		@ link register save eliminated.
 1116              	.LVL79:
 575:Drivers/STM32F7xx_HAL_Driver/Src/stm32f7xx_ll_usb.c ****   {
 1117              		.loc 1 575 0
ARM GAS  C:\Users\Student\AppData\Local\Temp\ccty2SRd.s 			page 43


 1118 0000 4B78     		ldrb	r3, [r1, #1]	@ zero_extendqisi2
 1119 0002 012B     		cmp	r3, #1
 1120 0004 13D0     		beq	.L100
 582:Drivers/STM32F7xx_HAL_Driver/Src/stm32f7xx_ll_usb.c ****      USBx_DEVICE->DAINTMSK &= ~(USB_OTG_DAINTMSK_OEPM & ((1 << (ep->num)) << 16));
 1121              		.loc 1 582 0
 1122 0006 0B78     		ldrb	r3, [r1]	@ zero_extendqisi2
 1123 0008 00EB4313 		add	r3, r0, r3, lsl #5
 1124 000c D3F8002B 		ldr	r2, [r3, #2816]
 1125 0010 22F40042 		bic	r2, r2, #32768
 1126 0014 C3F8002B 		str	r2, [r3, #2816]
 583:Drivers/STM32F7xx_HAL_Driver/Src/stm32f7xx_ll_usb.c ****   }
 1127              		.loc 1 583 0
 1128 0018 D0F81C38 		ldr	r3, [r0, #2076]
 1129 001c 0978     		ldrb	r1, [r1]	@ zero_extendqisi2
 1130              	.LVL80:
 1131 001e 0122     		movs	r2, #1
 1132 0020 8A40     		lsls	r2, r2, r1
 1133 0022 23EA0243 		bic	r3, r3, r2, lsl #16
 1134 0026 C0F81C38 		str	r3, [r0, #2076]
 1135              	.L99:
 586:Drivers/STM32F7xx_HAL_Driver/Src/stm32f7xx_ll_usb.c **** 
 1136              		.loc 1 586 0
 1137 002a 0020     		movs	r0, #0
 1138              	.LVL81:
 1139 002c 7047     		bx	lr
 1140              	.LVL82:
 1141              	.L100:
 577:Drivers/STM32F7xx_HAL_Driver/Src/stm32f7xx_ll_usb.c ****    USBx_DEVICE->DAINTMSK &= ~(USB_OTG_DAINTMSK_IEPM & ((1 << (ep->num))));
 1142              		.loc 1 577 0
 1143 002e 0B78     		ldrb	r3, [r1]	@ zero_extendqisi2
 1144 0030 00EB4313 		add	r3, r0, r3, lsl #5
 1145 0034 D3F80029 		ldr	r2, [r3, #2304]
 1146 0038 22F40042 		bic	r2, r2, #32768
 1147 003c C3F80029 		str	r2, [r3, #2304]
 578:Drivers/STM32F7xx_HAL_Driver/Src/stm32f7xx_ll_usb.c ****   }
 1148              		.loc 1 578 0
 1149 0040 D0F81C28 		ldr	r2, [r0, #2076]
 1150 0044 0978     		ldrb	r1, [r1]	@ zero_extendqisi2
 1151              	.LVL83:
 1152 0046 0123     		movs	r3, #1
 1153 0048 8B40     		lsls	r3, r3, r1
 1154 004a 9BB2     		uxth	r3, r3
 1155 004c 22EA0303 		bic	r3, r2, r3
 1156 0050 C0F81C38 		str	r3, [r0, #2076]
 1157 0054 E9E7     		b	.L99
 1158              		.cfi_endproc
 1159              	.LFE148:
 1161              		.section	.text.USB_EP0StartXfer,"ax",%progbits
 1162              		.align	1
 1163              		.global	USB_EP0StartXfer
 1164              		.syntax unified
 1165              		.thumb
 1166              		.thumb_func
 1167              		.fpu fpv5-sp-d16
 1169              	USB_EP0StartXfer:
 1170              	.LFB150:
 721:Drivers/STM32F7xx_HAL_Driver/Src/stm32f7xx_ll_usb.c ****   /* IN endpoint */
ARM GAS  C:\Users\Student\AppData\Local\Temp\ccty2SRd.s 			page 44


 1171              		.loc 1 721 0
 1172              		.cfi_startproc
 1173              		@ args = 0, pretend = 0, frame = 0
 1174              		@ frame_needed = 0, uses_anonymous_args = 0
 1175              		@ link register save eliminated.
 1176              	.LVL84:
 1177 0000 30B4     		push	{r4, r5}
 1178              	.LCFI20:
 1179              		.cfi_def_cfa_offset 8
 1180              		.cfi_offset 4, -8
 1181              		.cfi_offset 5, -4
 723:Drivers/STM32F7xx_HAL_Driver/Src/stm32f7xx_ll_usb.c ****   {
 1182              		.loc 1 723 0
 1183 0002 4B78     		ldrb	r3, [r1, #1]	@ zero_extendqisi2
 1184 0004 012B     		cmp	r3, #1
 1185 0006 37D0     		beq	.L112
 773:Drivers/STM32F7xx_HAL_Driver/Src/stm32f7xx_ll_usb.c ****     USBx_OUTEP(ep->num)->DOEPTSIZ &= ~(USB_OTG_DOEPTSIZ_PKTCNT);
 1186              		.loc 1 773 0
 1187 0008 0B78     		ldrb	r3, [r1]	@ zero_extendqisi2
 1188 000a 00EB4313 		add	r3, r0, r3, lsl #5
 1189 000e D3F8105B 		ldr	r5, [r3, #2832]
 1190 0012 504C     		ldr	r4, .L115
 1191 0014 2C40     		ands	r4, r4, r5
 1192 0016 C3F8104B 		str	r4, [r3, #2832]
 774:Drivers/STM32F7xx_HAL_Driver/Src/stm32f7xx_ll_usb.c **** 
 1193              		.loc 1 774 0
 1194 001a 0B78     		ldrb	r3, [r1]	@ zero_extendqisi2
 1195 001c 00EB4313 		add	r3, r0, r3, lsl #5
 1196 0020 D3F8105B 		ldr	r5, [r3, #2832]
 1197 0024 4C4C     		ldr	r4, .L115+4
 1198 0026 2C40     		ands	r4, r4, r5
 1199 0028 C3F8104B 		str	r4, [r3, #2832]
 776:Drivers/STM32F7xx_HAL_Driver/Src/stm32f7xx_ll_usb.c ****     {
 1200              		.loc 1 776 0
 1201 002c 4B69     		ldr	r3, [r1, #20]
 1202 002e 0BB1     		cbz	r3, .L109
 778:Drivers/STM32F7xx_HAL_Driver/Src/stm32f7xx_ll_usb.c ****     }
 1203              		.loc 1 778 0
 1204 0030 8B68     		ldr	r3, [r1, #8]
 1205 0032 4B61     		str	r3, [r1, #20]
 1206              	.L109:
 781:Drivers/STM32F7xx_HAL_Driver/Src/stm32f7xx_ll_usb.c ****     USBx_OUTEP(ep->num)->DOEPTSIZ |= (USB_OTG_DOEPTSIZ_XFRSIZ & (ep->maxpacket));
 1207              		.loc 1 781 0
 1208 0034 0B78     		ldrb	r3, [r1]	@ zero_extendqisi2
 1209 0036 00EB4313 		add	r3, r0, r3, lsl #5
 1210 003a D3F8104B 		ldr	r4, [r3, #2832]
 1211 003e 44F40024 		orr	r4, r4, #524288
 1212 0042 C3F8104B 		str	r4, [r3, #2832]
 782:Drivers/STM32F7xx_HAL_Driver/Src/stm32f7xx_ll_usb.c **** 
 1213              		.loc 1 782 0
 1214 0046 0B78     		ldrb	r3, [r1]	@ zero_extendqisi2
 1215 0048 00EB4313 		add	r3, r0, r3, lsl #5
 1216 004c D3F8104B 		ldr	r4, [r3, #2832]
 1217 0050 8D68     		ldr	r5, [r1, #8]
 1218 0052 C5F31205 		ubfx	r5, r5, #0, #19
 1219 0056 2C43     		orrs	r4, r4, r5
 1220 0058 C3F8104B 		str	r4, [r3, #2832]
ARM GAS  C:\Users\Student\AppData\Local\Temp\ccty2SRd.s 			page 45


 785:Drivers/STM32F7xx_HAL_Driver/Src/stm32f7xx_ll_usb.c ****     {
 1221              		.loc 1 785 0
 1222 005c 012A     		cmp	r2, #1
 1223 005e 71D0     		beq	.L113
 1224              	.LVL85:
 1225              	.L110:
 791:Drivers/STM32F7xx_HAL_Driver/Src/stm32f7xx_ll_usb.c ****   }
 1226              		.loc 1 791 0
 1227 0060 0B78     		ldrb	r3, [r1]	@ zero_extendqisi2
 1228 0062 00EB4310 		add	r0, r0, r3, lsl #5
 1229              	.LVL86:
 1230 0066 D0F8003B 		ldr	r3, [r0, #2816]
 1231 006a 43F00443 		orr	r3, r3, #-2080374784
 1232 006e C0F8003B 		str	r3, [r0, #2816]
 1233              	.L108:
 794:Drivers/STM32F7xx_HAL_Driver/Src/stm32f7xx_ll_usb.c **** 
 1234              		.loc 1 794 0
 1235 0072 0020     		movs	r0, #0
 1236 0074 30BC     		pop	{r4, r5}
 1237              	.LCFI21:
 1238              		.cfi_remember_state
 1239              		.cfi_restore 5
 1240              		.cfi_restore 4
 1241              		.cfi_def_cfa_offset 0
 1242 0076 7047     		bx	lr
 1243              	.LVL87:
 1244              	.L112:
 1245              	.LCFI22:
 1246              		.cfi_restore_state
 726:Drivers/STM32F7xx_HAL_Driver/Src/stm32f7xx_ll_usb.c ****     {
 1247              		.loc 1 726 0
 1248 0078 4B69     		ldr	r3, [r1, #20]
 1249 007a 83BB     		cbnz	r3, .L103
 728:Drivers/STM32F7xx_HAL_Driver/Src/stm32f7xx_ll_usb.c ****       USBx_INEP(ep->num)->DIEPTSIZ |= (USB_OTG_DIEPTSIZ_PKTCNT & (1 << 19)) ;
 1250              		.loc 1 728 0
 1251 007c 0B78     		ldrb	r3, [r1]	@ zero_extendqisi2
 1252 007e 00EB4313 		add	r3, r0, r3, lsl #5
 1253 0082 D3F81059 		ldr	r5, [r3, #2320]
 1254 0086 344C     		ldr	r4, .L115+4
 1255 0088 2C40     		ands	r4, r4, r5
 1256 008a C3F81049 		str	r4, [r3, #2320]
 729:Drivers/STM32F7xx_HAL_Driver/Src/stm32f7xx_ll_usb.c ****       USBx_INEP(ep->num)->DIEPTSIZ &= ~(USB_OTG_DIEPTSIZ_XFRSIZ);
 1257              		.loc 1 729 0
 1258 008e 0B78     		ldrb	r3, [r1]	@ zero_extendqisi2
 1259 0090 00EB4313 		add	r3, r0, r3, lsl #5
 1260 0094 D3F81049 		ldr	r4, [r3, #2320]
 1261 0098 44F40024 		orr	r4, r4, #524288
 1262 009c C3F81049 		str	r4, [r3, #2320]
 730:Drivers/STM32F7xx_HAL_Driver/Src/stm32f7xx_ll_usb.c ****     }
 1263              		.loc 1 730 0
 1264 00a0 0B78     		ldrb	r3, [r1]	@ zero_extendqisi2
 1265 00a2 00EB4313 		add	r3, r0, r3, lsl #5
 1266 00a6 D3F81059 		ldr	r5, [r3, #2320]
 1267 00aa 2A4C     		ldr	r4, .L115
 1268 00ac 2C40     		ands	r4, r4, r5
 1269 00ae C3F81049 		str	r4, [r3, #2320]
 1270              	.L104:
ARM GAS  C:\Users\Student\AppData\Local\Temp\ccty2SRd.s 			page 46


 751:Drivers/STM32F7xx_HAL_Driver/Src/stm32f7xx_ll_usb.c ****     {
 1271              		.loc 1 751 0
 1272 00b2 012A     		cmp	r2, #1
 1273 00b4 3FD0     		beq	.L114
 758:Drivers/STM32F7xx_HAL_Driver/Src/stm32f7xx_ll_usb.c ****       {
 1274              		.loc 1 758 0
 1275 00b6 4B69     		ldr	r3, [r1, #20]
 1276 00b8 3BB1     		cbz	r3, .L107
 760:Drivers/STM32F7xx_HAL_Driver/Src/stm32f7xx_ll_usb.c ****       }
 1277              		.loc 1 760 0
 1278 00ba D0F83438 		ldr	r3, [r0, #2100]
 1279 00be 0D78     		ldrb	r5, [r1]	@ zero_extendqisi2
 1280 00c0 0122     		movs	r2, #1
 1281              	.LVL88:
 1282 00c2 AA40     		lsls	r2, r2, r5
 1283 00c4 1343     		orrs	r3, r3, r2
 1284 00c6 C0F83438 		str	r3, [r0, #2100]
 1285              	.L107:
 765:Drivers/STM32F7xx_HAL_Driver/Src/stm32f7xx_ll_usb.c ****   }
 1286              		.loc 1 765 0
 1287 00ca 0B78     		ldrb	r3, [r1]	@ zero_extendqisi2
 1288 00cc 00EB4310 		add	r0, r0, r3, lsl #5
 1289              	.LVL89:
 1290 00d0 D0F80039 		ldr	r3, [r0, #2304]
 1291 00d4 43F00443 		orr	r3, r3, #-2080374784
 1292 00d8 C0F80039 		str	r3, [r0, #2304]
 1293 00dc C9E7     		b	.L108
 1294              	.LVL90:
 1295              	.L103:
 739:Drivers/STM32F7xx_HAL_Driver/Src/stm32f7xx_ll_usb.c ****       USBx_INEP(ep->num)->DIEPTSIZ &= ~(USB_OTG_DIEPTSIZ_PKTCNT);
 1296              		.loc 1 739 0
 1297 00de 0B78     		ldrb	r3, [r1]	@ zero_extendqisi2
 1298 00e0 00EB4313 		add	r3, r0, r3, lsl #5
 1299 00e4 D3F81059 		ldr	r5, [r3, #2320]
 1300 00e8 1A4C     		ldr	r4, .L115
 1301 00ea 2C40     		ands	r4, r4, r5
 1302 00ec C3F81049 		str	r4, [r3, #2320]
 740:Drivers/STM32F7xx_HAL_Driver/Src/stm32f7xx_ll_usb.c **** 
 1303              		.loc 1 740 0
 1304 00f0 0B78     		ldrb	r3, [r1]	@ zero_extendqisi2
 1305 00f2 00EB4313 		add	r3, r0, r3, lsl #5
 1306 00f6 D3F81059 		ldr	r5, [r3, #2320]
 1307 00fa 174C     		ldr	r4, .L115+4
 1308 00fc 2C40     		ands	r4, r4, r5
 1309 00fe C3F81049 		str	r4, [r3, #2320]
 742:Drivers/STM32F7xx_HAL_Driver/Src/stm32f7xx_ll_usb.c ****       {
 1310              		.loc 1 742 0
 1311 0102 4C69     		ldr	r4, [r1, #20]
 1312 0104 8B68     		ldr	r3, [r1, #8]
 1313 0106 9C42     		cmp	r4, r3
 1314 0108 00D9     		bls	.L105
 744:Drivers/STM32F7xx_HAL_Driver/Src/stm32f7xx_ll_usb.c ****       }
 1315              		.loc 1 744 0
 1316 010a 4B61     		str	r3, [r1, #20]
 1317              	.L105:
 746:Drivers/STM32F7xx_HAL_Driver/Src/stm32f7xx_ll_usb.c ****       USBx_INEP(ep->num)->DIEPTSIZ |= (USB_OTG_DIEPTSIZ_XFRSIZ & ep->xfer_len);
 1318              		.loc 1 746 0
ARM GAS  C:\Users\Student\AppData\Local\Temp\ccty2SRd.s 			page 47


 1319 010c 0B78     		ldrb	r3, [r1]	@ zero_extendqisi2
 1320 010e 00EB4313 		add	r3, r0, r3, lsl #5
 1321 0112 D3F81049 		ldr	r4, [r3, #2320]
 1322 0116 44F40024 		orr	r4, r4, #524288
 1323 011a C3F81049 		str	r4, [r3, #2320]
 747:Drivers/STM32F7xx_HAL_Driver/Src/stm32f7xx_ll_usb.c **** 
 1324              		.loc 1 747 0
 1325 011e 0B78     		ldrb	r3, [r1]	@ zero_extendqisi2
 1326 0120 00EB4313 		add	r3, r0, r3, lsl #5
 1327 0124 D3F81049 		ldr	r4, [r3, #2320]
 1328 0128 4D69     		ldr	r5, [r1, #20]
 1329 012a C5F31205 		ubfx	r5, r5, #0, #19
 1330 012e 2C43     		orrs	r4, r4, r5
 1331 0130 C3F81049 		str	r4, [r3, #2320]
 1332 0134 BDE7     		b	.L104
 1333              	.L114:
 753:Drivers/STM32F7xx_HAL_Driver/Src/stm32f7xx_ll_usb.c ****     }
 1334              		.loc 1 753 0
 1335 0136 0B78     		ldrb	r3, [r1]	@ zero_extendqisi2
 1336 0138 00EB4313 		add	r3, r0, r3, lsl #5
 1337 013c 0A69     		ldr	r2, [r1, #16]
 1338              	.LVL91:
 1339 013e C3F81429 		str	r2, [r3, #2324]
 1340 0142 C2E7     		b	.L107
 1341              	.LVL92:
 1342              	.L113:
 787:Drivers/STM32F7xx_HAL_Driver/Src/stm32f7xx_ll_usb.c ****     }
 1343              		.loc 1 787 0
 1344 0144 0B78     		ldrb	r3, [r1]	@ zero_extendqisi2
 1345 0146 00EB4313 		add	r3, r0, r3, lsl #5
 1346 014a CA68     		ldr	r2, [r1, #12]
 1347              	.LVL93:
 1348 014c C3F8142B 		str	r2, [r3, #2836]
 1349 0150 86E7     		b	.L110
 1350              	.L116:
 1351 0152 00BF     		.align	2
 1352              	.L115:
 1353 0154 0000F8FF 		.word	-524288
 1354 0158 FFFF07E0 		.word	-536346625
 1355              		.cfi_endproc
 1356              	.LFE150:
 1358              		.section	.text.USB_WritePacket,"ax",%progbits
 1359              		.align	1
 1360              		.global	USB_WritePacket
 1361              		.syntax unified
 1362              		.thumb
 1363              		.thumb_func
 1364              		.fpu fpv5-sp-d16
 1366              	USB_WritePacket:
 1367              	.LFB151:
 810:Drivers/STM32F7xx_HAL_Driver/Src/stm32f7xx_ll_usb.c ****   uint32_t count32b= 0 , i= 0;
 1368              		.loc 1 810 0
 1369              		.cfi_startproc
 1370              		@ args = 4, pretend = 0, frame = 0
 1371              		@ frame_needed = 0, uses_anonymous_args = 0
 1372              		@ link register save eliminated.
 1373              	.LVL94:
ARM GAS  C:\Users\Student\AppData\Local\Temp\ccty2SRd.s 			page 48


 1374 0000 70B4     		push	{r4, r5, r6}
 1375              	.LCFI23:
 1376              		.cfi_def_cfa_offset 12
 1377              		.cfi_offset 4, -12
 1378              		.cfi_offset 5, -8
 1379              		.cfi_offset 6, -4
 1380 0002 9DF80C40 		ldrb	r4, [sp, #12]	@ zero_extendqisi2
 1381              	.LVL95:
 813:Drivers/STM32F7xx_HAL_Driver/Src/stm32f7xx_ll_usb.c ****   {
 1382              		.loc 1 813 0
 1383 0006 64B9     		cbnz	r4, .L118
 815:Drivers/STM32F7xx_HAL_Driver/Src/stm32f7xx_ll_usb.c ****     for (i = 0; i < count32b; i++, src += 4)
 1384              		.loc 1 815 0
 1385 0008 0333     		adds	r3, r3, #3
 1386              	.LVL96:
 1387 000a 9E10     		asrs	r6, r3, #2
 1388              	.LVL97:
 816:Drivers/STM32F7xx_HAL_Driver/Src/stm32f7xx_ll_usb.c ****     {
 1389              		.loc 1 816 0
 1390 000c 07E0     		b	.L120
 1391              	.LVL98:
 1392              	.L121:
 818:Drivers/STM32F7xx_HAL_Driver/Src/stm32f7xx_ll_usb.c ****     }
 1393              		.loc 1 818 0 discriminator 3
 1394 000e 00EB0233 		add	r3, r0, r2, lsl #12
 1395 0012 03F58053 		add	r3, r3, #4096
 1396 0016 51F8045B 		ldr	r5, [r1], #4
 1397              	.LVL99:
 1398 001a 1D60     		str	r5, [r3]
 816:Drivers/STM32F7xx_HAL_Driver/Src/stm32f7xx_ll_usb.c ****     {
 1399              		.loc 1 816 0 discriminator 3
 1400 001c 0134     		adds	r4, r4, #1
 1401              	.LVL100:
 1402              	.L120:
 816:Drivers/STM32F7xx_HAL_Driver/Src/stm32f7xx_ll_usb.c ****     {
 1403              		.loc 1 816 0 is_stmt 0 discriminator 1
 1404 001e B442     		cmp	r4, r6
 1405 0020 F5D3     		bcc	.L121
 1406              	.LVL101:
 1407              	.L118:
 822:Drivers/STM32F7xx_HAL_Driver/Src/stm32f7xx_ll_usb.c **** 
 1408              		.loc 1 822 0 is_stmt 1
 1409 0022 0020     		movs	r0, #0
 1410              	.LVL102:
 1411 0024 70BC     		pop	{r4, r5, r6}
 1412              	.LCFI24:
 1413              		.cfi_restore 6
 1414              		.cfi_restore 5
 1415              		.cfi_restore 4
 1416              		.cfi_def_cfa_offset 0
 1417              	.LVL103:
 1418 0026 7047     		bx	lr
 1419              		.cfi_endproc
 1420              	.LFE151:
 1422              		.section	.text.USB_EPStartXfer,"ax",%progbits
 1423              		.align	1
 1424              		.global	USB_EPStartXfer
ARM GAS  C:\Users\Student\AppData\Local\Temp\ccty2SRd.s 			page 49


 1425              		.syntax unified
 1426              		.thumb
 1427              		.thumb_func
 1428              		.fpu fpv5-sp-d16
 1430              	USB_EPStartXfer:
 1431              	.LFB149:
 599:Drivers/STM32F7xx_HAL_Driver/Src/stm32f7xx_ll_usb.c ****   uint16_t pktcnt = 0;
 1432              		.loc 1 599 0
 1433              		.cfi_startproc
 1434              		@ args = 0, pretend = 0, frame = 0
 1435              		@ frame_needed = 0, uses_anonymous_args = 0
 1436              	.LVL104:
 1437 0000 70B5     		push	{r4, r5, r6, lr}
 1438              	.LCFI25:
 1439              		.cfi_def_cfa_offset 16
 1440              		.cfi_offset 4, -16
 1441              		.cfi_offset 5, -12
 1442              		.cfi_offset 6, -8
 1443              		.cfi_offset 14, -4
 1444 0002 82B0     		sub	sp, sp, #8
 1445              	.LCFI26:
 1446              		.cfi_def_cfa_offset 24
 1447              	.LVL105:
 603:Drivers/STM32F7xx_HAL_Driver/Src/stm32f7xx_ll_usb.c ****   {
 1448              		.loc 1 603 0
 1449 0004 4B78     		ldrb	r3, [r1, #1]	@ zero_extendqisi2
 1450 0006 012B     		cmp	r3, #1
 1451 0008 3CD0     		beq	.L138
 673:Drivers/STM32F7xx_HAL_Driver/Src/stm32f7xx_ll_usb.c ****     USBx_OUTEP(ep->num)->DOEPTSIZ &= ~(USB_OTG_DOEPTSIZ_PKTCNT);
 1452              		.loc 1 673 0
 1453 000a 0B78     		ldrb	r3, [r1]	@ zero_extendqisi2
 1454 000c 00EB4313 		add	r3, r0, r3, lsl #5
 1455 0010 D3F8105B 		ldr	r5, [r3, #2832]
 1456 0014 8F4C     		ldr	r4, .L143
 1457 0016 2C40     		ands	r4, r4, r5
 1458 0018 C3F8104B 		str	r4, [r3, #2832]
 674:Drivers/STM32F7xx_HAL_Driver/Src/stm32f7xx_ll_usb.c **** 
 1459              		.loc 1 674 0
 1460 001c 0B78     		ldrb	r3, [r1]	@ zero_extendqisi2
 1461 001e 00EB4313 		add	r3, r0, r3, lsl #5
 1462 0022 D3F8105B 		ldr	r5, [r3, #2832]
 1463 0026 8C4C     		ldr	r4, .L143+4
 1464 0028 2C40     		ands	r4, r4, r5
 1465 002a C3F8104B 		str	r4, [r3, #2832]
 676:Drivers/STM32F7xx_HAL_Driver/Src/stm32f7xx_ll_usb.c ****     {
 1466              		.loc 1 676 0
 1467 002e 4B69     		ldr	r3, [r1, #20]
 1468 0030 002B     		cmp	r3, #0
 1469 0032 40F0D080 		bne	.L132
 678:Drivers/STM32F7xx_HAL_Driver/Src/stm32f7xx_ll_usb.c ****       USBx_OUTEP(ep->num)->DOEPTSIZ |= (USB_OTG_DOEPTSIZ_PKTCNT & (1 << 19)) ;
 1470              		.loc 1 678 0
 1471 0036 0B78     		ldrb	r3, [r1]	@ zero_extendqisi2
 1472 0038 00EB4313 		add	r3, r0, r3, lsl #5
 1473 003c D3F8104B 		ldr	r4, [r3, #2832]
 1474 0040 8D68     		ldr	r5, [r1, #8]
 1475 0042 C5F31205 		ubfx	r5, r5, #0, #19
 1476 0046 2C43     		orrs	r4, r4, r5
ARM GAS  C:\Users\Student\AppData\Local\Temp\ccty2SRd.s 			page 50


 1477 0048 C3F8104B 		str	r4, [r3, #2832]
 679:Drivers/STM32F7xx_HAL_Driver/Src/stm32f7xx_ll_usb.c ****     }
 1478              		.loc 1 679 0
 1479 004c 0B78     		ldrb	r3, [r1]	@ zero_extendqisi2
 1480 004e 00EB4313 		add	r3, r0, r3, lsl #5
 1481 0052 D3F8104B 		ldr	r4, [r3, #2832]
 1482 0056 44F40024 		orr	r4, r4, #524288
 1483 005a C3F8104B 		str	r4, [r3, #2832]
 1484              	.LVL106:
 1485              	.L133:
 688:Drivers/STM32F7xx_HAL_Driver/Src/stm32f7xx_ll_usb.c ****     {
 1486              		.loc 1 688 0
 1487 005e 012A     		cmp	r2, #1
 1488 0060 00F0D880 		beq	.L139
 1489              	.LVL107:
 1490              	.L134:
 693:Drivers/STM32F7xx_HAL_Driver/Src/stm32f7xx_ll_usb.c ****     {
 1491              		.loc 1 693 0
 1492 0064 CB78     		ldrb	r3, [r1, #3]	@ zero_extendqisi2
 1493 0066 012B     		cmp	r3, #1
 1494 0068 00F0DB80 		beq	.L140
 1495              	.L135:
 705:Drivers/STM32F7xx_HAL_Driver/Src/stm32f7xx_ll_usb.c ****   }
 1496              		.loc 1 705 0
 1497 006c 0B78     		ldrb	r3, [r1]	@ zero_extendqisi2
 1498 006e 00EB4310 		add	r0, r0, r3, lsl #5
 1499              	.LVL108:
 1500 0072 D0F8003B 		ldr	r3, [r0, #2816]
 1501 0076 43F00443 		orr	r3, r3, #-2080374784
 1502 007a C0F8003B 		str	r3, [r0, #2816]
 1503              	.LVL109:
 1504              	.L131:
 708:Drivers/STM32F7xx_HAL_Driver/Src/stm32f7xx_ll_usb.c **** 
 1505              		.loc 1 708 0
 1506 007e 0020     		movs	r0, #0
 1507 0080 02B0     		add	sp, sp, #8
 1508              	.LCFI27:
 1509              		.cfi_remember_state
 1510              		.cfi_def_cfa_offset 16
 1511              		@ sp needed
 1512 0082 70BD     		pop	{r4, r5, r6, pc}
 1513              	.LVL110:
 1514              	.L138:
 1515              	.LCFI28:
 1516              		.cfi_restore_state
 606:Drivers/STM32F7xx_HAL_Driver/Src/stm32f7xx_ll_usb.c ****     {
 1517              		.loc 1 606 0
 1518 0084 4B69     		ldr	r3, [r1, #20]
 1519 0086 5BBB     		cbnz	r3, .L125
 608:Drivers/STM32F7xx_HAL_Driver/Src/stm32f7xx_ll_usb.c ****       USBx_INEP(ep->num)->DIEPTSIZ |= (USB_OTG_DIEPTSIZ_PKTCNT & (1 << 19)) ;
 1520              		.loc 1 608 0
 1521 0088 0B78     		ldrb	r3, [r1]	@ zero_extendqisi2
 1522 008a 00EB4313 		add	r3, r0, r3, lsl #5
 1523 008e D3F81059 		ldr	r5, [r3, #2320]
 1524 0092 714C     		ldr	r4, .L143+4
 1525 0094 2C40     		ands	r4, r4, r5
 1526 0096 C3F81049 		str	r4, [r3, #2320]
ARM GAS  C:\Users\Student\AppData\Local\Temp\ccty2SRd.s 			page 51


 609:Drivers/STM32F7xx_HAL_Driver/Src/stm32f7xx_ll_usb.c ****       USBx_INEP(ep->num)->DIEPTSIZ &= ~(USB_OTG_DIEPTSIZ_XFRSIZ);
 1527              		.loc 1 609 0
 1528 009a 0B78     		ldrb	r3, [r1]	@ zero_extendqisi2
 1529 009c 00EB4313 		add	r3, r0, r3, lsl #5
 1530 00a0 D3F81049 		ldr	r4, [r3, #2320]
 1531 00a4 44F40024 		orr	r4, r4, #524288
 1532 00a8 C3F81049 		str	r4, [r3, #2320]
 610:Drivers/STM32F7xx_HAL_Driver/Src/stm32f7xx_ll_usb.c ****     }
 1533              		.loc 1 610 0
 1534 00ac 0B78     		ldrb	r3, [r1]	@ zero_extendqisi2
 1535 00ae 00EB4313 		add	r3, r0, r3, lsl #5
 1536 00b2 D3F81059 		ldr	r5, [r3, #2320]
 1537 00b6 674C     		ldr	r4, .L143
 1538 00b8 2C40     		ands	r4, r4, r5
 1539 00ba C3F81049 		str	r4, [r3, #2320]
 1540              	.L126:
 631:Drivers/STM32F7xx_HAL_Driver/Src/stm32f7xx_ll_usb.c ****     {
 1541              		.loc 1 631 0
 1542 00be 012A     		cmp	r2, #1
 1543 00c0 52D0     		beq	.L141
 637:Drivers/STM32F7xx_HAL_Driver/Src/stm32f7xx_ll_usb.c ****       {
 1544              		.loc 1 637 0
 1545 00c2 CB78     		ldrb	r3, [r1, #3]	@ zero_extendqisi2
 1546 00c4 012B     		cmp	r3, #1
 1547 00c6 55D0     		beq	.L128
 640:Drivers/STM32F7xx_HAL_Driver/Src/stm32f7xx_ll_usb.c ****         {
 1548              		.loc 1 640 0
 1549 00c8 4B69     		ldr	r3, [r1, #20]
 1550 00ca 002B     		cmp	r3, #0
 1551 00cc 52D0     		beq	.L128
 642:Drivers/STM32F7xx_HAL_Driver/Src/stm32f7xx_ll_usb.c ****         }
 1552              		.loc 1 642 0
 1553 00ce D0F83438 		ldr	r3, [r0, #2100]
 1554 00d2 0E78     		ldrb	r6, [r1]	@ zero_extendqisi2
 1555 00d4 0124     		movs	r4, #1
 1556 00d6 B440     		lsls	r4, r4, r6
 1557 00d8 2343     		orrs	r3, r3, r4
 1558 00da C0F83438 		str	r3, [r0, #2100]
 1559 00de 49E0     		b	.L128
 1560              	.L125:
 619:Drivers/STM32F7xx_HAL_Driver/Src/stm32f7xx_ll_usb.c ****       USBx_INEP(ep->num)->DIEPTSIZ &= ~(USB_OTG_DIEPTSIZ_PKTCNT);
 1561              		.loc 1 619 0
 1562 00e0 0B78     		ldrb	r3, [r1]	@ zero_extendqisi2
 1563 00e2 00EB4313 		add	r3, r0, r3, lsl #5
 1564 00e6 D3F81059 		ldr	r5, [r3, #2320]
 1565 00ea 5A4C     		ldr	r4, .L143
 1566 00ec 2C40     		ands	r4, r4, r5
 1567 00ee C3F81049 		str	r4, [r3, #2320]
 620:Drivers/STM32F7xx_HAL_Driver/Src/stm32f7xx_ll_usb.c ****       USBx_INEP(ep->num)->DIEPTSIZ |= (USB_OTG_DIEPTSIZ_PKTCNT & (((ep->xfer_len + ep->maxpacket -1
 1568              		.loc 1 620 0
 1569 00f2 0B78     		ldrb	r3, [r1]	@ zero_extendqisi2
 1570 00f4 00EB4313 		add	r3, r0, r3, lsl #5
 1571 00f8 D3F81059 		ldr	r5, [r3, #2320]
 1572 00fc 564C     		ldr	r4, .L143+4
 1573 00fe 2C40     		ands	r4, r4, r5
 1574 0100 C3F81049 		str	r4, [r3, #2320]
 621:Drivers/STM32F7xx_HAL_Driver/Src/stm32f7xx_ll_usb.c ****       USBx_INEP(ep->num)->DIEPTSIZ |= (USB_OTG_DIEPTSIZ_XFRSIZ & ep->xfer_len);
ARM GAS  C:\Users\Student\AppData\Local\Temp\ccty2SRd.s 			page 52


 1575              		.loc 1 621 0
 1576 0104 0C78     		ldrb	r4, [r1]	@ zero_extendqisi2
 1577 0106 00EB4414 		add	r4, r0, r4, lsl #5
 1578 010a D4F81059 		ldr	r5, [r4, #2320]
 1579 010e 4B69     		ldr	r3, [r1, #20]
 1580 0110 8E68     		ldr	r6, [r1, #8]
 1581 0112 3344     		add	r3, r3, r6
 1582 0114 013B     		subs	r3, r3, #1
 1583 0116 B3FBF6F3 		udiv	r3, r3, r6
 1584 011a 504E     		ldr	r6, .L143+8
 1585 011c 06EAC343 		and	r3, r6, r3, lsl #19
 1586 0120 2B43     		orrs	r3, r3, r5
 1587 0122 C4F81039 		str	r3, [r4, #2320]
 622:Drivers/STM32F7xx_HAL_Driver/Src/stm32f7xx_ll_usb.c **** 
 1588              		.loc 1 622 0
 1589 0126 0B78     		ldrb	r3, [r1]	@ zero_extendqisi2
 1590 0128 00EB4313 		add	r3, r0, r3, lsl #5
 1591 012c D3F81049 		ldr	r4, [r3, #2320]
 1592 0130 4D69     		ldr	r5, [r1, #20]
 1593 0132 C5F31205 		ubfx	r5, r5, #0, #19
 1594 0136 2C43     		orrs	r4, r4, r5
 1595 0138 C3F81049 		str	r4, [r3, #2320]
 624:Drivers/STM32F7xx_HAL_Driver/Src/stm32f7xx_ll_usb.c ****       {
 1596              		.loc 1 624 0
 1597 013c CB78     		ldrb	r3, [r1, #3]	@ zero_extendqisi2
 1598 013e 012B     		cmp	r3, #1
 1599 0140 BDD1     		bne	.L126
 626:Drivers/STM32F7xx_HAL_Driver/Src/stm32f7xx_ll_usb.c ****         USBx_INEP(ep->num)->DIEPTSIZ |= (USB_OTG_DIEPTSIZ_MULCNT & (1 << 29));
 1600              		.loc 1 626 0
 1601 0142 0B78     		ldrb	r3, [r1]	@ zero_extendqisi2
 1602 0144 00EB4313 		add	r3, r0, r3, lsl #5
 1603 0148 D3F81049 		ldr	r4, [r3, #2320]
 1604 014c 24F0C044 		bic	r4, r4, #1610612736
 1605 0150 C3F81049 		str	r4, [r3, #2320]
 627:Drivers/STM32F7xx_HAL_Driver/Src/stm32f7xx_ll_usb.c ****       }
 1606              		.loc 1 627 0
 1607 0154 0B78     		ldrb	r3, [r1]	@ zero_extendqisi2
 1608 0156 00EB4313 		add	r3, r0, r3, lsl #5
 1609 015a D3F81049 		ldr	r4, [r3, #2320]
 1610 015e 44F00054 		orr	r4, r4, #536870912
 1611 0162 C3F81049 		str	r4, [r3, #2320]
 1612 0166 AAE7     		b	.L126
 1613              	.L141:
 633:Drivers/STM32F7xx_HAL_Driver/Src/stm32f7xx_ll_usb.c ****     }
 1614              		.loc 1 633 0
 1615 0168 0B78     		ldrb	r3, [r1]	@ zero_extendqisi2
 1616 016a 00EB4313 		add	r3, r0, r3, lsl #5
 1617 016e 0C69     		ldr	r4, [r1, #16]
 1618 0170 C3F81449 		str	r4, [r3, #2324]
 1619              	.L128:
 647:Drivers/STM32F7xx_HAL_Driver/Src/stm32f7xx_ll_usb.c ****     {
 1620              		.loc 1 647 0
 1621 0174 CB78     		ldrb	r3, [r1, #3]	@ zero_extendqisi2
 1622 0176 012B     		cmp	r3, #1
 1623 0178 14D0     		beq	.L142
 1624              	.L129:
 660:Drivers/STM32F7xx_HAL_Driver/Src/stm32f7xx_ll_usb.c **** 
ARM GAS  C:\Users\Student\AppData\Local\Temp\ccty2SRd.s 			page 53


 1625              		.loc 1 660 0
 1626 017a 0B78     		ldrb	r3, [r1]	@ zero_extendqisi2
 1627 017c 00EB4313 		add	r3, r0, r3, lsl #5
 1628 0180 D3F80049 		ldr	r4, [r3, #2304]
 1629 0184 44F00444 		orr	r4, r4, #-2080374784
 1630 0188 C3F80049 		str	r4, [r3, #2304]
 662:Drivers/STM32F7xx_HAL_Driver/Src/stm32f7xx_ll_usb.c ****     {
 1631              		.loc 1 662 0
 1632 018c CB78     		ldrb	r3, [r1, #3]	@ zero_extendqisi2
 1633 018e 012B     		cmp	r3, #1
 1634 0190 7FF475AF 		bne	.L131
 1635 0194 1446     		mov	r4, r2
 664:Drivers/STM32F7xx_HAL_Driver/Src/stm32f7xx_ll_usb.c ****     }
 1636              		.loc 1 664 0
 1637 0196 8B8A     		ldrh	r3, [r1, #20]
 1638 0198 0A78     		ldrb	r2, [r1]	@ zero_extendqisi2
 1639              	.LVL111:
 1640 019a C968     		ldr	r1, [r1, #12]
 1641              	.LVL112:
 1642 019c 0094     		str	r4, [sp]
 1643 019e FFF7FEFF 		bl	USB_WritePacket
 1644              	.LVL113:
 1645 01a2 6CE7     		b	.L131
 1646              	.LVL114:
 1647              	.L142:
 649:Drivers/STM32F7xx_HAL_Driver/Src/stm32f7xx_ll_usb.c ****       {
 1648              		.loc 1 649 0
 1649 01a4 D0F80838 		ldr	r3, [r0, #2056]
 1650 01a8 13F4807F 		tst	r3, #256
 1651 01ac 09D1     		bne	.L130
 651:Drivers/STM32F7xx_HAL_Driver/Src/stm32f7xx_ll_usb.c ****       }
 1652              		.loc 1 651 0
 1653 01ae 0B78     		ldrb	r3, [r1]	@ zero_extendqisi2
 1654 01b0 00EB4313 		add	r3, r0, r3, lsl #5
 1655 01b4 D3F80049 		ldr	r4, [r3, #2304]
 1656 01b8 44F00054 		orr	r4, r4, #536870912
 1657 01bc C3F80049 		str	r4, [r3, #2304]
 1658 01c0 DBE7     		b	.L129
 1659              	.L130:
 655:Drivers/STM32F7xx_HAL_Driver/Src/stm32f7xx_ll_usb.c ****       }
 1660              		.loc 1 655 0
 1661 01c2 0B78     		ldrb	r3, [r1]	@ zero_extendqisi2
 1662 01c4 00EB4313 		add	r3, r0, r3, lsl #5
 1663 01c8 D3F80049 		ldr	r4, [r3, #2304]
 1664 01cc 44F08054 		orr	r4, r4, #268435456
 1665 01d0 C3F80049 		str	r4, [r3, #2304]
 1666 01d4 D1E7     		b	.L129
 1667              	.L132:
 683:Drivers/STM32F7xx_HAL_Driver/Src/stm32f7xx_ll_usb.c ****       USBx_OUTEP(ep->num)->DOEPTSIZ |= (USB_OTG_DOEPTSIZ_PKTCNT & (pktcnt << 19));
 1668              		.loc 1 683 0
 1669 01d6 8C68     		ldr	r4, [r1, #8]
 1670 01d8 2344     		add	r3, r3, r4
 1671 01da 013B     		subs	r3, r3, #1
 1672 01dc B3FBF4F3 		udiv	r3, r3, r4
 1673              	.LVL115:
 684:Drivers/STM32F7xx_HAL_Driver/Src/stm32f7xx_ll_usb.c ****       USBx_OUTEP(ep->num)->DOEPTSIZ |= (USB_OTG_DOEPTSIZ_XFRSIZ & (ep->maxpacket * pktcnt));
 1674              		.loc 1 684 0
ARM GAS  C:\Users\Student\AppData\Local\Temp\ccty2SRd.s 			page 54


 1675 01e0 0C78     		ldrb	r4, [r1]	@ zero_extendqisi2
 1676 01e2 00EB4414 		add	r4, r0, r4, lsl #5
 1677 01e6 D4F8105B 		ldr	r5, [r4, #2832]
 1678 01ea 1C4E     		ldr	r6, .L143+8
 1679 01ec 06EAC346 		and	r6, r6, r3, lsl #19
 1680 01f0 3543     		orrs	r5, r5, r6
 1681 01f2 C4F8105B 		str	r5, [r4, #2832]
 685:Drivers/STM32F7xx_HAL_Driver/Src/stm32f7xx_ll_usb.c ****     }
 1682              		.loc 1 685 0
 1683 01f6 0C78     		ldrb	r4, [r1]	@ zero_extendqisi2
 1684 01f8 00EB4414 		add	r4, r0, r4, lsl #5
 1685 01fc D4F8106B 		ldr	r6, [r4, #2832]
 1686 0200 8D68     		ldr	r5, [r1, #8]
 1687 0202 9BB2     		uxth	r3, r3
 1688 0204 05FB03F5 		mul	r5, r5, r3
 1689 0208 C5F31205 		ubfx	r5, r5, #0, #19
 1690 020c 3543     		orrs	r5, r5, r6
 1691 020e C4F8105B 		str	r5, [r4, #2832]
 1692 0212 24E7     		b	.L133
 1693              	.LVL116:
 1694              	.L139:
 690:Drivers/STM32F7xx_HAL_Driver/Src/stm32f7xx_ll_usb.c ****     }
 1695              		.loc 1 690 0
 1696 0214 0B78     		ldrb	r3, [r1]	@ zero_extendqisi2
 1697 0216 00EB4313 		add	r3, r0, r3, lsl #5
 1698 021a CA68     		ldr	r2, [r1, #12]
 1699              	.LVL117:
 1700 021c C3F8142B 		str	r2, [r3, #2836]
 1701 0220 20E7     		b	.L134
 1702              	.L140:
 695:Drivers/STM32F7xx_HAL_Driver/Src/stm32f7xx_ll_usb.c ****       {
 1703              		.loc 1 695 0
 1704 0222 D0F80838 		ldr	r3, [r0, #2056]
 1705 0226 13F4807F 		tst	r3, #256
 1706 022a 09D1     		bne	.L136
 697:Drivers/STM32F7xx_HAL_Driver/Src/stm32f7xx_ll_usb.c ****       }
 1707              		.loc 1 697 0
 1708 022c 0B78     		ldrb	r3, [r1]	@ zero_extendqisi2
 1709 022e 00EB4313 		add	r3, r0, r3, lsl #5
 1710 0232 D3F8002B 		ldr	r2, [r3, #2816]
 1711 0236 42F00052 		orr	r2, r2, #536870912
 1712 023a C3F8002B 		str	r2, [r3, #2816]
 1713 023e 15E7     		b	.L135
 1714              	.L136:
 701:Drivers/STM32F7xx_HAL_Driver/Src/stm32f7xx_ll_usb.c ****       }
 1715              		.loc 1 701 0
 1716 0240 0B78     		ldrb	r3, [r1]	@ zero_extendqisi2
 1717 0242 00EB4313 		add	r3, r0, r3, lsl #5
 1718 0246 D3F8002B 		ldr	r2, [r3, #2816]
 1719 024a 42F08052 		orr	r2, r2, #268435456
 1720 024e C3F8002B 		str	r2, [r3, #2816]
 1721 0252 0BE7     		b	.L135
 1722              	.L144:
 1723              		.align	2
 1724              	.L143:
 1725 0254 0000F8FF 		.word	-524288
 1726 0258 FFFF07E0 		.word	-536346625
ARM GAS  C:\Users\Student\AppData\Local\Temp\ccty2SRd.s 			page 55


 1727 025c 0000F81F 		.word	536346624
 1728              		.cfi_endproc
 1729              	.LFE149:
 1731              		.section	.text.USB_ReadPacket,"ax",%progbits
 1732              		.align	1
 1733              		.global	USB_ReadPacket
 1734              		.syntax unified
 1735              		.thumb
 1736              		.thumb_func
 1737              		.fpu fpv5-sp-d16
 1739              	USB_ReadPacket:
 1740              	.LFB152:
 838:Drivers/STM32F7xx_HAL_Driver/Src/stm32f7xx_ll_usb.c ****   uint32_t i=0;
 1741              		.loc 1 838 0
 1742              		.cfi_startproc
 1743              		@ args = 0, pretend = 0, frame = 0
 1744              		@ frame_needed = 0, uses_anonymous_args = 0
 1745              		@ link register save eliminated.
 1746              	.LVL118:
 840:Drivers/STM32F7xx_HAL_Driver/Src/stm32f7xx_ll_usb.c **** 
 1747              		.loc 1 840 0
 1748 0000 0332     		adds	r2, r2, #3
 1749              	.LVL119:
 1750 0002 9210     		asrs	r2, r2, #2
 1751              	.LVL120:
 842:Drivers/STM32F7xx_HAL_Driver/Src/stm32f7xx_ll_usb.c ****   {
 1752              		.loc 1 842 0
 1753 0004 0023     		movs	r3, #0
 1754              	.LVL121:
 1755 0006 9342     		cmp	r3, r2
 1756 0008 0CD2     		bcs	.L153
 838:Drivers/STM32F7xx_HAL_Driver/Src/stm32f7xx_ll_usb.c ****   uint32_t i=0;
 1757              		.loc 1 838 0
 1758 000a 10B4     		push	{r4}
 1759              	.LCFI29:
 1760              		.cfi_def_cfa_offset 4
 1761              		.cfi_offset 4, -4
 1762              	.L148:
 844:Drivers/STM32F7xx_HAL_Driver/Src/stm32f7xx_ll_usb.c **** 
 1763              		.loc 1 844 0 discriminator 3
 1764 000c 00F58054 		add	r4, r0, #4096
 1765 0010 2468     		ldr	r4, [r4]
 1766 0012 41F8044B 		str	r4, [r1], #4
 1767              	.LVL122:
 842:Drivers/STM32F7xx_HAL_Driver/Src/stm32f7xx_ll_usb.c ****   {
 1768              		.loc 1 842 0 discriminator 3
 1769 0016 0133     		adds	r3, r3, #1
 1770              	.LVL123:
 1771 0018 9342     		cmp	r3, r2
 1772 001a F7D3     		bcc	.L148
 848:Drivers/STM32F7xx_HAL_Driver/Src/stm32f7xx_ll_usb.c **** 
 1773              		.loc 1 848 0
 1774 001c 0846     		mov	r0, r1
 1775              	.LVL124:
 1776 001e 5DF8044B 		ldr	r4, [sp], #4
 1777              	.LCFI30:
 1778              		.cfi_restore 4
ARM GAS  C:\Users\Student\AppData\Local\Temp\ccty2SRd.s 			page 56


 1779              		.cfi_def_cfa_offset 0
 1780 0022 7047     		bx	lr
 1781              	.LVL125:
 1782              	.L153:
 1783 0024 0846     		mov	r0, r1
 1784              	.LVL126:
 1785 0026 7047     		bx	lr
 1786              		.cfi_endproc
 1787              	.LFE152:
 1789              		.section	.text.USB_EPSetStall,"ax",%progbits
 1790              		.align	1
 1791              		.global	USB_EPSetStall
 1792              		.syntax unified
 1793              		.thumb
 1794              		.thumb_func
 1795              		.fpu fpv5-sp-d16
 1797              	USB_EPSetStall:
 1798              	.LFB153:
 857:Drivers/STM32F7xx_HAL_Driver/Src/stm32f7xx_ll_usb.c ****   if (ep->is_in == 1)
 1799              		.loc 1 857 0
 1800              		.cfi_startproc
 1801              		@ args = 0, pretend = 0, frame = 0
 1802              		@ frame_needed = 0, uses_anonymous_args = 0
 1803              		@ link register save eliminated.
 1804              	.LVL127:
 858:Drivers/STM32F7xx_HAL_Driver/Src/stm32f7xx_ll_usb.c ****   {
 1805              		.loc 1 858 0
 1806 0000 4B78     		ldrb	r3, [r1, #1]	@ zero_extendqisi2
 1807 0002 012B     		cmp	r3, #1
 1808 0004 17D0     		beq	.L159
 868:Drivers/STM32F7xx_HAL_Driver/Src/stm32f7xx_ll_usb.c ****     {
 1809              		.loc 1 868 0
 1810 0006 0B78     		ldrb	r3, [r1]	@ zero_extendqisi2
 1811 0008 00EB4313 		add	r3, r0, r3, lsl #5
 1812 000c D3F8002B 		ldr	r2, [r3, #2816]
 1813 0010 002A     		cmp	r2, #0
 1814 0012 05DB     		blt	.L158
 870:Drivers/STM32F7xx_HAL_Driver/Src/stm32f7xx_ll_usb.c ****     }
 1815              		.loc 1 870 0
 1816 0014 D3F8002B 		ldr	r2, [r3, #2816]
 1817 0018 22F08042 		bic	r2, r2, #1073741824
 1818 001c C3F8002B 		str	r2, [r3, #2816]
 1819              	.L158:
 872:Drivers/STM32F7xx_HAL_Driver/Src/stm32f7xx_ll_usb.c ****   }
 1820              		.loc 1 872 0
 1821 0020 0B78     		ldrb	r3, [r1]	@ zero_extendqisi2
 1822 0022 00EB4310 		add	r0, r0, r3, lsl #5
 1823              	.LVL128:
 1824 0026 D0F8003B 		ldr	r3, [r0, #2816]
 1825 002a 43F40013 		orr	r3, r3, #2097152
 1826 002e C0F8003B 		str	r3, [r0, #2816]
 1827              	.L157:
 875:Drivers/STM32F7xx_HAL_Driver/Src/stm32f7xx_ll_usb.c **** 
 1828              		.loc 1 875 0
 1829 0032 0020     		movs	r0, #0
 1830 0034 7047     		bx	lr
 1831              	.LVL129:
ARM GAS  C:\Users\Student\AppData\Local\Temp\ccty2SRd.s 			page 57


 1832              	.L159:
 860:Drivers/STM32F7xx_HAL_Driver/Src/stm32f7xx_ll_usb.c ****     {
 1833              		.loc 1 860 0
 1834 0036 0B78     		ldrb	r3, [r1]	@ zero_extendqisi2
 1835 0038 00EB4313 		add	r3, r0, r3, lsl #5
 1836 003c D3F80029 		ldr	r2, [r3, #2304]
 1837 0040 002A     		cmp	r2, #0
 1838 0042 05DB     		blt	.L156
 862:Drivers/STM32F7xx_HAL_Driver/Src/stm32f7xx_ll_usb.c ****     }
 1839              		.loc 1 862 0
 1840 0044 D3F80029 		ldr	r2, [r3, #2304]
 1841 0048 22F08042 		bic	r2, r2, #1073741824
 1842 004c C3F80029 		str	r2, [r3, #2304]
 1843              	.L156:
 864:Drivers/STM32F7xx_HAL_Driver/Src/stm32f7xx_ll_usb.c ****   }
 1844              		.loc 1 864 0
 1845 0050 0B78     		ldrb	r3, [r1]	@ zero_extendqisi2
 1846 0052 00EB4310 		add	r0, r0, r3, lsl #5
 1847              	.LVL130:
 1848 0056 D0F80039 		ldr	r3, [r0, #2304]
 1849 005a 43F40013 		orr	r3, r3, #2097152
 1850 005e C0F80039 		str	r3, [r0, #2304]
 1851 0062 E6E7     		b	.L157
 1852              		.cfi_endproc
 1853              	.LFE153:
 1855              		.section	.text.USB_EPClearStall,"ax",%progbits
 1856              		.align	1
 1857              		.global	USB_EPClearStall
 1858              		.syntax unified
 1859              		.thumb
 1860              		.thumb_func
 1861              		.fpu fpv5-sp-d16
 1863              	USB_EPClearStall:
 1864              	.LFB154:
 885:Drivers/STM32F7xx_HAL_Driver/Src/stm32f7xx_ll_usb.c ****   if (ep->is_in == 1)
 1865              		.loc 1 885 0
 1866              		.cfi_startproc
 1867              		@ args = 0, pretend = 0, frame = 0
 1868              		@ frame_needed = 0, uses_anonymous_args = 0
 1869              		@ link register save eliminated.
 1870              	.LVL131:
 886:Drivers/STM32F7xx_HAL_Driver/Src/stm32f7xx_ll_usb.c ****   {
 1871              		.loc 1 886 0
 1872 0000 4B78     		ldrb	r3, [r1, #1]	@ zero_extendqisi2
 1873 0002 012B     		cmp	r3, #1
 1874 0004 0FD0     		beq	.L163
 896:Drivers/STM32F7xx_HAL_Driver/Src/stm32f7xx_ll_usb.c ****     if (ep->type == EP_TYPE_INTR || ep->type == EP_TYPE_BULK)
 1875              		.loc 1 896 0
 1876 0006 0B78     		ldrb	r3, [r1]	@ zero_extendqisi2
 1877 0008 00EB4313 		add	r3, r0, r3, lsl #5
 1878 000c D3F8002B 		ldr	r2, [r3, #2816]
 1879 0010 22F40012 		bic	r2, r2, #2097152
 1880 0014 C3F8002B 		str	r2, [r3, #2816]
 897:Drivers/STM32F7xx_HAL_Driver/Src/stm32f7xx_ll_usb.c ****     {
 1881              		.loc 1 897 0
 1882 0018 CB78     		ldrb	r3, [r1, #3]	@ zero_extendqisi2
 1883 001a 023B     		subs	r3, r3, #2
ARM GAS  C:\Users\Student\AppData\Local\Temp\ccty2SRd.s 			page 58


 1884 001c DBB2     		uxtb	r3, r3
 1885 001e 012B     		cmp	r3, #1
 1886 0020 19D9     		bls	.L164
 1887              	.LVL132:
 1888              	.L162:
 903:Drivers/STM32F7xx_HAL_Driver/Src/stm32f7xx_ll_usb.c **** 
 1889              		.loc 1 903 0
 1890 0022 0020     		movs	r0, #0
 1891 0024 7047     		bx	lr
 1892              	.LVL133:
 1893              	.L163:
 888:Drivers/STM32F7xx_HAL_Driver/Src/stm32f7xx_ll_usb.c ****     if (ep->type == EP_TYPE_INTR || ep->type == EP_TYPE_BULK)
 1894              		.loc 1 888 0
 1895 0026 0B78     		ldrb	r3, [r1]	@ zero_extendqisi2
 1896 0028 00EB4313 		add	r3, r0, r3, lsl #5
 1897 002c D3F80029 		ldr	r2, [r3, #2304]
 1898 0030 22F40012 		bic	r2, r2, #2097152
 1899 0034 C3F80029 		str	r2, [r3, #2304]
 889:Drivers/STM32F7xx_HAL_Driver/Src/stm32f7xx_ll_usb.c ****     {
 1900              		.loc 1 889 0
 1901 0038 CB78     		ldrb	r3, [r1, #3]	@ zero_extendqisi2
 1902 003a 023B     		subs	r3, r3, #2
 1903 003c DBB2     		uxtb	r3, r3
 1904 003e 012B     		cmp	r3, #1
 1905 0040 EFD8     		bhi	.L162
 891:Drivers/STM32F7xx_HAL_Driver/Src/stm32f7xx_ll_usb.c ****     }
 1906              		.loc 1 891 0
 1907 0042 0B78     		ldrb	r3, [r1]	@ zero_extendqisi2
 1908 0044 00EB4310 		add	r0, r0, r3, lsl #5
 1909              	.LVL134:
 1910 0048 D0F80039 		ldr	r3, [r0, #2304]
 1911 004c 43F08053 		orr	r3, r3, #268435456
 1912 0050 C0F80039 		str	r3, [r0, #2304]
 1913 0054 E5E7     		b	.L162
 1914              	.LVL135:
 1915              	.L164:
 899:Drivers/STM32F7xx_HAL_Driver/Src/stm32f7xx_ll_usb.c ****     }
 1916              		.loc 1 899 0
 1917 0056 0B78     		ldrb	r3, [r1]	@ zero_extendqisi2
 1918 0058 00EB4310 		add	r0, r0, r3, lsl #5
 1919              	.LVL136:
 1920 005c D0F8003B 		ldr	r3, [r0, #2816]
 1921 0060 43F08053 		orr	r3, r3, #268435456
 1922 0064 C0F8003B 		str	r3, [r0, #2816]
 1923 0068 DBE7     		b	.L162
 1924              		.cfi_endproc
 1925              	.LFE154:
 1927              		.section	.text.USB_StopDevice,"ax",%progbits
 1928              		.align	1
 1929              		.global	USB_StopDevice
 1930              		.syntax unified
 1931              		.thumb
 1932              		.thumb_func
 1933              		.fpu fpv5-sp-d16
 1935              	USB_StopDevice:
 1936              	.LFB155:
 911:Drivers/STM32F7xx_HAL_Driver/Src/stm32f7xx_ll_usb.c ****   uint32_t i;
ARM GAS  C:\Users\Student\AppData\Local\Temp\ccty2SRd.s 			page 59


 1937              		.loc 1 911 0
 1938              		.cfi_startproc
 1939              		@ args = 0, pretend = 0, frame = 0
 1940              		@ frame_needed = 0, uses_anonymous_args = 0
 1941              	.LVL137:
 1942 0000 38B5     		push	{r3, r4, r5, lr}
 1943              	.LCFI31:
 1944              		.cfi_def_cfa_offset 16
 1945              		.cfi_offset 3, -16
 1946              		.cfi_offset 4, -12
 1947              		.cfi_offset 5, -8
 1948              		.cfi_offset 14, -4
 1949 0002 0446     		mov	r4, r0
 1950              	.LVL138:
 915:Drivers/STM32F7xx_HAL_Driver/Src/stm32f7xx_ll_usb.c ****   {
 1951              		.loc 1 915 0
 1952 0004 0022     		movs	r2, #0
 1953 0006 07E0     		b	.L166
 1954              	.LVL139:
 1955              	.L167:
 917:Drivers/STM32F7xx_HAL_Driver/Src/stm32f7xx_ll_usb.c ****     USBx_OUTEP(i)->DOEPINT  = 0xFF;
 1956              		.loc 1 917 0 discriminator 3
 1957 0008 04EB4213 		add	r3, r4, r2, lsl #5
 1958 000c FF21     		movs	r1, #255
 1959 000e C3F80819 		str	r1, [r3, #2312]
 918:Drivers/STM32F7xx_HAL_Driver/Src/stm32f7xx_ll_usb.c ****   }
 1960              		.loc 1 918 0 discriminator 3
 1961 0012 C3F8081B 		str	r1, [r3, #2824]
 915:Drivers/STM32F7xx_HAL_Driver/Src/stm32f7xx_ll_usb.c ****   {
 1962              		.loc 1 915 0 discriminator 3
 1963 0016 0132     		adds	r2, r2, #1
 1964              	.LVL140:
 1965              	.L166:
 915:Drivers/STM32F7xx_HAL_Driver/Src/stm32f7xx_ll_usb.c ****   {
 1966              		.loc 1 915 0 is_stmt 0 discriminator 1
 1967 0018 0E2A     		cmp	r2, #14
 1968 001a F5D9     		bls	.L167
 920:Drivers/STM32F7xx_HAL_Driver/Src/stm32f7xx_ll_usb.c **** 
 1969              		.loc 1 920 0 is_stmt 1
 1970 001c 4FF0FF32 		mov	r2, #-1
 1971              	.LVL141:
 1972 0020 C4F81828 		str	r2, [r4, #2072]
 923:Drivers/STM32F7xx_HAL_Driver/Src/stm32f7xx_ll_usb.c ****   USBx_DEVICE->DOEPMSK  = 0;
 1973              		.loc 1 923 0
 1974 0024 0025     		movs	r5, #0
 1975 0026 C4F81058 		str	r5, [r4, #2064]
 924:Drivers/STM32F7xx_HAL_Driver/Src/stm32f7xx_ll_usb.c ****   USBx_DEVICE->DAINTMSK = 0;
 1976              		.loc 1 924 0
 1977 002a C4F81458 		str	r5, [r4, #2068]
 925:Drivers/STM32F7xx_HAL_Driver/Src/stm32f7xx_ll_usb.c **** 
 1978              		.loc 1 925 0
 1979 002e C4F81C58 		str	r5, [r4, #2076]
 928:Drivers/STM32F7xx_HAL_Driver/Src/stm32f7xx_ll_usb.c ****   USB_FlushTxFifo(USBx ,  0x10 );
 1980              		.loc 1 928 0
 1981 0032 2046     		mov	r0, r4
 1982              	.LVL142:
 1983 0034 FFF7FEFF 		bl	USB_FlushRxFifo
ARM GAS  C:\Users\Student\AppData\Local\Temp\ccty2SRd.s 			page 60


 1984              	.LVL143:
 929:Drivers/STM32F7xx_HAL_Driver/Src/stm32f7xx_ll_usb.c **** 
 1985              		.loc 1 929 0
 1986 0038 1021     		movs	r1, #16
 1987 003a 2046     		mov	r0, r4
 1988 003c FFF7FEFF 		bl	USB_FlushTxFifo
 1989              	.LVL144:
 932:Drivers/STM32F7xx_HAL_Driver/Src/stm32f7xx_ll_usb.c **** 
 1990              		.loc 1 932 0
 1991 0040 2846     		mov	r0, r5
 1992 0042 38BD     		pop	{r3, r4, r5, pc}
 1993              		.cfi_endproc
 1994              	.LFE155:
 1996              		.section	.text.USB_SetDevAddress,"ax",%progbits
 1997              		.align	1
 1998              		.global	USB_SetDevAddress
 1999              		.syntax unified
 2000              		.thumb
 2001              		.thumb_func
 2002              		.fpu fpv5-sp-d16
 2004              	USB_SetDevAddress:
 2005              	.LFB156:
 942:Drivers/STM32F7xx_HAL_Driver/Src/stm32f7xx_ll_usb.c ****   USBx_DEVICE->DCFG &= ~ (USB_OTG_DCFG_DAD);
 2006              		.loc 1 942 0
 2007              		.cfi_startproc
 2008              		@ args = 0, pretend = 0, frame = 0
 2009              		@ frame_needed = 0, uses_anonymous_args = 0
 2010              		@ link register save eliminated.
 2011              	.LVL145:
 943:Drivers/STM32F7xx_HAL_Driver/Src/stm32f7xx_ll_usb.c ****   USBx_DEVICE->DCFG |= (address << 4) & USB_OTG_DCFG_DAD ;
 2012              		.loc 1 943 0
 2013 0000 D0F80038 		ldr	r3, [r0, #2048]
 2014 0004 23F4FE63 		bic	r3, r3, #2032
 2015 0008 C0F80038 		str	r3, [r0, #2048]
 944:Drivers/STM32F7xx_HAL_Driver/Src/stm32f7xx_ll_usb.c **** 
 2016              		.loc 1 944 0
 2017 000c D0F80038 		ldr	r3, [r0, #2048]
 2018 0010 0901     		lsls	r1, r1, #4
 2019              	.LVL146:
 2020 0012 01F4FE61 		and	r1, r1, #2032
 2021 0016 0B43     		orrs	r3, r3, r1
 2022 0018 C0F80038 		str	r3, [r0, #2048]
 947:Drivers/STM32F7xx_HAL_Driver/Src/stm32f7xx_ll_usb.c **** 
 2023              		.loc 1 947 0
 2024 001c 0020     		movs	r0, #0
 2025              	.LVL147:
 2026 001e 7047     		bx	lr
 2027              		.cfi_endproc
 2028              	.LFE156:
 2030              		.section	.text.USB_DevConnect,"ax",%progbits
 2031              		.align	1
 2032              		.global	USB_DevConnect
 2033              		.syntax unified
 2034              		.thumb
 2035              		.thumb_func
 2036              		.fpu fpv5-sp-d16
 2038              	USB_DevConnect:
ARM GAS  C:\Users\Student\AppData\Local\Temp\ccty2SRd.s 			page 61


 2039              	.LFB157:
 955:Drivers/STM32F7xx_HAL_Driver/Src/stm32f7xx_ll_usb.c ****   USBx_DEVICE->DCTL &= ~USB_OTG_DCTL_SDIS ;
 2040              		.loc 1 955 0
 2041              		.cfi_startproc
 2042              		@ args = 0, pretend = 0, frame = 0
 2043              		@ frame_needed = 0, uses_anonymous_args = 0
 2044              	.LVL148:
 2045 0000 08B5     		push	{r3, lr}
 2046              	.LCFI32:
 2047              		.cfi_def_cfa_offset 8
 2048              		.cfi_offset 3, -8
 2049              		.cfi_offset 14, -4
 956:Drivers/STM32F7xx_HAL_Driver/Src/stm32f7xx_ll_usb.c ****   HAL_Delay(3);
 2050              		.loc 1 956 0
 2051 0002 D0F80438 		ldr	r3, [r0, #2052]
 2052 0006 23F00203 		bic	r3, r3, #2
 2053 000a C0F80438 		str	r3, [r0, #2052]
 957:Drivers/STM32F7xx_HAL_Driver/Src/stm32f7xx_ll_usb.c **** 
 2054              		.loc 1 957 0
 2055 000e 0320     		movs	r0, #3
 2056              	.LVL149:
 2057 0010 FFF7FEFF 		bl	HAL_Delay
 2058              	.LVL150:
 960:Drivers/STM32F7xx_HAL_Driver/Src/stm32f7xx_ll_usb.c **** 
 2059              		.loc 1 960 0
 2060 0014 0020     		movs	r0, #0
 2061 0016 08BD     		pop	{r3, pc}
 2062              		.cfi_endproc
 2063              	.LFE157:
 2065              		.section	.text.USB_DevDisconnect,"ax",%progbits
 2066              		.align	1
 2067              		.global	USB_DevDisconnect
 2068              		.syntax unified
 2069              		.thumb
 2070              		.thumb_func
 2071              		.fpu fpv5-sp-d16
 2073              	USB_DevDisconnect:
 2074              	.LFB158:
 968:Drivers/STM32F7xx_HAL_Driver/Src/stm32f7xx_ll_usb.c ****   USBx_DEVICE->DCTL |= USB_OTG_DCTL_SDIS ;
 2075              		.loc 1 968 0
 2076              		.cfi_startproc
 2077              		@ args = 0, pretend = 0, frame = 0
 2078              		@ frame_needed = 0, uses_anonymous_args = 0
 2079              	.LVL151:
 2080 0000 08B5     		push	{r3, lr}
 2081              	.LCFI33:
 2082              		.cfi_def_cfa_offset 8
 2083              		.cfi_offset 3, -8
 2084              		.cfi_offset 14, -4
 969:Drivers/STM32F7xx_HAL_Driver/Src/stm32f7xx_ll_usb.c ****   HAL_Delay(3);
 2085              		.loc 1 969 0
 2086 0002 D0F80438 		ldr	r3, [r0, #2052]
 2087 0006 43F00203 		orr	r3, r3, #2
 2088 000a C0F80438 		str	r3, [r0, #2052]
 970:Drivers/STM32F7xx_HAL_Driver/Src/stm32f7xx_ll_usb.c **** 
 2089              		.loc 1 970 0
 2090 000e 0320     		movs	r0, #3
ARM GAS  C:\Users\Student\AppData\Local\Temp\ccty2SRd.s 			page 62


 2091              	.LVL152:
 2092 0010 FFF7FEFF 		bl	HAL_Delay
 2093              	.LVL153:
 973:Drivers/STM32F7xx_HAL_Driver/Src/stm32f7xx_ll_usb.c **** 
 2094              		.loc 1 973 0
 2095 0014 0020     		movs	r0, #0
 2096 0016 08BD     		pop	{r3, pc}
 2097              		.cfi_endproc
 2098              	.LFE158:
 2100              		.section	.text.USB_ReadInterrupts,"ax",%progbits
 2101              		.align	1
 2102              		.global	USB_ReadInterrupts
 2103              		.syntax unified
 2104              		.thumb
 2105              		.thumb_func
 2106              		.fpu fpv5-sp-d16
 2108              	USB_ReadInterrupts:
 2109              	.LFB159:
 981:Drivers/STM32F7xx_HAL_Driver/Src/stm32f7xx_ll_usb.c ****   uint32_t v = 0;
 2110              		.loc 1 981 0
 2111              		.cfi_startproc
 2112              		@ args = 0, pretend = 0, frame = 0
 2113              		@ frame_needed = 0, uses_anonymous_args = 0
 2114              		@ link register save eliminated.
 2115              	.LVL154:
 984:Drivers/STM32F7xx_HAL_Driver/Src/stm32f7xx_ll_usb.c ****   v &= USBx->GINTMSK;
 2116              		.loc 1 984 0
 2117 0000 4269     		ldr	r2, [r0, #20]
 2118              	.LVL155:
 985:Drivers/STM32F7xx_HAL_Driver/Src/stm32f7xx_ll_usb.c ****   return v;
 2119              		.loc 1 985 0
 2120 0002 8069     		ldr	r0, [r0, #24]
 2121              	.LVL156:
 987:Drivers/STM32F7xx_HAL_Driver/Src/stm32f7xx_ll_usb.c **** 
 2122              		.loc 1 987 0
 2123 0004 1040     		ands	r0, r0, r2
 2124              	.LVL157:
 2125 0006 7047     		bx	lr
 2126              		.cfi_endproc
 2127              	.LFE159:
 2129              		.section	.text.USB_ReadDevAllOutEpInterrupt,"ax",%progbits
 2130              		.align	1
 2131              		.global	USB_ReadDevAllOutEpInterrupt
 2132              		.syntax unified
 2133              		.thumb
 2134              		.thumb_func
 2135              		.fpu fpv5-sp-d16
 2137              	USB_ReadDevAllOutEpInterrupt:
 2138              	.LFB160:
 995:Drivers/STM32F7xx_HAL_Driver/Src/stm32f7xx_ll_usb.c ****   uint32_t v;
 2139              		.loc 1 995 0
 2140              		.cfi_startproc
 2141              		@ args = 0, pretend = 0, frame = 0
 2142              		@ frame_needed = 0, uses_anonymous_args = 0
 2143              		@ link register save eliminated.
 2144              	.LVL158:
 997:Drivers/STM32F7xx_HAL_Driver/Src/stm32f7xx_ll_usb.c ****   v &= USBx_DEVICE->DAINTMSK;
ARM GAS  C:\Users\Student\AppData\Local\Temp\ccty2SRd.s 			page 63


 2145              		.loc 1 997 0
 2146 0000 D0F81838 		ldr	r3, [r0, #2072]
 2147 0004 00F50060 		add	r0, r0, #2048
 2148              	.LVL159:
 998:Drivers/STM32F7xx_HAL_Driver/Src/stm32f7xx_ll_usb.c ****   return ((v & 0xffff0000) >> 16);
 2149              		.loc 1 998 0
 2150 0008 C069     		ldr	r0, [r0, #28]
 2151              	.LVL160:
 2152 000a 1840     		ands	r0, r0, r3
 2153              	.LVL161:
1000:Drivers/STM32F7xx_HAL_Driver/Src/stm32f7xx_ll_usb.c **** 
 2154              		.loc 1 1000 0
 2155 000c 000C     		lsrs	r0, r0, #16
 2156              	.LVL162:
 2157 000e 7047     		bx	lr
 2158              		.cfi_endproc
 2159              	.LFE160:
 2161              		.section	.text.USB_ReadDevAllInEpInterrupt,"ax",%progbits
 2162              		.align	1
 2163              		.global	USB_ReadDevAllInEpInterrupt
 2164              		.syntax unified
 2165              		.thumb
 2166              		.thumb_func
 2167              		.fpu fpv5-sp-d16
 2169              	USB_ReadDevAllInEpInterrupt:
 2170              	.LFB161:
1008:Drivers/STM32F7xx_HAL_Driver/Src/stm32f7xx_ll_usb.c ****   uint32_t v;
 2171              		.loc 1 1008 0
 2172              		.cfi_startproc
 2173              		@ args = 0, pretend = 0, frame = 0
 2174              		@ frame_needed = 0, uses_anonymous_args = 0
 2175              		@ link register save eliminated.
 2176              	.LVL163:
1010:Drivers/STM32F7xx_HAL_Driver/Src/stm32f7xx_ll_usb.c ****   v &= USBx_DEVICE->DAINTMSK;
 2177              		.loc 1 1010 0
 2178 0000 D0F81838 		ldr	r3, [r0, #2072]
 2179 0004 00F50060 		add	r0, r0, #2048
 2180              	.LVL164:
1011:Drivers/STM32F7xx_HAL_Driver/Src/stm32f7xx_ll_usb.c ****   return ((v & 0xFFFF));
 2181              		.loc 1 1011 0
 2182 0008 C069     		ldr	r0, [r0, #28]
 2183              	.LVL165:
 2184 000a 1840     		ands	r0, r0, r3
 2185              	.LVL166:
1013:Drivers/STM32F7xx_HAL_Driver/Src/stm32f7xx_ll_usb.c **** 
 2186              		.loc 1 1013 0
 2187 000c 80B2     		uxth	r0, r0
 2188              	.LVL167:
 2189 000e 7047     		bx	lr
 2190              		.cfi_endproc
 2191              	.LFE161:
 2193              		.section	.text.USB_ReadDevOutEPInterrupt,"ax",%progbits
 2194              		.align	1
 2195              		.global	USB_ReadDevOutEPInterrupt
 2196              		.syntax unified
 2197              		.thumb
 2198              		.thumb_func
ARM GAS  C:\Users\Student\AppData\Local\Temp\ccty2SRd.s 			page 64


 2199              		.fpu fpv5-sp-d16
 2201              	USB_ReadDevOutEPInterrupt:
 2202              	.LFB162:
1023:Drivers/STM32F7xx_HAL_Driver/Src/stm32f7xx_ll_usb.c ****   uint32_t v;
 2203              		.loc 1 1023 0
 2204              		.cfi_startproc
 2205              		@ args = 0, pretend = 0, frame = 0
 2206              		@ frame_needed = 0, uses_anonymous_args = 0
 2207              		@ link register save eliminated.
 2208              	.LVL168:
1025:Drivers/STM32F7xx_HAL_Driver/Src/stm32f7xx_ll_usb.c ****   v &= USBx_DEVICE->DOEPMSK;
 2209              		.loc 1 1025 0
 2210 0000 00EB4111 		add	r1, r0, r1, lsl #5
 2211              	.LVL169:
 2212 0004 D1F8082B 		ldr	r2, [r1, #2824]
 2213              	.LVL170:
1026:Drivers/STM32F7xx_HAL_Driver/Src/stm32f7xx_ll_usb.c ****   return v;
 2214              		.loc 1 1026 0
 2215 0008 00F50060 		add	r0, r0, #2048
 2216              	.LVL171:
 2217 000c 4069     		ldr	r0, [r0, #20]
 2218              	.LVL172:
1028:Drivers/STM32F7xx_HAL_Driver/Src/stm32f7xx_ll_usb.c **** 
 2219              		.loc 1 1028 0
 2220 000e 1040     		ands	r0, r0, r2
 2221              	.LVL173:
 2222 0010 7047     		bx	lr
 2223              		.cfi_endproc
 2224              	.LFE162:
 2226              		.section	.text.USB_ReadDevInEPInterrupt,"ax",%progbits
 2227              		.align	1
 2228              		.global	USB_ReadDevInEPInterrupt
 2229              		.syntax unified
 2230              		.thumb
 2231              		.thumb_func
 2232              		.fpu fpv5-sp-d16
 2234              	USB_ReadDevInEPInterrupt:
 2235              	.LFB163:
1038:Drivers/STM32F7xx_HAL_Driver/Src/stm32f7xx_ll_usb.c ****   uint32_t v, msk, emp;
 2236              		.loc 1 1038 0
 2237              		.cfi_startproc
 2238              		@ args = 0, pretend = 0, frame = 0
 2239              		@ frame_needed = 0, uses_anonymous_args = 0
 2240              		@ link register save eliminated.
 2241              	.LVL174:
1041:Drivers/STM32F7xx_HAL_Driver/Src/stm32f7xx_ll_usb.c ****   emp = USBx_DEVICE->DIEPEMPMSK;
 2242              		.loc 1 1041 0
 2243 0000 D0F81028 		ldr	r2, [r0, #2064]
 2244              	.LVL175:
1042:Drivers/STM32F7xx_HAL_Driver/Src/stm32f7xx_ll_usb.c ****   msk |= ((emp >> epnum) & 0x1) << 7;
 2245              		.loc 1 1042 0
 2246 0004 D0F83438 		ldr	r3, [r0, #2100]
 2247              	.LVL176:
1043:Drivers/STM32F7xx_HAL_Driver/Src/stm32f7xx_ll_usb.c ****   v = USBx_INEP(epnum)->DIEPINT & msk;
 2248              		.loc 1 1043 0
 2249 0008 CB40     		lsrs	r3, r3, r1
 2250              	.LVL177:
ARM GAS  C:\Users\Student\AppData\Local\Temp\ccty2SRd.s 			page 65


 2251 000a DB01     		lsls	r3, r3, #7
 2252 000c DBB2     		uxtb	r3, r3
 2253 000e 1343     		orrs	r3, r3, r2
 2254              	.LVL178:
1044:Drivers/STM32F7xx_HAL_Driver/Src/stm32f7xx_ll_usb.c ****   return v;
 2255              		.loc 1 1044 0
 2256 0010 00EB4111 		add	r1, r0, r1, lsl #5
 2257              	.LVL179:
 2258 0014 D1F80809 		ldr	r0, [r1, #2312]
 2259              	.LVL180:
1046:Drivers/STM32F7xx_HAL_Driver/Src/stm32f7xx_ll_usb.c **** 
 2260              		.loc 1 1046 0
 2261 0018 1840     		ands	r0, r0, r3
 2262              	.LVL181:
 2263 001a 7047     		bx	lr
 2264              		.cfi_endproc
 2265              	.LFE163:
 2267              		.section	.text.USB_ClearInterrupts,"ax",%progbits
 2268              		.align	1
 2269              		.global	USB_ClearInterrupts
 2270              		.syntax unified
 2271              		.thumb
 2272              		.thumb_func
 2273              		.fpu fpv5-sp-d16
 2275              	USB_ClearInterrupts:
 2276              	.LFB164:
1055:Drivers/STM32F7xx_HAL_Driver/Src/stm32f7xx_ll_usb.c ****   USBx->GINTSTS |= interrupt;
 2277              		.loc 1 1055 0
 2278              		.cfi_startproc
 2279              		@ args = 0, pretend = 0, frame = 0
 2280              		@ frame_needed = 0, uses_anonymous_args = 0
 2281              		@ link register save eliminated.
 2282              	.LVL182:
1056:Drivers/STM32F7xx_HAL_Driver/Src/stm32f7xx_ll_usb.c **** }
 2283              		.loc 1 1056 0
 2284 0000 4369     		ldr	r3, [r0, #20]
 2285 0002 1943     		orrs	r1, r1, r3
 2286              	.LVL183:
 2287 0004 4161     		str	r1, [r0, #20]
 2288 0006 7047     		bx	lr
 2289              		.cfi_endproc
 2290              	.LFE164:
 2292              		.section	.text.USB_GetMode,"ax",%progbits
 2293              		.align	1
 2294              		.global	USB_GetMode
 2295              		.syntax unified
 2296              		.thumb
 2297              		.thumb_func
 2298              		.fpu fpv5-sp-d16
 2300              	USB_GetMode:
 2301              	.LFB165:
1068:Drivers/STM32F7xx_HAL_Driver/Src/stm32f7xx_ll_usb.c ****   return ((USBx->GINTSTS ) & 0x1);
 2302              		.loc 1 1068 0
 2303              		.cfi_startproc
 2304              		@ args = 0, pretend = 0, frame = 0
 2305              		@ frame_needed = 0, uses_anonymous_args = 0
 2306              		@ link register save eliminated.
ARM GAS  C:\Users\Student\AppData\Local\Temp\ccty2SRd.s 			page 66


 2307              	.LVL184:
1069:Drivers/STM32F7xx_HAL_Driver/Src/stm32f7xx_ll_usb.c **** }
 2308              		.loc 1 1069 0
 2309 0000 4069     		ldr	r0, [r0, #20]
 2310              	.LVL185:
1070:Drivers/STM32F7xx_HAL_Driver/Src/stm32f7xx_ll_usb.c **** 
 2311              		.loc 1 1070 0
 2312 0002 00F00100 		and	r0, r0, #1
 2313 0006 7047     		bx	lr
 2314              		.cfi_endproc
 2315              	.LFE165:
 2317              		.section	.text.USB_ActivateSetup,"ax",%progbits
 2318              		.align	1
 2319              		.global	USB_ActivateSetup
 2320              		.syntax unified
 2321              		.thumb
 2322              		.thumb_func
 2323              		.fpu fpv5-sp-d16
 2325              	USB_ActivateSetup:
 2326              	.LFB166:
1079:Drivers/STM32F7xx_HAL_Driver/Src/stm32f7xx_ll_usb.c ****   /* Set the MPS of the IN EP based on the enumeration speed */
 2327              		.loc 1 1079 0
 2328              		.cfi_startproc
 2329              		@ args = 0, pretend = 0, frame = 0
 2330              		@ frame_needed = 0, uses_anonymous_args = 0
 2331              		@ link register save eliminated.
 2332              	.LVL186:
1081:Drivers/STM32F7xx_HAL_Driver/Src/stm32f7xx_ll_usb.c **** 
 2333              		.loc 1 1081 0
 2334 0000 D0F80029 		ldr	r2, [r0, #2304]
 2335 0004 0B4B     		ldr	r3, .L184
 2336 0006 1340     		ands	r3, r3, r2
 2337 0008 C0F80039 		str	r3, [r0, #2304]
1083:Drivers/STM32F7xx_HAL_Driver/Src/stm32f7xx_ll_usb.c ****   {
 2338              		.loc 1 1083 0
 2339 000c 00F50063 		add	r3, r0, #2048
 2340 0010 9A68     		ldr	r2, [r3, #8]
 2341 0012 02F00602 		and	r2, r2, #6
 2342 0016 042A     		cmp	r2, #4
 2343 0018 05D0     		beq	.L183
 2344              	.L182:
1087:Drivers/STM32F7xx_HAL_Driver/Src/stm32f7xx_ll_usb.c **** 
 2345              		.loc 1 1087 0
 2346 001a 5A68     		ldr	r2, [r3, #4]
 2347 001c 42F48072 		orr	r2, r2, #256
 2348 0020 5A60     		str	r2, [r3, #4]
1090:Drivers/STM32F7xx_HAL_Driver/Src/stm32f7xx_ll_usb.c **** 
 2349              		.loc 1 1090 0
 2350 0022 0020     		movs	r0, #0
 2351              	.LVL187:
 2352 0024 7047     		bx	lr
 2353              	.LVL188:
 2354              	.L183:
1085:Drivers/STM32F7xx_HAL_Driver/Src/stm32f7xx_ll_usb.c ****   }
 2355              		.loc 1 1085 0
 2356 0026 D0F80029 		ldr	r2, [r0, #2304]
 2357 002a 42F00302 		orr	r2, r2, #3
ARM GAS  C:\Users\Student\AppData\Local\Temp\ccty2SRd.s 			page 67


 2358 002e C0F80029 		str	r2, [r0, #2304]
 2359 0032 F2E7     		b	.L182
 2360              	.L185:
 2361              		.align	2
 2362              	.L184:
 2363 0034 00F8FFFF 		.word	-2048
 2364              		.cfi_endproc
 2365              	.LFE166:
 2367              		.section	.text.USB_EP0_OutStart,"ax",%progbits
 2368              		.align	1
 2369              		.global	USB_EP0_OutStart
 2370              		.syntax unified
 2371              		.thumb
 2372              		.thumb_func
 2373              		.fpu fpv5-sp-d16
 2375              	USB_EP0_OutStart:
 2376              	.LFB167:
1104:Drivers/STM32F7xx_HAL_Driver/Src/stm32f7xx_ll_usb.c ****   USBx_OUTEP(0)->DOEPTSIZ = 0;
 2377              		.loc 1 1104 0
 2378              		.cfi_startproc
 2379              		@ args = 0, pretend = 0, frame = 0
 2380              		@ frame_needed = 0, uses_anonymous_args = 0
 2381              		@ link register save eliminated.
 2382              	.LVL189:
 2383 0000 10B4     		push	{r4}
 2384              	.LCFI34:
 2385              		.cfi_def_cfa_offset 4
 2386              		.cfi_offset 4, -4
1105:Drivers/STM32F7xx_HAL_Driver/Src/stm32f7xx_ll_usb.c ****   USBx_OUTEP(0)->DOEPTSIZ |= (USB_OTG_DOEPTSIZ_PKTCNT & (1 << 19)) ;
 2387              		.loc 1 1105 0
 2388 0002 0024     		movs	r4, #0
 2389 0004 C0F8104B 		str	r4, [r0, #2832]
1106:Drivers/STM32F7xx_HAL_Driver/Src/stm32f7xx_ll_usb.c ****   USBx_OUTEP(0)->DOEPTSIZ |= (3 * 8);
 2390              		.loc 1 1106 0
 2391 0008 D0F8104B 		ldr	r4, [r0, #2832]
 2392 000c 44F40024 		orr	r4, r4, #524288
 2393 0010 C0F8104B 		str	r4, [r0, #2832]
1107:Drivers/STM32F7xx_HAL_Driver/Src/stm32f7xx_ll_usb.c ****   USBx_OUTEP(0)->DOEPTSIZ |=  USB_OTG_DOEPTSIZ_STUPCNT;
 2394              		.loc 1 1107 0
 2395 0014 D0F8104B 		ldr	r4, [r0, #2832]
 2396 0018 44F01804 		orr	r4, r4, #24
 2397 001c C0F8104B 		str	r4, [r0, #2832]
1108:Drivers/STM32F7xx_HAL_Driver/Src/stm32f7xx_ll_usb.c **** 
 2398              		.loc 1 1108 0
 2399 0020 D0F8104B 		ldr	r4, [r0, #2832]
 2400 0024 44F0C044 		orr	r4, r4, #1610612736
 2401 0028 C0F8104B 		str	r4, [r0, #2832]
1110:Drivers/STM32F7xx_HAL_Driver/Src/stm32f7xx_ll_usb.c ****   {
 2402              		.loc 1 1110 0
 2403 002c 0129     		cmp	r1, #1
 2404 002e 03D0     		beq	.L189
 2405              	.L187:
1118:Drivers/STM32F7xx_HAL_Driver/Src/stm32f7xx_ll_usb.c **** 
 2406              		.loc 1 1118 0
 2407 0030 0020     		movs	r0, #0
 2408              	.LVL190:
 2409 0032 5DF8044B 		ldr	r4, [sp], #4
ARM GAS  C:\Users\Student\AppData\Local\Temp\ccty2SRd.s 			page 68


 2410              	.LCFI35:
 2411              		.cfi_remember_state
 2412              		.cfi_restore 4
 2413              		.cfi_def_cfa_offset 0
 2414 0036 7047     		bx	lr
 2415              	.LVL191:
 2416              	.L189:
 2417              	.LCFI36:
 2418              		.cfi_restore_state
1112:Drivers/STM32F7xx_HAL_Driver/Src/stm32f7xx_ll_usb.c ****     /* EP enable */
 2419              		.loc 1 1112 0
 2420 0038 C0F8142B 		str	r2, [r0, #2836]
1114:Drivers/STM32F7xx_HAL_Driver/Src/stm32f7xx_ll_usb.c ****   }
 2421              		.loc 1 1114 0
 2422 003c 4FF08023 		mov	r3, #-2147450880
 2423 0040 C0F8003B 		str	r3, [r0, #2816]
 2424 0044 F4E7     		b	.L187
 2425              		.cfi_endproc
 2426              	.LFE167:
 2428              		.section	.text.USB_InitFSLSPClkSel,"ax",%progbits
 2429              		.align	1
 2430              		.global	USB_InitFSLSPClkSel
 2431              		.syntax unified
 2432              		.thumb
 2433              		.thumb_func
 2434              		.fpu fpv5-sp-d16
 2436              	USB_InitFSLSPClkSel:
 2437              	.LFB170:
1155:Drivers/STM32F7xx_HAL_Driver/Src/stm32f7xx_ll_usb.c **** 
1156:Drivers/STM32F7xx_HAL_Driver/Src/stm32f7xx_ll_usb.c **** #ifdef USB_HS_PHYC
1157:Drivers/STM32F7xx_HAL_Driver/Src/stm32f7xx_ll_usb.c **** /**
1158:Drivers/STM32F7xx_HAL_Driver/Src/stm32f7xx_ll_usb.c ****   * @brief  Enables control of a High Speed USB PHYs
1159:Drivers/STM32F7xx_HAL_Driver/Src/stm32f7xx_ll_usb.c ****   *         Init the low level hardware : GPIO, CLOCK, NVIC...
1160:Drivers/STM32F7xx_HAL_Driver/Src/stm32f7xx_ll_usb.c ****   * @param  USBx : Selected device
1161:Drivers/STM32F7xx_HAL_Driver/Src/stm32f7xx_ll_usb.c ****   * @retval HAL status
1162:Drivers/STM32F7xx_HAL_Driver/Src/stm32f7xx_ll_usb.c ****   */
1163:Drivers/STM32F7xx_HAL_Driver/Src/stm32f7xx_ll_usb.c **** static HAL_StatusTypeDef USB_HS_PHYCInit(USB_OTG_GlobalTypeDef *USBx)
1164:Drivers/STM32F7xx_HAL_Driver/Src/stm32f7xx_ll_usb.c **** {
1165:Drivers/STM32F7xx_HAL_Driver/Src/stm32f7xx_ll_usb.c ****   uint32_t count = 0;
1166:Drivers/STM32F7xx_HAL_Driver/Src/stm32f7xx_ll_usb.c **** 
1167:Drivers/STM32F7xx_HAL_Driver/Src/stm32f7xx_ll_usb.c ****   /* Enable LDO */
1168:Drivers/STM32F7xx_HAL_Driver/Src/stm32f7xx_ll_usb.c ****   USB_HS_PHYC->USB_HS_PHYC_LDO |= USB_HS_PHYC_LDO_ENABLE;
1169:Drivers/STM32F7xx_HAL_Driver/Src/stm32f7xx_ll_usb.c **** 
1170:Drivers/STM32F7xx_HAL_Driver/Src/stm32f7xx_ll_usb.c ****   /* wait for LDO Ready */
1171:Drivers/STM32F7xx_HAL_Driver/Src/stm32f7xx_ll_usb.c ****   while((USB_HS_PHYC->USB_HS_PHYC_LDO & USB_HS_PHYC_LDO_STATUS) == RESET)
1172:Drivers/STM32F7xx_HAL_Driver/Src/stm32f7xx_ll_usb.c ****   {
1173:Drivers/STM32F7xx_HAL_Driver/Src/stm32f7xx_ll_usb.c ****     if (++count > 200000)
1174:Drivers/STM32F7xx_HAL_Driver/Src/stm32f7xx_ll_usb.c ****     {
1175:Drivers/STM32F7xx_HAL_Driver/Src/stm32f7xx_ll_usb.c ****       return HAL_TIMEOUT;
1176:Drivers/STM32F7xx_HAL_Driver/Src/stm32f7xx_ll_usb.c ****     }
1177:Drivers/STM32F7xx_HAL_Driver/Src/stm32f7xx_ll_usb.c ****   }
1178:Drivers/STM32F7xx_HAL_Driver/Src/stm32f7xx_ll_usb.c **** 
1179:Drivers/STM32F7xx_HAL_Driver/Src/stm32f7xx_ll_usb.c ****   /* Controls PHY frequency operation selection */
1180:Drivers/STM32F7xx_HAL_Driver/Src/stm32f7xx_ll_usb.c ****   if (HSE_VALUE == 12000000) /* HSE = 12MHz */
1181:Drivers/STM32F7xx_HAL_Driver/Src/stm32f7xx_ll_usb.c ****   {
1182:Drivers/STM32F7xx_HAL_Driver/Src/stm32f7xx_ll_usb.c ****     USB_HS_PHYC->USB_HS_PHYC_PLL = (uint32_t)(0x0 << 1);
1183:Drivers/STM32F7xx_HAL_Driver/Src/stm32f7xx_ll_usb.c ****   }
ARM GAS  C:\Users\Student\AppData\Local\Temp\ccty2SRd.s 			page 69


1184:Drivers/STM32F7xx_HAL_Driver/Src/stm32f7xx_ll_usb.c ****   else if (HSE_VALUE == 12500000) /* HSE = 12.5MHz */
1185:Drivers/STM32F7xx_HAL_Driver/Src/stm32f7xx_ll_usb.c ****   {
1186:Drivers/STM32F7xx_HAL_Driver/Src/stm32f7xx_ll_usb.c ****     USB_HS_PHYC->USB_HS_PHYC_PLL = (uint32_t)(0x2 << 1);
1187:Drivers/STM32F7xx_HAL_Driver/Src/stm32f7xx_ll_usb.c ****   }
1188:Drivers/STM32F7xx_HAL_Driver/Src/stm32f7xx_ll_usb.c ****   else if (HSE_VALUE == 16000000) /* HSE = 16MHz */
1189:Drivers/STM32F7xx_HAL_Driver/Src/stm32f7xx_ll_usb.c ****   {
1190:Drivers/STM32F7xx_HAL_Driver/Src/stm32f7xx_ll_usb.c ****     USB_HS_PHYC->USB_HS_PHYC_PLL = (uint32_t)(0x3 << 1);
1191:Drivers/STM32F7xx_HAL_Driver/Src/stm32f7xx_ll_usb.c ****   }
1192:Drivers/STM32F7xx_HAL_Driver/Src/stm32f7xx_ll_usb.c **** 
1193:Drivers/STM32F7xx_HAL_Driver/Src/stm32f7xx_ll_usb.c ****   else if (HSE_VALUE == 24000000) /* HSE = 24MHz */
1194:Drivers/STM32F7xx_HAL_Driver/Src/stm32f7xx_ll_usb.c ****   {
1195:Drivers/STM32F7xx_HAL_Driver/Src/stm32f7xx_ll_usb.c ****     USB_HS_PHYC->USB_HS_PHYC_PLL = (uint32_t)(0x4 << 1);
1196:Drivers/STM32F7xx_HAL_Driver/Src/stm32f7xx_ll_usb.c ****   }
1197:Drivers/STM32F7xx_HAL_Driver/Src/stm32f7xx_ll_usb.c ****   else if (HSE_VALUE == 25000000) /* HSE = 25MHz */
1198:Drivers/STM32F7xx_HAL_Driver/Src/stm32f7xx_ll_usb.c ****   {
1199:Drivers/STM32F7xx_HAL_Driver/Src/stm32f7xx_ll_usb.c ****     USB_HS_PHYC->USB_HS_PHYC_PLL = (uint32_t)(0x5 << 1);
1200:Drivers/STM32F7xx_HAL_Driver/Src/stm32f7xx_ll_usb.c ****   }
1201:Drivers/STM32F7xx_HAL_Driver/Src/stm32f7xx_ll_usb.c ****   else if (HSE_VALUE == 32000000) /* HSE = 32MHz */
1202:Drivers/STM32F7xx_HAL_Driver/Src/stm32f7xx_ll_usb.c ****   {
1203:Drivers/STM32F7xx_HAL_Driver/Src/stm32f7xx_ll_usb.c ****     USB_HS_PHYC->USB_HS_PHYC_PLL = (uint32_t)(0x7 << 1);
1204:Drivers/STM32F7xx_HAL_Driver/Src/stm32f7xx_ll_usb.c ****   }
1205:Drivers/STM32F7xx_HAL_Driver/Src/stm32f7xx_ll_usb.c **** 
1206:Drivers/STM32F7xx_HAL_Driver/Src/stm32f7xx_ll_usb.c ****   /* Control the tuning interface of the High Speed PHY */
1207:Drivers/STM32F7xx_HAL_Driver/Src/stm32f7xx_ll_usb.c ****   USB_HS_PHYC->USB_HS_PHYC_TUNE |= USB_HS_PHYC_TUNE_VALUE;
1208:Drivers/STM32F7xx_HAL_Driver/Src/stm32f7xx_ll_usb.c **** 
1209:Drivers/STM32F7xx_HAL_Driver/Src/stm32f7xx_ll_usb.c ****   /* Enable PLL internal PHY */
1210:Drivers/STM32F7xx_HAL_Driver/Src/stm32f7xx_ll_usb.c ****   USB_HS_PHYC->USB_HS_PHYC_PLL |= USB_HS_PHYC_PLL_PLLEN;
1211:Drivers/STM32F7xx_HAL_Driver/Src/stm32f7xx_ll_usb.c **** 
1212:Drivers/STM32F7xx_HAL_Driver/Src/stm32f7xx_ll_usb.c ****   /* 2ms Delay required to get internal phy clock stable */
1213:Drivers/STM32F7xx_HAL_Driver/Src/stm32f7xx_ll_usb.c ****   HAL_Delay(2);
1214:Drivers/STM32F7xx_HAL_Driver/Src/stm32f7xx_ll_usb.c **** 
1215:Drivers/STM32F7xx_HAL_Driver/Src/stm32f7xx_ll_usb.c ****   return HAL_OK;
1216:Drivers/STM32F7xx_HAL_Driver/Src/stm32f7xx_ll_usb.c **** }
1217:Drivers/STM32F7xx_HAL_Driver/Src/stm32f7xx_ll_usb.c **** 
1218:Drivers/STM32F7xx_HAL_Driver/Src/stm32f7xx_ll_usb.c **** #endif /* USB_HS_PHYC */
1219:Drivers/STM32F7xx_HAL_Driver/Src/stm32f7xx_ll_usb.c **** /**
1220:Drivers/STM32F7xx_HAL_Driver/Src/stm32f7xx_ll_usb.c ****   * @brief  USB_HostInit : Initializes the USB OTG controller registers
1221:Drivers/STM32F7xx_HAL_Driver/Src/stm32f7xx_ll_usb.c ****   *         for Host mode
1222:Drivers/STM32F7xx_HAL_Driver/Src/stm32f7xx_ll_usb.c ****   * @param  USBx : Selected device
1223:Drivers/STM32F7xx_HAL_Driver/Src/stm32f7xx_ll_usb.c ****   * @param  cfg  : pointer to a USB_OTG_CfgTypeDef structure that contains
1224:Drivers/STM32F7xx_HAL_Driver/Src/stm32f7xx_ll_usb.c ****   *         the configuration information for the specified USBx peripheral.
1225:Drivers/STM32F7xx_HAL_Driver/Src/stm32f7xx_ll_usb.c ****   * @retval HAL status
1226:Drivers/STM32F7xx_HAL_Driver/Src/stm32f7xx_ll_usb.c ****   */
1227:Drivers/STM32F7xx_HAL_Driver/Src/stm32f7xx_ll_usb.c **** HAL_StatusTypeDef USB_HostInit (USB_OTG_GlobalTypeDef *USBx, USB_OTG_CfgTypeDef cfg)
1228:Drivers/STM32F7xx_HAL_Driver/Src/stm32f7xx_ll_usb.c **** {
1229:Drivers/STM32F7xx_HAL_Driver/Src/stm32f7xx_ll_usb.c ****   uint32_t i;
1230:Drivers/STM32F7xx_HAL_Driver/Src/stm32f7xx_ll_usb.c **** 
1231:Drivers/STM32F7xx_HAL_Driver/Src/stm32f7xx_ll_usb.c ****   /* Restart the Phy Clock */
1232:Drivers/STM32F7xx_HAL_Driver/Src/stm32f7xx_ll_usb.c ****   USBx_PCGCCTL = 0;
1233:Drivers/STM32F7xx_HAL_Driver/Src/stm32f7xx_ll_usb.c **** 
1234:Drivers/STM32F7xx_HAL_Driver/Src/stm32f7xx_ll_usb.c ****   /*Activate VBUS Sensing B */
1235:Drivers/STM32F7xx_HAL_Driver/Src/stm32f7xx_ll_usb.c ****   USBx->GCCFG |= USB_OTG_GCCFG_VBDEN;
1236:Drivers/STM32F7xx_HAL_Driver/Src/stm32f7xx_ll_usb.c **** 
1237:Drivers/STM32F7xx_HAL_Driver/Src/stm32f7xx_ll_usb.c ****   /* Disable the FS/LS support mode only */
1238:Drivers/STM32F7xx_HAL_Driver/Src/stm32f7xx_ll_usb.c ****   if((cfg.speed == USB_OTG_SPEED_FULL)&&
1239:Drivers/STM32F7xx_HAL_Driver/Src/stm32f7xx_ll_usb.c ****      (USBx != USB_OTG_FS))
1240:Drivers/STM32F7xx_HAL_Driver/Src/stm32f7xx_ll_usb.c ****   {
ARM GAS  C:\Users\Student\AppData\Local\Temp\ccty2SRd.s 			page 70


1241:Drivers/STM32F7xx_HAL_Driver/Src/stm32f7xx_ll_usb.c ****     USBx_HOST->HCFG |= USB_OTG_HCFG_FSLSS;
1242:Drivers/STM32F7xx_HAL_Driver/Src/stm32f7xx_ll_usb.c ****   }
1243:Drivers/STM32F7xx_HAL_Driver/Src/stm32f7xx_ll_usb.c ****   else
1244:Drivers/STM32F7xx_HAL_Driver/Src/stm32f7xx_ll_usb.c ****   {
1245:Drivers/STM32F7xx_HAL_Driver/Src/stm32f7xx_ll_usb.c ****     USBx_HOST->HCFG &= ~(USB_OTG_HCFG_FSLSS);
1246:Drivers/STM32F7xx_HAL_Driver/Src/stm32f7xx_ll_usb.c ****   }
1247:Drivers/STM32F7xx_HAL_Driver/Src/stm32f7xx_ll_usb.c **** 
1248:Drivers/STM32F7xx_HAL_Driver/Src/stm32f7xx_ll_usb.c ****   /* Make sure the FIFOs are flushed. */
1249:Drivers/STM32F7xx_HAL_Driver/Src/stm32f7xx_ll_usb.c ****   USB_FlushTxFifo(USBx, 0x10 ); /* all Tx FIFOs */
1250:Drivers/STM32F7xx_HAL_Driver/Src/stm32f7xx_ll_usb.c ****   USB_FlushRxFifo(USBx);
1251:Drivers/STM32F7xx_HAL_Driver/Src/stm32f7xx_ll_usb.c **** 
1252:Drivers/STM32F7xx_HAL_Driver/Src/stm32f7xx_ll_usb.c ****   /* Clear all pending HC Interrupts */
1253:Drivers/STM32F7xx_HAL_Driver/Src/stm32f7xx_ll_usb.c ****   for (i = 0; i < cfg.Host_channels; i++)
1254:Drivers/STM32F7xx_HAL_Driver/Src/stm32f7xx_ll_usb.c ****   {
1255:Drivers/STM32F7xx_HAL_Driver/Src/stm32f7xx_ll_usb.c ****     USBx_HC(i)->HCINT = 0xFFFFFFFF;
1256:Drivers/STM32F7xx_HAL_Driver/Src/stm32f7xx_ll_usb.c ****     USBx_HC(i)->HCINTMSK = 0;
1257:Drivers/STM32F7xx_HAL_Driver/Src/stm32f7xx_ll_usb.c ****   }
1258:Drivers/STM32F7xx_HAL_Driver/Src/stm32f7xx_ll_usb.c **** 
1259:Drivers/STM32F7xx_HAL_Driver/Src/stm32f7xx_ll_usb.c ****   /* Enable VBUS driving */
1260:Drivers/STM32F7xx_HAL_Driver/Src/stm32f7xx_ll_usb.c ****   USB_DriveVbus(USBx, 1);
1261:Drivers/STM32F7xx_HAL_Driver/Src/stm32f7xx_ll_usb.c **** 
1262:Drivers/STM32F7xx_HAL_Driver/Src/stm32f7xx_ll_usb.c ****   HAL_Delay(200);
1263:Drivers/STM32F7xx_HAL_Driver/Src/stm32f7xx_ll_usb.c **** 
1264:Drivers/STM32F7xx_HAL_Driver/Src/stm32f7xx_ll_usb.c ****   /* Disable all interrupts. */
1265:Drivers/STM32F7xx_HAL_Driver/Src/stm32f7xx_ll_usb.c ****   USBx->GINTMSK = 0;
1266:Drivers/STM32F7xx_HAL_Driver/Src/stm32f7xx_ll_usb.c **** 
1267:Drivers/STM32F7xx_HAL_Driver/Src/stm32f7xx_ll_usb.c ****   /* Clear any pending interrupts */
1268:Drivers/STM32F7xx_HAL_Driver/Src/stm32f7xx_ll_usb.c ****   USBx->GINTSTS = 0xFFFFFFFF;
1269:Drivers/STM32F7xx_HAL_Driver/Src/stm32f7xx_ll_usb.c **** 
1270:Drivers/STM32F7xx_HAL_Driver/Src/stm32f7xx_ll_usb.c ****   if(USBx == USB_OTG_FS)
1271:Drivers/STM32F7xx_HAL_Driver/Src/stm32f7xx_ll_usb.c ****   {
1272:Drivers/STM32F7xx_HAL_Driver/Src/stm32f7xx_ll_usb.c ****     /* set Rx FIFO size */
1273:Drivers/STM32F7xx_HAL_Driver/Src/stm32f7xx_ll_usb.c ****     USBx->GRXFSIZ  = (uint32_t )0x80;
1274:Drivers/STM32F7xx_HAL_Driver/Src/stm32f7xx_ll_usb.c ****     USBx->DIEPTXF0_HNPTXFSIZ = (uint32_t )(((0x60 << 16)& USB_OTG_NPTXFD) | 0x80);
1275:Drivers/STM32F7xx_HAL_Driver/Src/stm32f7xx_ll_usb.c ****     USBx->HPTXFSIZ = (uint32_t )(((0x40 << 16)& USB_OTG_HPTXFSIZ_PTXFD) | 0xE0);
1276:Drivers/STM32F7xx_HAL_Driver/Src/stm32f7xx_ll_usb.c ****   }
1277:Drivers/STM32F7xx_HAL_Driver/Src/stm32f7xx_ll_usb.c ****   else
1278:Drivers/STM32F7xx_HAL_Driver/Src/stm32f7xx_ll_usb.c ****   {
1279:Drivers/STM32F7xx_HAL_Driver/Src/stm32f7xx_ll_usb.c ****     /* set Rx FIFO size */
1280:Drivers/STM32F7xx_HAL_Driver/Src/stm32f7xx_ll_usb.c ****     USBx->GRXFSIZ  = (uint32_t )0x200;
1281:Drivers/STM32F7xx_HAL_Driver/Src/stm32f7xx_ll_usb.c ****     USBx->DIEPTXF0_HNPTXFSIZ = (uint32_t )(((0x100 << 16)& USB_OTG_NPTXFD) | 0x200);
1282:Drivers/STM32F7xx_HAL_Driver/Src/stm32f7xx_ll_usb.c ****     USBx->HPTXFSIZ = (uint32_t )(((0xE0 << 16)& USB_OTG_HPTXFSIZ_PTXFD) | 0x300);
1283:Drivers/STM32F7xx_HAL_Driver/Src/stm32f7xx_ll_usb.c ****   }
1284:Drivers/STM32F7xx_HAL_Driver/Src/stm32f7xx_ll_usb.c **** 
1285:Drivers/STM32F7xx_HAL_Driver/Src/stm32f7xx_ll_usb.c ****   /* Enable the common interrupts */
1286:Drivers/STM32F7xx_HAL_Driver/Src/stm32f7xx_ll_usb.c ****   if (cfg.dma_enable == DISABLE)
1287:Drivers/STM32F7xx_HAL_Driver/Src/stm32f7xx_ll_usb.c ****   {
1288:Drivers/STM32F7xx_HAL_Driver/Src/stm32f7xx_ll_usb.c ****     USBx->GINTMSK |= USB_OTG_GINTMSK_RXFLVLM;
1289:Drivers/STM32F7xx_HAL_Driver/Src/stm32f7xx_ll_usb.c ****   }
1290:Drivers/STM32F7xx_HAL_Driver/Src/stm32f7xx_ll_usb.c **** 
1291:Drivers/STM32F7xx_HAL_Driver/Src/stm32f7xx_ll_usb.c ****   /* Enable interrupts matching to the Host mode ONLY */
1292:Drivers/STM32F7xx_HAL_Driver/Src/stm32f7xx_ll_usb.c ****   USBx->GINTMSK |= (USB_OTG_GINTMSK_PRTIM            | USB_OTG_GINTMSK_HCIM |\
1293:Drivers/STM32F7xx_HAL_Driver/Src/stm32f7xx_ll_usb.c ****                     USB_OTG_GINTMSK_SOFM             |USB_OTG_GINTSTS_DISCINT|\
1294:Drivers/STM32F7xx_HAL_Driver/Src/stm32f7xx_ll_usb.c ****                     USB_OTG_GINTMSK_PXFRM_IISOOXFRM  | USB_OTG_GINTMSK_WUIM);
1295:Drivers/STM32F7xx_HAL_Driver/Src/stm32f7xx_ll_usb.c **** 
1296:Drivers/STM32F7xx_HAL_Driver/Src/stm32f7xx_ll_usb.c ****   return HAL_OK;
1297:Drivers/STM32F7xx_HAL_Driver/Src/stm32f7xx_ll_usb.c **** }
ARM GAS  C:\Users\Student\AppData\Local\Temp\ccty2SRd.s 			page 71


1298:Drivers/STM32F7xx_HAL_Driver/Src/stm32f7xx_ll_usb.c **** 
1299:Drivers/STM32F7xx_HAL_Driver/Src/stm32f7xx_ll_usb.c **** /**
1300:Drivers/STM32F7xx_HAL_Driver/Src/stm32f7xx_ll_usb.c ****   * @brief  USB_InitFSLSPClkSel : Initializes the FSLSPClkSel field of the
1301:Drivers/STM32F7xx_HAL_Driver/Src/stm32f7xx_ll_usb.c ****   *         HCFG register on the PHY type and set the right frame interval
1302:Drivers/STM32F7xx_HAL_Driver/Src/stm32f7xx_ll_usb.c ****   * @param  USBx : Selected device
1303:Drivers/STM32F7xx_HAL_Driver/Src/stm32f7xx_ll_usb.c ****   * @param  freq : clock frequency
1304:Drivers/STM32F7xx_HAL_Driver/Src/stm32f7xx_ll_usb.c ****   *          This parameter can be one of these values:
1305:Drivers/STM32F7xx_HAL_Driver/Src/stm32f7xx_ll_usb.c ****   *           HCFG_48_MHZ : Full Speed 48 MHz Clock
1306:Drivers/STM32F7xx_HAL_Driver/Src/stm32f7xx_ll_usb.c ****   *           HCFG_6_MHZ : Low Speed 6 MHz Clock
1307:Drivers/STM32F7xx_HAL_Driver/Src/stm32f7xx_ll_usb.c ****   * @retval HAL status
1308:Drivers/STM32F7xx_HAL_Driver/Src/stm32f7xx_ll_usb.c ****   */
1309:Drivers/STM32F7xx_HAL_Driver/Src/stm32f7xx_ll_usb.c **** HAL_StatusTypeDef USB_InitFSLSPClkSel(USB_OTG_GlobalTypeDef *USBx , uint8_t freq)
1310:Drivers/STM32F7xx_HAL_Driver/Src/stm32f7xx_ll_usb.c **** {
 2438              		.loc 1 1310 0
 2439              		.cfi_startproc
 2440              		@ args = 0, pretend = 0, frame = 0
 2441              		@ frame_needed = 0, uses_anonymous_args = 0
 2442              		@ link register save eliminated.
 2443              	.LVL192:
 2444 0000 10B4     		push	{r4}
 2445              	.LCFI37:
 2446              		.cfi_def_cfa_offset 4
 2447              		.cfi_offset 4, -4
1311:Drivers/STM32F7xx_HAL_Driver/Src/stm32f7xx_ll_usb.c ****   USBx_HOST->HCFG &= ~(USB_OTG_HCFG_FSLSPCS);
 2448              		.loc 1 1311 0
 2449 0002 00F58064 		add	r4, r0, #1024
 2450 0006 D0F80034 		ldr	r3, [r0, #1024]
 2451 000a 23F00303 		bic	r3, r3, #3
 2452 000e C0F80034 		str	r3, [r0, #1024]
1312:Drivers/STM32F7xx_HAL_Driver/Src/stm32f7xx_ll_usb.c ****   USBx_HOST->HCFG |= (freq & USB_OTG_HCFG_FSLSPCS);
 2453              		.loc 1 1312 0
 2454 0012 D0F80034 		ldr	r3, [r0, #1024]
 2455 0016 01F00302 		and	r2, r1, #3
 2456 001a 1343     		orrs	r3, r3, r2
 2457 001c C0F80034 		str	r3, [r0, #1024]
1313:Drivers/STM32F7xx_HAL_Driver/Src/stm32f7xx_ll_usb.c **** 
1314:Drivers/STM32F7xx_HAL_Driver/Src/stm32f7xx_ll_usb.c ****   if (freq ==  HCFG_48_MHZ)
 2458              		.loc 1 1314 0
 2459 0020 0129     		cmp	r1, #1
 2460 0022 05D0     		beq	.L194
1315:Drivers/STM32F7xx_HAL_Driver/Src/stm32f7xx_ll_usb.c ****   {
1316:Drivers/STM32F7xx_HAL_Driver/Src/stm32f7xx_ll_usb.c ****     USBx_HOST->HFIR = (uint32_t)48000;
1317:Drivers/STM32F7xx_HAL_Driver/Src/stm32f7xx_ll_usb.c ****   }
1318:Drivers/STM32F7xx_HAL_Driver/Src/stm32f7xx_ll_usb.c ****   else if (freq ==  HCFG_6_MHZ)
 2461              		.loc 1 1318 0
 2462 0024 0229     		cmp	r1, #2
 2463 0026 07D0     		beq	.L195
 2464              	.L192:
1319:Drivers/STM32F7xx_HAL_Driver/Src/stm32f7xx_ll_usb.c ****   {
1320:Drivers/STM32F7xx_HAL_Driver/Src/stm32f7xx_ll_usb.c ****     USBx_HOST->HFIR = (uint32_t)6000;
1321:Drivers/STM32F7xx_HAL_Driver/Src/stm32f7xx_ll_usb.c ****   }
1322:Drivers/STM32F7xx_HAL_Driver/Src/stm32f7xx_ll_usb.c ****   return HAL_OK;
1323:Drivers/STM32F7xx_HAL_Driver/Src/stm32f7xx_ll_usb.c **** }
 2465              		.loc 1 1323 0
 2466 0028 0020     		movs	r0, #0
 2467              	.LVL193:
 2468 002a 5DF8044B 		ldr	r4, [sp], #4
ARM GAS  C:\Users\Student\AppData\Local\Temp\ccty2SRd.s 			page 72


 2469              	.LCFI38:
 2470              		.cfi_remember_state
 2471              		.cfi_restore 4
 2472              		.cfi_def_cfa_offset 0
 2473              	.LVL194:
 2474 002e 7047     		bx	lr
 2475              	.LVL195:
 2476              	.L194:
 2477              	.LCFI39:
 2478              		.cfi_restore_state
1316:Drivers/STM32F7xx_HAL_Driver/Src/stm32f7xx_ll_usb.c ****   }
 2479              		.loc 1 1316 0
 2480 0030 4BF68033 		movw	r3, #48000
 2481 0034 6360     		str	r3, [r4, #4]
 2482 0036 F7E7     		b	.L192
 2483              	.L195:
1320:Drivers/STM32F7xx_HAL_Driver/Src/stm32f7xx_ll_usb.c ****   }
 2484              		.loc 1 1320 0
 2485 0038 41F27073 		movw	r3, #6000
 2486 003c 6360     		str	r3, [r4, #4]
 2487 003e F3E7     		b	.L192
 2488              		.cfi_endproc
 2489              	.LFE170:
 2491              		.section	.text.USB_ResetPort,"ax",%progbits
 2492              		.align	1
 2493              		.global	USB_ResetPort
 2494              		.syntax unified
 2495              		.thumb
 2496              		.thumb_func
 2497              		.fpu fpv5-sp-d16
 2499              	USB_ResetPort:
 2500              	.LFB171:
1324:Drivers/STM32F7xx_HAL_Driver/Src/stm32f7xx_ll_usb.c **** 
1325:Drivers/STM32F7xx_HAL_Driver/Src/stm32f7xx_ll_usb.c **** /**
1326:Drivers/STM32F7xx_HAL_Driver/Src/stm32f7xx_ll_usb.c **** * @brief  USB_OTG_ResetPort : Reset Host Port
1327:Drivers/STM32F7xx_HAL_Driver/Src/stm32f7xx_ll_usb.c ****   * @param  USBx : Selected device
1328:Drivers/STM32F7xx_HAL_Driver/Src/stm32f7xx_ll_usb.c ****   * @retval HAL status
1329:Drivers/STM32F7xx_HAL_Driver/Src/stm32f7xx_ll_usb.c ****   * @note : (1)The application must wait at least 10 ms
1330:Drivers/STM32F7xx_HAL_Driver/Src/stm32f7xx_ll_usb.c ****   *   before clearing the reset bit.
1331:Drivers/STM32F7xx_HAL_Driver/Src/stm32f7xx_ll_usb.c ****   */
1332:Drivers/STM32F7xx_HAL_Driver/Src/stm32f7xx_ll_usb.c **** HAL_StatusTypeDef USB_ResetPort(USB_OTG_GlobalTypeDef *USBx)
1333:Drivers/STM32F7xx_HAL_Driver/Src/stm32f7xx_ll_usb.c **** {
 2501              		.loc 1 1333 0
 2502              		.cfi_startproc
 2503              		@ args = 0, pretend = 0, frame = 8
 2504              		@ frame_needed = 0, uses_anonymous_args = 0
 2505              	.LVL196:
 2506 0000 10B5     		push	{r4, lr}
 2507              	.LCFI40:
 2508              		.cfi_def_cfa_offset 8
 2509              		.cfi_offset 4, -8
 2510              		.cfi_offset 14, -4
 2511 0002 82B0     		sub	sp, sp, #8
 2512              	.LCFI41:
 2513              		.cfi_def_cfa_offset 16
 2514 0004 0446     		mov	r4, r0
1334:Drivers/STM32F7xx_HAL_Driver/Src/stm32f7xx_ll_usb.c ****   __IO uint32_t hprt0;
ARM GAS  C:\Users\Student\AppData\Local\Temp\ccty2SRd.s 			page 73


1335:Drivers/STM32F7xx_HAL_Driver/Src/stm32f7xx_ll_usb.c **** 
1336:Drivers/STM32F7xx_HAL_Driver/Src/stm32f7xx_ll_usb.c ****   hprt0 = USBx_HPRT0;
 2515              		.loc 1 1336 0
 2516 0006 D0F84034 		ldr	r3, [r0, #1088]
 2517 000a 0193     		str	r3, [sp, #4]
1337:Drivers/STM32F7xx_HAL_Driver/Src/stm32f7xx_ll_usb.c **** 
1338:Drivers/STM32F7xx_HAL_Driver/Src/stm32f7xx_ll_usb.c ****   hprt0 &= ~(USB_OTG_HPRT_PENA | USB_OTG_HPRT_PCDET |
 2518              		.loc 1 1338 0
 2519 000c 019B     		ldr	r3, [sp, #4]
 2520 000e 23F02E03 		bic	r3, r3, #46
 2521 0012 0193     		str	r3, [sp, #4]
1339:Drivers/STM32F7xx_HAL_Driver/Src/stm32f7xx_ll_usb.c ****              USB_OTG_HPRT_PENCHNG | USB_OTG_HPRT_POCCHNG);
1340:Drivers/STM32F7xx_HAL_Driver/Src/stm32f7xx_ll_usb.c **** 
1341:Drivers/STM32F7xx_HAL_Driver/Src/stm32f7xx_ll_usb.c ****   USBx_HPRT0 = (USB_OTG_HPRT_PRST | hprt0);
 2522              		.loc 1 1341 0
 2523 0014 019B     		ldr	r3, [sp, #4]
 2524 0016 43F48073 		orr	r3, r3, #256
 2525 001a C0F84034 		str	r3, [r0, #1088]
1342:Drivers/STM32F7xx_HAL_Driver/Src/stm32f7xx_ll_usb.c ****   HAL_Delay (100);                                /* See Note #1 */
 2526              		.loc 1 1342 0
 2527 001e 6420     		movs	r0, #100
 2528              	.LVL197:
 2529 0020 FFF7FEFF 		bl	HAL_Delay
 2530              	.LVL198:
1343:Drivers/STM32F7xx_HAL_Driver/Src/stm32f7xx_ll_usb.c ****   USBx_HPRT0 = ((~USB_OTG_HPRT_PRST) & hprt0);
 2531              		.loc 1 1343 0
 2532 0024 019B     		ldr	r3, [sp, #4]
 2533 0026 23F48073 		bic	r3, r3, #256
 2534 002a C4F84034 		str	r3, [r4, #1088]
1344:Drivers/STM32F7xx_HAL_Driver/Src/stm32f7xx_ll_usb.c ****   HAL_Delay (10);
 2535              		.loc 1 1344 0
 2536 002e 0A20     		movs	r0, #10
 2537 0030 FFF7FEFF 		bl	HAL_Delay
 2538              	.LVL199:
1345:Drivers/STM32F7xx_HAL_Driver/Src/stm32f7xx_ll_usb.c **** 
1346:Drivers/STM32F7xx_HAL_Driver/Src/stm32f7xx_ll_usb.c ****   return HAL_OK;
1347:Drivers/STM32F7xx_HAL_Driver/Src/stm32f7xx_ll_usb.c **** }
 2539              		.loc 1 1347 0
 2540 0034 0020     		movs	r0, #0
 2541 0036 02B0     		add	sp, sp, #8
 2542              	.LCFI42:
 2543              		.cfi_def_cfa_offset 8
 2544              		@ sp needed
 2545 0038 10BD     		pop	{r4, pc}
 2546              		.cfi_endproc
 2547              	.LFE171:
 2549              		.section	.text.USB_DriveVbus,"ax",%progbits
 2550              		.align	1
 2551              		.global	USB_DriveVbus
 2552              		.syntax unified
 2553              		.thumb
 2554              		.thumb_func
 2555              		.fpu fpv5-sp-d16
 2557              	USB_DriveVbus:
 2558              	.LFB172:
1348:Drivers/STM32F7xx_HAL_Driver/Src/stm32f7xx_ll_usb.c **** 
1349:Drivers/STM32F7xx_HAL_Driver/Src/stm32f7xx_ll_usb.c **** /**
ARM GAS  C:\Users\Student\AppData\Local\Temp\ccty2SRd.s 			page 74


1350:Drivers/STM32F7xx_HAL_Driver/Src/stm32f7xx_ll_usb.c ****   * @brief  USB_DriveVbus : activate or de-activate vbus
1351:Drivers/STM32F7xx_HAL_Driver/Src/stm32f7xx_ll_usb.c ****   * @param  state : VBUS state
1352:Drivers/STM32F7xx_HAL_Driver/Src/stm32f7xx_ll_usb.c ****   *          This parameter can be one of these values:
1353:Drivers/STM32F7xx_HAL_Driver/Src/stm32f7xx_ll_usb.c ****   *           0 : VBUS Active
1354:Drivers/STM32F7xx_HAL_Driver/Src/stm32f7xx_ll_usb.c ****   *           1 : VBUS Inactive
1355:Drivers/STM32F7xx_HAL_Driver/Src/stm32f7xx_ll_usb.c ****   * @retval HAL status
1356:Drivers/STM32F7xx_HAL_Driver/Src/stm32f7xx_ll_usb.c **** */
1357:Drivers/STM32F7xx_HAL_Driver/Src/stm32f7xx_ll_usb.c **** HAL_StatusTypeDef USB_DriveVbus (USB_OTG_GlobalTypeDef *USBx, uint8_t state)
1358:Drivers/STM32F7xx_HAL_Driver/Src/stm32f7xx_ll_usb.c **** {
 2559              		.loc 1 1358 0
 2560              		.cfi_startproc
 2561              		@ args = 0, pretend = 0, frame = 8
 2562              		@ frame_needed = 0, uses_anonymous_args = 0
 2563              		@ link register save eliminated.
 2564              	.LVL200:
 2565 0000 82B0     		sub	sp, sp, #8
 2566              	.LCFI43:
 2567              		.cfi_def_cfa_offset 8
1359:Drivers/STM32F7xx_HAL_Driver/Src/stm32f7xx_ll_usb.c ****   __IO uint32_t hprt0;
1360:Drivers/STM32F7xx_HAL_Driver/Src/stm32f7xx_ll_usb.c **** 
1361:Drivers/STM32F7xx_HAL_Driver/Src/stm32f7xx_ll_usb.c ****   hprt0 = USBx_HPRT0;
 2568              		.loc 1 1361 0
 2569 0002 D0F84034 		ldr	r3, [r0, #1088]
 2570 0006 0193     		str	r3, [sp, #4]
1362:Drivers/STM32F7xx_HAL_Driver/Src/stm32f7xx_ll_usb.c **** 
1363:Drivers/STM32F7xx_HAL_Driver/Src/stm32f7xx_ll_usb.c ****   hprt0 &= ~(USB_OTG_HPRT_PENA | USB_OTG_HPRT_PCDET |
 2571              		.loc 1 1363 0
 2572 0008 019B     		ldr	r3, [sp, #4]
 2573 000a 23F02E03 		bic	r3, r3, #46
 2574 000e 0193     		str	r3, [sp, #4]
1364:Drivers/STM32F7xx_HAL_Driver/Src/stm32f7xx_ll_usb.c ****              USB_OTG_HPRT_PENCHNG | USB_OTG_HPRT_POCCHNG);
1365:Drivers/STM32F7xx_HAL_Driver/Src/stm32f7xx_ll_usb.c **** 
1366:Drivers/STM32F7xx_HAL_Driver/Src/stm32f7xx_ll_usb.c ****   if (((hprt0 & USB_OTG_HPRT_PPWR) == 0 ) && (state == 1 ))
 2575              		.loc 1 1366 0
 2576 0010 019B     		ldr	r3, [sp, #4]
 2577 0012 13F4805F 		tst	r3, #4096
 2578 0016 01D1     		bne	.L199
 2579              		.loc 1 1366 0 is_stmt 0 discriminator 1
 2580 0018 0129     		cmp	r1, #1
 2581 001a 0CD0     		beq	.L202
 2582              	.L199:
1367:Drivers/STM32F7xx_HAL_Driver/Src/stm32f7xx_ll_usb.c ****   {
1368:Drivers/STM32F7xx_HAL_Driver/Src/stm32f7xx_ll_usb.c ****     USBx_HPRT0 = (USB_OTG_HPRT_PPWR | hprt0);
1369:Drivers/STM32F7xx_HAL_Driver/Src/stm32f7xx_ll_usb.c ****   }
1370:Drivers/STM32F7xx_HAL_Driver/Src/stm32f7xx_ll_usb.c ****   if (((hprt0 & USB_OTG_HPRT_PPWR) == USB_OTG_HPRT_PPWR) && (state == 0 ))
 2583              		.loc 1 1370 0 is_stmt 1
 2584 001c 019B     		ldr	r3, [sp, #4]
 2585 001e 13F4805F 		tst	r3, #4096
 2586 0022 05D0     		beq	.L200
 2587              		.loc 1 1370 0 is_stmt 0 discriminator 1
 2588 0024 21B9     		cbnz	r1, .L200
1371:Drivers/STM32F7xx_HAL_Driver/Src/stm32f7xx_ll_usb.c ****   {
1372:Drivers/STM32F7xx_HAL_Driver/Src/stm32f7xx_ll_usb.c ****     USBx_HPRT0 = ((~USB_OTG_HPRT_PPWR) & hprt0);
 2589              		.loc 1 1372 0 is_stmt 1
 2590 0026 019B     		ldr	r3, [sp, #4]
 2591 0028 23F48053 		bic	r3, r3, #4096
 2592 002c C0F84034 		str	r3, [r0, #1088]
ARM GAS  C:\Users\Student\AppData\Local\Temp\ccty2SRd.s 			page 75


 2593              	.L200:
1373:Drivers/STM32F7xx_HAL_Driver/Src/stm32f7xx_ll_usb.c ****   }
1374:Drivers/STM32F7xx_HAL_Driver/Src/stm32f7xx_ll_usb.c ****   return HAL_OK;
1375:Drivers/STM32F7xx_HAL_Driver/Src/stm32f7xx_ll_usb.c **** }
 2594              		.loc 1 1375 0
 2595 0030 0020     		movs	r0, #0
 2596              	.LVL201:
 2597 0032 02B0     		add	sp, sp, #8
 2598              	.LCFI44:
 2599              		.cfi_remember_state
 2600              		.cfi_def_cfa_offset 0
 2601              		@ sp needed
 2602 0034 7047     		bx	lr
 2603              	.LVL202:
 2604              	.L202:
 2605              	.LCFI45:
 2606              		.cfi_restore_state
1368:Drivers/STM32F7xx_HAL_Driver/Src/stm32f7xx_ll_usb.c ****   }
 2607              		.loc 1 1368 0
 2608 0036 019B     		ldr	r3, [sp, #4]
 2609 0038 43F48053 		orr	r3, r3, #4096
 2610 003c C0F84034 		str	r3, [r0, #1088]
 2611 0040 ECE7     		b	.L199
 2612              		.cfi_endproc
 2613              	.LFE172:
 2615              		.section	.text.USB_HostInit,"ax",%progbits
 2616              		.align	1
 2617              		.global	USB_HostInit
 2618              		.syntax unified
 2619              		.thumb
 2620              		.thumb_func
 2621              		.fpu fpv5-sp-d16
 2623              	USB_HostInit:
 2624              	.LFB169:
1228:Drivers/STM32F7xx_HAL_Driver/Src/stm32f7xx_ll_usb.c ****   uint32_t i;
 2625              		.loc 1 1228 0
 2626              		.cfi_startproc
 2627              		@ args = 56, pretend = 16, frame = 0
 2628              		@ frame_needed = 0, uses_anonymous_args = 0
 2629              	.LVL203:
 2630 0000 84B0     		sub	sp, sp, #16
 2631              	.LCFI46:
 2632              		.cfi_def_cfa_offset 16
 2633 0002 38B5     		push	{r3, r4, r5, lr}
 2634              	.LCFI47:
 2635              		.cfi_def_cfa_offset 32
 2636              		.cfi_offset 3, -32
 2637              		.cfi_offset 4, -28
 2638              		.cfi_offset 5, -24
 2639              		.cfi_offset 14, -20
 2640 0004 0446     		mov	r4, r0
 2641 0006 05A8     		add	r0, sp, #20
 2642              	.LVL204:
 2643 0008 80E80E00 		stm	r0, {r1, r2, r3}
1232:Drivers/STM32F7xx_HAL_Driver/Src/stm32f7xx_ll_usb.c **** 
 2644              		.loc 1 1232 0
 2645 000c 2546     		mov	r5, r4
ARM GAS  C:\Users\Student\AppData\Local\Temp\ccty2SRd.s 			page 76


 2646 000e 0023     		movs	r3, #0
 2647 0010 C4F8003E 		str	r3, [r4, #3584]
1235:Drivers/STM32F7xx_HAL_Driver/Src/stm32f7xx_ll_usb.c **** 
 2648              		.loc 1 1235 0
 2649 0014 A36B     		ldr	r3, [r4, #56]
 2650 0016 43F40013 		orr	r3, r3, #2097152
 2651 001a A363     		str	r3, [r4, #56]
1238:Drivers/STM32F7xx_HAL_Driver/Src/stm32f7xx_ll_usb.c ****      (USBx != USB_OTG_FS))
 2652              		.loc 1 1238 0
 2653 001c 079B     		ldr	r3, [sp, #28]
 2654 001e 032B     		cmp	r3, #3
 2655 0020 0ED0     		beq	.L212
 2656              	.L204:
1245:Drivers/STM32F7xx_HAL_Driver/Src/stm32f7xx_ll_usb.c ****   }
 2657              		.loc 1 1245 0
 2658 0022 D4F80034 		ldr	r3, [r4, #1024]
 2659 0026 23F00403 		bic	r3, r3, #4
 2660 002a C4F80034 		str	r3, [r4, #1024]
 2661              	.L205:
1249:Drivers/STM32F7xx_HAL_Driver/Src/stm32f7xx_ll_usb.c ****   USB_FlushRxFifo(USBx);
 2662              		.loc 1 1249 0
 2663 002e 1021     		movs	r1, #16
 2664 0030 2046     		mov	r0, r4
 2665 0032 FFF7FEFF 		bl	USB_FlushTxFifo
 2666              	.LVL205:
1250:Drivers/STM32F7xx_HAL_Driver/Src/stm32f7xx_ll_usb.c **** 
 2667              		.loc 1 1250 0
 2668 0036 2046     		mov	r0, r4
 2669 0038 FFF7FEFF 		bl	USB_FlushRxFifo
 2670              	.LVL206:
1253:Drivers/STM32F7xx_HAL_Driver/Src/stm32f7xx_ll_usb.c ****   {
 2671              		.loc 1 1253 0
 2672 003c 0022     		movs	r2, #0
 2673 003e 13E0     		b	.L206
 2674              	.LVL207:
 2675              	.L212:
1238:Drivers/STM32F7xx_HAL_Driver/Src/stm32f7xx_ll_usb.c ****      (USBx != USB_OTG_FS))
 2676              		.loc 1 1238 0 discriminator 1
 2677 0040 B4F1A04F 		cmp	r4, #1342177280
 2678 0044 EDD0     		beq	.L204
1241:Drivers/STM32F7xx_HAL_Driver/Src/stm32f7xx_ll_usb.c ****   }
 2679              		.loc 1 1241 0
 2680 0046 D4F80034 		ldr	r3, [r4, #1024]
 2681 004a 43F00403 		orr	r3, r3, #4
 2682 004e C4F80034 		str	r3, [r4, #1024]
 2683 0052 ECE7     		b	.L205
 2684              	.LVL208:
 2685              	.L207:
1255:Drivers/STM32F7xx_HAL_Driver/Src/stm32f7xx_ll_usb.c ****     USBx_HC(i)->HCINTMSK = 0;
 2686              		.loc 1 1255 0 discriminator 3
 2687 0054 05EB4213 		add	r3, r5, r2, lsl #5
 2688 0058 4FF0FF31 		mov	r1, #-1
 2689 005c C3F80815 		str	r1, [r3, #1288]
1256:Drivers/STM32F7xx_HAL_Driver/Src/stm32f7xx_ll_usb.c ****   }
 2690              		.loc 1 1256 0 discriminator 3
 2691 0060 0021     		movs	r1, #0
 2692 0062 C3F80C15 		str	r1, [r3, #1292]
ARM GAS  C:\Users\Student\AppData\Local\Temp\ccty2SRd.s 			page 77


1253:Drivers/STM32F7xx_HAL_Driver/Src/stm32f7xx_ll_usb.c ****   {
 2693              		.loc 1 1253 0 discriminator 3
 2694 0066 0132     		adds	r2, r2, #1
 2695              	.LVL209:
 2696              	.L206:
1253:Drivers/STM32F7xx_HAL_Driver/Src/stm32f7xx_ll_usb.c ****   {
 2697              		.loc 1 1253 0 is_stmt 0 discriminator 1
 2698 0068 069B     		ldr	r3, [sp, #24]
 2699 006a 9A42     		cmp	r2, r3
 2700 006c F2D3     		bcc	.L207
1260:Drivers/STM32F7xx_HAL_Driver/Src/stm32f7xx_ll_usb.c **** 
 2701              		.loc 1 1260 0 is_stmt 1
 2702 006e 0121     		movs	r1, #1
 2703 0070 2046     		mov	r0, r4
 2704 0072 FFF7FEFF 		bl	USB_DriveVbus
 2705              	.LVL210:
1262:Drivers/STM32F7xx_HAL_Driver/Src/stm32f7xx_ll_usb.c **** 
 2706              		.loc 1 1262 0
 2707 0076 C820     		movs	r0, #200
 2708 0078 FFF7FEFF 		bl	HAL_Delay
 2709              	.LVL211:
1265:Drivers/STM32F7xx_HAL_Driver/Src/stm32f7xx_ll_usb.c **** 
 2710              		.loc 1 1265 0
 2711 007c 0023     		movs	r3, #0
 2712 007e A361     		str	r3, [r4, #24]
1268:Drivers/STM32F7xx_HAL_Driver/Src/stm32f7xx_ll_usb.c **** 
 2713              		.loc 1 1268 0
 2714 0080 4FF0FF33 		mov	r3, #-1
 2715 0084 6361     		str	r3, [r4, #20]
1270:Drivers/STM32F7xx_HAL_Driver/Src/stm32f7xx_ll_usb.c ****   {
 2716              		.loc 1 1270 0
 2717 0086 B4F1A04F 		cmp	r4, #1342177280
 2718 008a 17D0     		beq	.L213
1280:Drivers/STM32F7xx_HAL_Driver/Src/stm32f7xx_ll_usb.c ****     USBx->DIEPTXF0_HNPTXFSIZ = (uint32_t )(((0x100 << 16)& USB_OTG_NPTXFD) | 0x200);
 2719              		.loc 1 1280 0
 2720 008c 4FF40073 		mov	r3, #512
 2721 0090 6362     		str	r3, [r4, #36]
1281:Drivers/STM32F7xx_HAL_Driver/Src/stm32f7xx_ll_usb.c ****     USBx->HPTXFSIZ = (uint32_t )(((0xE0 << 16)& USB_OTG_HPTXFSIZ_PTXFD) | 0x300);
 2722              		.loc 1 1281 0
 2723 0092 03F18073 		add	r3, r3, #16777216
 2724 0096 A362     		str	r3, [r4, #40]
1282:Drivers/STM32F7xx_HAL_Driver/Src/stm32f7xx_ll_usb.c ****   }
 2725              		.loc 1 1282 0
 2726 0098 0D4B     		ldr	r3, .L214
 2727 009a C4F80031 		str	r3, [r4, #256]
 2728              	.L209:
1286:Drivers/STM32F7xx_HAL_Driver/Src/stm32f7xx_ll_usb.c ****   {
 2729              		.loc 1 1286 0
 2730 009e 089B     		ldr	r3, [sp, #32]
 2731 00a0 1BB9     		cbnz	r3, .L210
1288:Drivers/STM32F7xx_HAL_Driver/Src/stm32f7xx_ll_usb.c ****   }
 2732              		.loc 1 1288 0
 2733 00a2 A369     		ldr	r3, [r4, #24]
 2734 00a4 43F01003 		orr	r3, r3, #16
 2735 00a8 A361     		str	r3, [r4, #24]
 2736              	.L210:
1292:Drivers/STM32F7xx_HAL_Driver/Src/stm32f7xx_ll_usb.c ****                     USB_OTG_GINTMSK_SOFM             |USB_OTG_GINTSTS_DISCINT|\
ARM GAS  C:\Users\Student\AppData\Local\Temp\ccty2SRd.s 			page 78


 2737              		.loc 1 1292 0
 2738 00aa A269     		ldr	r2, [r4, #24]
 2739 00ac 094B     		ldr	r3, .L214+4
 2740 00ae 1343     		orrs	r3, r3, r2
 2741 00b0 A361     		str	r3, [r4, #24]
1297:Drivers/STM32F7xx_HAL_Driver/Src/stm32f7xx_ll_usb.c **** 
 2742              		.loc 1 1297 0
 2743 00b2 0020     		movs	r0, #0
 2744 00b4 BDE83840 		pop	{r3, r4, r5, lr}
 2745              	.LCFI48:
 2746              		.cfi_remember_state
 2747              		.cfi_restore 14
 2748              		.cfi_restore 5
 2749              		.cfi_restore 4
 2750              		.cfi_restore 3
 2751              		.cfi_def_cfa_offset 16
 2752              	.LVL212:
 2753 00b8 04B0     		add	sp, sp, #16
 2754              	.LCFI49:
 2755              		.cfi_def_cfa_offset 0
 2756 00ba 7047     		bx	lr
 2757              	.LVL213:
 2758              	.L213:
 2759              	.LCFI50:
 2760              		.cfi_restore_state
1273:Drivers/STM32F7xx_HAL_Driver/Src/stm32f7xx_ll_usb.c ****     USBx->DIEPTXF0_HNPTXFSIZ = (uint32_t )(((0x60 << 16)& USB_OTG_NPTXFD) | 0x80);
 2761              		.loc 1 1273 0
 2762 00bc 8023     		movs	r3, #128
 2763 00be 6362     		str	r3, [r4, #36]
1274:Drivers/STM32F7xx_HAL_Driver/Src/stm32f7xx_ll_usb.c ****     USBx->HPTXFSIZ = (uint32_t )(((0x40 << 16)& USB_OTG_HPTXFSIZ_PTXFD) | 0xE0);
 2764              		.loc 1 1274 0
 2765 00c0 03F5C003 		add	r3, r3, #6291456
 2766 00c4 A362     		str	r3, [r4, #40]
1275:Drivers/STM32F7xx_HAL_Driver/Src/stm32f7xx_ll_usb.c ****   }
 2767              		.loc 1 1275 0
 2768 00c6 044B     		ldr	r3, .L214+8
 2769 00c8 C4F80031 		str	r3, [r4, #256]
 2770 00cc E7E7     		b	.L209
 2771              	.L215:
 2772 00ce 00BF     		.align	2
 2773              	.L214:
 2774 00d0 0003E000 		.word	14680832
 2775 00d4 080020A3 		.word	-1558183928
 2776 00d8 E0004000 		.word	4194528
 2777              		.cfi_endproc
 2778              	.LFE169:
 2780              		.section	.text.USB_GetHostSpeed,"ax",%progbits
 2781              		.align	1
 2782              		.global	USB_GetHostSpeed
 2783              		.syntax unified
 2784              		.thumb
 2785              		.thumb_func
 2786              		.fpu fpv5-sp-d16
 2788              	USB_GetHostSpeed:
 2789              	.LFB173:
1376:Drivers/STM32F7xx_HAL_Driver/Src/stm32f7xx_ll_usb.c **** 
1377:Drivers/STM32F7xx_HAL_Driver/Src/stm32f7xx_ll_usb.c **** /**
ARM GAS  C:\Users\Student\AppData\Local\Temp\ccty2SRd.s 			page 79


1378:Drivers/STM32F7xx_HAL_Driver/Src/stm32f7xx_ll_usb.c ****   * @brief  Return Host Core speed
1379:Drivers/STM32F7xx_HAL_Driver/Src/stm32f7xx_ll_usb.c ****   * @param  USBx : Selected device
1380:Drivers/STM32F7xx_HAL_Driver/Src/stm32f7xx_ll_usb.c ****   * @retval speed : Host speed
1381:Drivers/STM32F7xx_HAL_Driver/Src/stm32f7xx_ll_usb.c ****   *          This parameter can be one of these values:
1382:Drivers/STM32F7xx_HAL_Driver/Src/stm32f7xx_ll_usb.c ****   *            @arg USB_OTG_SPEED_HIGH: High speed mode
1383:Drivers/STM32F7xx_HAL_Driver/Src/stm32f7xx_ll_usb.c ****   *            @arg USB_OTG_SPEED_FULL: Full speed mode
1384:Drivers/STM32F7xx_HAL_Driver/Src/stm32f7xx_ll_usb.c ****   *            @arg USB_OTG_SPEED_LOW: Low speed mode
1385:Drivers/STM32F7xx_HAL_Driver/Src/stm32f7xx_ll_usb.c ****   */
1386:Drivers/STM32F7xx_HAL_Driver/Src/stm32f7xx_ll_usb.c **** uint32_t USB_GetHostSpeed (USB_OTG_GlobalTypeDef *USBx)
1387:Drivers/STM32F7xx_HAL_Driver/Src/stm32f7xx_ll_usb.c **** {
 2790              		.loc 1 1387 0
 2791              		.cfi_startproc
 2792              		@ args = 0, pretend = 0, frame = 8
 2793              		@ frame_needed = 0, uses_anonymous_args = 0
 2794              		@ link register save eliminated.
 2795              	.LVL214:
 2796 0000 82B0     		sub	sp, sp, #8
 2797              	.LCFI51:
 2798              		.cfi_def_cfa_offset 8
1388:Drivers/STM32F7xx_HAL_Driver/Src/stm32f7xx_ll_usb.c ****   __IO uint32_t hprt0;
1389:Drivers/STM32F7xx_HAL_Driver/Src/stm32f7xx_ll_usb.c **** 
1390:Drivers/STM32F7xx_HAL_Driver/Src/stm32f7xx_ll_usb.c ****   hprt0 = USBx_HPRT0;
 2799              		.loc 1 1390 0
 2800 0002 D0F84034 		ldr	r3, [r0, #1088]
 2801 0006 0193     		str	r3, [sp, #4]
1391:Drivers/STM32F7xx_HAL_Driver/Src/stm32f7xx_ll_usb.c ****   return ((hprt0 & USB_OTG_HPRT_PSPD) >> 17);
 2802              		.loc 1 1391 0
 2803 0008 0198     		ldr	r0, [sp, #4]
 2804              	.LVL215:
1392:Drivers/STM32F7xx_HAL_Driver/Src/stm32f7xx_ll_usb.c **** }
 2805              		.loc 1 1392 0
 2806 000a C0F34140 		ubfx	r0, r0, #17, #2
 2807 000e 02B0     		add	sp, sp, #8
 2808              	.LCFI52:
 2809              		.cfi_def_cfa_offset 0
 2810              		@ sp needed
 2811 0010 7047     		bx	lr
 2812              		.cfi_endproc
 2813              	.LFE173:
 2815              		.section	.text.USB_GetCurrentFrame,"ax",%progbits
 2816              		.align	1
 2817              		.global	USB_GetCurrentFrame
 2818              		.syntax unified
 2819              		.thumb
 2820              		.thumb_func
 2821              		.fpu fpv5-sp-d16
 2823              	USB_GetCurrentFrame:
 2824              	.LFB174:
1393:Drivers/STM32F7xx_HAL_Driver/Src/stm32f7xx_ll_usb.c **** 
1394:Drivers/STM32F7xx_HAL_Driver/Src/stm32f7xx_ll_usb.c **** /**
1395:Drivers/STM32F7xx_HAL_Driver/Src/stm32f7xx_ll_usb.c ****   * @brief  Return Host Current Frame number
1396:Drivers/STM32F7xx_HAL_Driver/Src/stm32f7xx_ll_usb.c ****   * @param  USBx : Selected device
1397:Drivers/STM32F7xx_HAL_Driver/Src/stm32f7xx_ll_usb.c ****   * @retval current frame number
1398:Drivers/STM32F7xx_HAL_Driver/Src/stm32f7xx_ll_usb.c **** */
1399:Drivers/STM32F7xx_HAL_Driver/Src/stm32f7xx_ll_usb.c **** uint32_t USB_GetCurrentFrame (USB_OTG_GlobalTypeDef *USBx)
1400:Drivers/STM32F7xx_HAL_Driver/Src/stm32f7xx_ll_usb.c **** {
 2825              		.loc 1 1400 0
ARM GAS  C:\Users\Student\AppData\Local\Temp\ccty2SRd.s 			page 80


 2826              		.cfi_startproc
 2827              		@ args = 0, pretend = 0, frame = 0
 2828              		@ frame_needed = 0, uses_anonymous_args = 0
 2829              		@ link register save eliminated.
 2830              	.LVL216:
1401:Drivers/STM32F7xx_HAL_Driver/Src/stm32f7xx_ll_usb.c ****   return (USBx_HOST->HFNUM & USB_OTG_HFNUM_FRNUM);
 2831              		.loc 1 1401 0
 2832 0000 00F58060 		add	r0, r0, #1024
 2833              	.LVL217:
 2834 0004 8068     		ldr	r0, [r0, #8]
 2835              	.LVL218:
1402:Drivers/STM32F7xx_HAL_Driver/Src/stm32f7xx_ll_usb.c **** }
 2836              		.loc 1 1402 0
 2837 0006 80B2     		uxth	r0, r0
 2838 0008 7047     		bx	lr
 2839              		.cfi_endproc
 2840              	.LFE174:
 2842              		.section	.text.USB_HC_Init,"ax",%progbits
 2843              		.align	1
 2844              		.global	USB_HC_Init
 2845              		.syntax unified
 2846              		.thumb
 2847              		.thumb_func
 2848              		.fpu fpv5-sp-d16
 2850              	USB_HC_Init:
 2851              	.LFB175:
1403:Drivers/STM32F7xx_HAL_Driver/Src/stm32f7xx_ll_usb.c **** 
1404:Drivers/STM32F7xx_HAL_Driver/Src/stm32f7xx_ll_usb.c **** /**
1405:Drivers/STM32F7xx_HAL_Driver/Src/stm32f7xx_ll_usb.c ****   * @brief  Initialize a host channel
1406:Drivers/STM32F7xx_HAL_Driver/Src/stm32f7xx_ll_usb.c ****   * @param  USBx : Selected device
1407:Drivers/STM32F7xx_HAL_Driver/Src/stm32f7xx_ll_usb.c ****   * @param  ch_num : Channel number
1408:Drivers/STM32F7xx_HAL_Driver/Src/stm32f7xx_ll_usb.c ****   *         This parameter can be a value from 1 to 15
1409:Drivers/STM32F7xx_HAL_Driver/Src/stm32f7xx_ll_usb.c ****   * @param  epnum : Endpoint number
1410:Drivers/STM32F7xx_HAL_Driver/Src/stm32f7xx_ll_usb.c ****   *          This parameter can be a value from 1 to 15
1411:Drivers/STM32F7xx_HAL_Driver/Src/stm32f7xx_ll_usb.c ****   * @param  dev_address : Current device address
1412:Drivers/STM32F7xx_HAL_Driver/Src/stm32f7xx_ll_usb.c ****   *          This parameter can be a value from 0 to 255
1413:Drivers/STM32F7xx_HAL_Driver/Src/stm32f7xx_ll_usb.c ****   * @param  speed : Current device speed
1414:Drivers/STM32F7xx_HAL_Driver/Src/stm32f7xx_ll_usb.c ****   *          This parameter can be one of these values:
1415:Drivers/STM32F7xx_HAL_Driver/Src/stm32f7xx_ll_usb.c ****   *            @arg USB_OTG_SPEED_HIGH: High speed mode
1416:Drivers/STM32F7xx_HAL_Driver/Src/stm32f7xx_ll_usb.c ****   *            @arg USB_OTG_SPEED_FULL: Full speed mode
1417:Drivers/STM32F7xx_HAL_Driver/Src/stm32f7xx_ll_usb.c ****   *            @arg USB_OTG_SPEED_LOW: Low speed mode
1418:Drivers/STM32F7xx_HAL_Driver/Src/stm32f7xx_ll_usb.c ****   * @param  ep_type : Endpoint Type
1419:Drivers/STM32F7xx_HAL_Driver/Src/stm32f7xx_ll_usb.c ****   *          This parameter can be one of these values:
1420:Drivers/STM32F7xx_HAL_Driver/Src/stm32f7xx_ll_usb.c ****   *            @arg EP_TYPE_CTRL: Control type
1421:Drivers/STM32F7xx_HAL_Driver/Src/stm32f7xx_ll_usb.c ****   *            @arg EP_TYPE_ISOC: Isochronous type
1422:Drivers/STM32F7xx_HAL_Driver/Src/stm32f7xx_ll_usb.c ****   *            @arg EP_TYPE_BULK: Bulk type
1423:Drivers/STM32F7xx_HAL_Driver/Src/stm32f7xx_ll_usb.c ****   *            @arg EP_TYPE_INTR: Interrupt type
1424:Drivers/STM32F7xx_HAL_Driver/Src/stm32f7xx_ll_usb.c ****   * @param  mps : Max Packet Size
1425:Drivers/STM32F7xx_HAL_Driver/Src/stm32f7xx_ll_usb.c ****   *          This parameter can be a value from 0 to32K
1426:Drivers/STM32F7xx_HAL_Driver/Src/stm32f7xx_ll_usb.c ****   * @retval HAL state
1427:Drivers/STM32F7xx_HAL_Driver/Src/stm32f7xx_ll_usb.c ****   */
1428:Drivers/STM32F7xx_HAL_Driver/Src/stm32f7xx_ll_usb.c **** HAL_StatusTypeDef USB_HC_Init(USB_OTG_GlobalTypeDef *USBx,
1429:Drivers/STM32F7xx_HAL_Driver/Src/stm32f7xx_ll_usb.c ****                               uint8_t ch_num,
1430:Drivers/STM32F7xx_HAL_Driver/Src/stm32f7xx_ll_usb.c ****                               uint8_t epnum,
1431:Drivers/STM32F7xx_HAL_Driver/Src/stm32f7xx_ll_usb.c ****                               uint8_t dev_address,
1432:Drivers/STM32F7xx_HAL_Driver/Src/stm32f7xx_ll_usb.c ****                               uint8_t speed,
1433:Drivers/STM32F7xx_HAL_Driver/Src/stm32f7xx_ll_usb.c ****                               uint8_t ep_type,
ARM GAS  C:\Users\Student\AppData\Local\Temp\ccty2SRd.s 			page 81


1434:Drivers/STM32F7xx_HAL_Driver/Src/stm32f7xx_ll_usb.c ****                               uint16_t mps)
1435:Drivers/STM32F7xx_HAL_Driver/Src/stm32f7xx_ll_usb.c **** {
 2852              		.loc 1 1435 0
 2853              		.cfi_startproc
 2854              		@ args = 12, pretend = 0, frame = 0
 2855              		@ frame_needed = 0, uses_anonymous_args = 0
 2856              	.LVL219:
 2857 0000 F0B5     		push	{r4, r5, r6, r7, lr}
 2858              	.LCFI53:
 2859              		.cfi_def_cfa_offset 20
 2860              		.cfi_offset 4, -20
 2861              		.cfi_offset 5, -16
 2862              		.cfi_offset 6, -12
 2863              		.cfi_offset 7, -8
 2864              		.cfi_offset 14, -4
 2865 0002 9DF81840 		ldrb	r4, [sp, #24]	@ zero_extendqisi2
1436:Drivers/STM32F7xx_HAL_Driver/Src/stm32f7xx_ll_usb.c **** 
1437:Drivers/STM32F7xx_HAL_Driver/Src/stm32f7xx_ll_usb.c ****   /* Clear old interrupt conditions for this host channel. */
1438:Drivers/STM32F7xx_HAL_Driver/Src/stm32f7xx_ll_usb.c ****   USBx_HC(ch_num)->HCINT = 0xFFFFFFFF;
 2866              		.loc 1 1438 0
 2867 0006 00EB4115 		add	r5, r0, r1, lsl #5
 2868 000a 05F5A066 		add	r6, r5, #1280
 2869 000e 4FF0FF37 		mov	r7, #-1
 2870 0012 B760     		str	r7, [r6, #8]
1439:Drivers/STM32F7xx_HAL_Driver/Src/stm32f7xx_ll_usb.c **** 
1440:Drivers/STM32F7xx_HAL_Driver/Src/stm32f7xx_ll_usb.c ****   /* Enable channel interrupts required for this transfer. */
1441:Drivers/STM32F7xx_HAL_Driver/Src/stm32f7xx_ll_usb.c ****   switch (ep_type)
 2871              		.loc 1 1441 0
 2872 0014 032C     		cmp	r4, #3
 2873 0016 1CD8     		bhi	.L220
 2874 0018 DFE804F0 		tbb	[pc, r4]
 2875              	.L222:
 2876 001c 02       		.byte	(.L221-.L222)/2
 2877 001d 4F       		.byte	(.L223-.L222)/2
 2878 001e 02       		.byte	(.L221-.L222)/2
 2879 001f 15       		.byte	(.L224-.L222)/2
 2880              		.p2align 1
 2881              	.L221:
1442:Drivers/STM32F7xx_HAL_Driver/Src/stm32f7xx_ll_usb.c ****   {
1443:Drivers/STM32F7xx_HAL_Driver/Src/stm32f7xx_ll_usb.c ****   case EP_TYPE_CTRL:
1444:Drivers/STM32F7xx_HAL_Driver/Src/stm32f7xx_ll_usb.c ****   case EP_TYPE_BULK:
1445:Drivers/STM32F7xx_HAL_Driver/Src/stm32f7xx_ll_usb.c **** 
1446:Drivers/STM32F7xx_HAL_Driver/Src/stm32f7xx_ll_usb.c ****     USBx_HC(ch_num)->HCINTMSK = USB_OTG_HCINTMSK_XFRCM  |\
 2882              		.loc 1 1446 0
 2883 0020 40F29D47 		movw	r7, #1181
 2884 0024 F760     		str	r7, [r6, #12]
1447:Drivers/STM32F7xx_HAL_Driver/Src/stm32f7xx_ll_usb.c ****                                 USB_OTG_HCINTMSK_STALLM |\
1448:Drivers/STM32F7xx_HAL_Driver/Src/stm32f7xx_ll_usb.c ****                                 USB_OTG_HCINTMSK_TXERRM |\
1449:Drivers/STM32F7xx_HAL_Driver/Src/stm32f7xx_ll_usb.c ****                                 USB_OTG_HCINTMSK_DTERRM |\
1450:Drivers/STM32F7xx_HAL_Driver/Src/stm32f7xx_ll_usb.c ****                                 USB_OTG_HCINTMSK_AHBERR |\
1451:Drivers/STM32F7xx_HAL_Driver/Src/stm32f7xx_ll_usb.c ****                                 USB_OTG_HCINTMSK_NAKM ;
1452:Drivers/STM32F7xx_HAL_Driver/Src/stm32f7xx_ll_usb.c **** 
1453:Drivers/STM32F7xx_HAL_Driver/Src/stm32f7xx_ll_usb.c ****     if (epnum & 0x80)
 2885              		.loc 1 1453 0
 2886 0026 12F0800F 		tst	r2, #128
 2887 002a 07D1     		bne	.L232
1454:Drivers/STM32F7xx_HAL_Driver/Src/stm32f7xx_ll_usb.c ****     {
ARM GAS  C:\Users\Student\AppData\Local\Temp\ccty2SRd.s 			page 82


1455:Drivers/STM32F7xx_HAL_Driver/Src/stm32f7xx_ll_usb.c ****       USBx_HC(ch_num)->HCINTMSK |= USB_OTG_HCINTMSK_BBERRM;
1456:Drivers/STM32F7xx_HAL_Driver/Src/stm32f7xx_ll_usb.c ****     }
1457:Drivers/STM32F7xx_HAL_Driver/Src/stm32f7xx_ll_usb.c ****     else
1458:Drivers/STM32F7xx_HAL_Driver/Src/stm32f7xx_ll_usb.c ****     {
1459:Drivers/STM32F7xx_HAL_Driver/Src/stm32f7xx_ll_usb.c ****       if(USBx != USB_OTG_FS)
 2888              		.loc 1 1459 0
 2889 002c B0F1A04F 		cmp	r0, #1342177280
 2890 0030 0FD0     		beq	.L220
1460:Drivers/STM32F7xx_HAL_Driver/Src/stm32f7xx_ll_usb.c ****       {
1461:Drivers/STM32F7xx_HAL_Driver/Src/stm32f7xx_ll_usb.c ****         USBx_HC(ch_num)->HCINTMSK |= (USB_OTG_HCINTMSK_NYET | USB_OTG_HCINTMSK_ACKM);
 2891              		.loc 1 1461 0
 2892 0032 F768     		ldr	r7, [r6, #12]
 2893 0034 47F06007 		orr	r7, r7, #96
 2894 0038 F760     		str	r7, [r6, #12]
 2895 003a 0AE0     		b	.L220
 2896              	.L232:
1455:Drivers/STM32F7xx_HAL_Driver/Src/stm32f7xx_ll_usb.c ****     }
 2897              		.loc 1 1455 0
 2898 003c F768     		ldr	r7, [r6, #12]
 2899 003e 47F48077 		orr	r7, r7, #256
 2900 0042 F760     		str	r7, [r6, #12]
 2901 0044 05E0     		b	.L220
 2902              	.L224:
1462:Drivers/STM32F7xx_HAL_Driver/Src/stm32f7xx_ll_usb.c ****       }
1463:Drivers/STM32F7xx_HAL_Driver/Src/stm32f7xx_ll_usb.c ****     }
1464:Drivers/STM32F7xx_HAL_Driver/Src/stm32f7xx_ll_usb.c ****     break;
1465:Drivers/STM32F7xx_HAL_Driver/Src/stm32f7xx_ll_usb.c **** 
1466:Drivers/STM32F7xx_HAL_Driver/Src/stm32f7xx_ll_usb.c ****   case EP_TYPE_INTR:
1467:Drivers/STM32F7xx_HAL_Driver/Src/stm32f7xx_ll_usb.c **** 
1468:Drivers/STM32F7xx_HAL_Driver/Src/stm32f7xx_ll_usb.c ****     USBx_HC(ch_num)->HCINTMSK = USB_OTG_HCINTMSK_XFRCM  |\
 2903              		.loc 1 1468 0
 2904 0046 40F29D67 		movw	r7, #1693
 2905 004a F760     		str	r7, [r6, #12]
1469:Drivers/STM32F7xx_HAL_Driver/Src/stm32f7xx_ll_usb.c ****                                 USB_OTG_HCINTMSK_STALLM |\
1470:Drivers/STM32F7xx_HAL_Driver/Src/stm32f7xx_ll_usb.c ****                                 USB_OTG_HCINTMSK_TXERRM |\
1471:Drivers/STM32F7xx_HAL_Driver/Src/stm32f7xx_ll_usb.c ****                                 USB_OTG_HCINTMSK_DTERRM |\
1472:Drivers/STM32F7xx_HAL_Driver/Src/stm32f7xx_ll_usb.c ****                                 USB_OTG_HCINTMSK_NAKM   |\
1473:Drivers/STM32F7xx_HAL_Driver/Src/stm32f7xx_ll_usb.c ****                                 USB_OTG_HCINTMSK_AHBERR |\
1474:Drivers/STM32F7xx_HAL_Driver/Src/stm32f7xx_ll_usb.c ****                                 USB_OTG_HCINTMSK_FRMORM ;
1475:Drivers/STM32F7xx_HAL_Driver/Src/stm32f7xx_ll_usb.c **** 
1476:Drivers/STM32F7xx_HAL_Driver/Src/stm32f7xx_ll_usb.c ****     if (epnum & 0x80)
 2906              		.loc 1 1476 0
 2907 004c 12F0800F 		tst	r2, #128
 2908 0050 2ED1     		bne	.L233
 2909              	.L220:
1477:Drivers/STM32F7xx_HAL_Driver/Src/stm32f7xx_ll_usb.c ****     {
1478:Drivers/STM32F7xx_HAL_Driver/Src/stm32f7xx_ll_usb.c ****       USBx_HC(ch_num)->HCINTMSK |= USB_OTG_HCINTMSK_BBERRM;
1479:Drivers/STM32F7xx_HAL_Driver/Src/stm32f7xx_ll_usb.c ****     }
1480:Drivers/STM32F7xx_HAL_Driver/Src/stm32f7xx_ll_usb.c **** 
1481:Drivers/STM32F7xx_HAL_Driver/Src/stm32f7xx_ll_usb.c ****     break;
1482:Drivers/STM32F7xx_HAL_Driver/Src/stm32f7xx_ll_usb.c ****   case EP_TYPE_ISOC:
1483:Drivers/STM32F7xx_HAL_Driver/Src/stm32f7xx_ll_usb.c **** 
1484:Drivers/STM32F7xx_HAL_Driver/Src/stm32f7xx_ll_usb.c ****     USBx_HC(ch_num)->HCINTMSK = USB_OTG_HCINTMSK_XFRCM  |\
1485:Drivers/STM32F7xx_HAL_Driver/Src/stm32f7xx_ll_usb.c ****                                 USB_OTG_HCINTMSK_ACKM   |\
1486:Drivers/STM32F7xx_HAL_Driver/Src/stm32f7xx_ll_usb.c ****                                 USB_OTG_HCINTMSK_AHBERR |\
1487:Drivers/STM32F7xx_HAL_Driver/Src/stm32f7xx_ll_usb.c ****                                 USB_OTG_HCINTMSK_FRMORM ;
1488:Drivers/STM32F7xx_HAL_Driver/Src/stm32f7xx_ll_usb.c **** 
ARM GAS  C:\Users\Student\AppData\Local\Temp\ccty2SRd.s 			page 83


1489:Drivers/STM32F7xx_HAL_Driver/Src/stm32f7xx_ll_usb.c ****     if (epnum & 0x80)
1490:Drivers/STM32F7xx_HAL_Driver/Src/stm32f7xx_ll_usb.c ****     {
1491:Drivers/STM32F7xx_HAL_Driver/Src/stm32f7xx_ll_usb.c ****       USBx_HC(ch_num)->HCINTMSK |= (USB_OTG_HCINTMSK_TXERRM | USB_OTG_HCINTMSK_BBERRM);
1492:Drivers/STM32F7xx_HAL_Driver/Src/stm32f7xx_ll_usb.c ****     }
1493:Drivers/STM32F7xx_HAL_Driver/Src/stm32f7xx_ll_usb.c ****     break;
1494:Drivers/STM32F7xx_HAL_Driver/Src/stm32f7xx_ll_usb.c ****   }
1495:Drivers/STM32F7xx_HAL_Driver/Src/stm32f7xx_ll_usb.c **** 
1496:Drivers/STM32F7xx_HAL_Driver/Src/stm32f7xx_ll_usb.c ****   /* Enable the top level host channel interrupt. */
1497:Drivers/STM32F7xx_HAL_Driver/Src/stm32f7xx_ll_usb.c ****   USBx_HOST->HAINTMSK |= (1 << ch_num);
 2910              		.loc 1 1497 0
 2911 0052 00F5806E 		add	lr, r0, #1024
 2912 0056 D0F81864 		ldr	r6, [r0, #1048]
 2913 005a 0127     		movs	r7, #1
 2914 005c 07FA01F1 		lsl	r1, r7, r1
 2915              	.LVL220:
 2916 0060 3143     		orrs	r1, r1, r6
 2917 0062 C0F81814 		str	r1, [r0, #1048]
1498:Drivers/STM32F7xx_HAL_Driver/Src/stm32f7xx_ll_usb.c **** 
1499:Drivers/STM32F7xx_HAL_Driver/Src/stm32f7xx_ll_usb.c ****   /* Make sure host channel interrupts are enabled. */
1500:Drivers/STM32F7xx_HAL_Driver/Src/stm32f7xx_ll_usb.c ****   USBx->GINTMSK |= USB_OTG_GINTMSK_HCIM;
 2918              		.loc 1 1500 0
 2919 0066 8169     		ldr	r1, [r0, #24]
 2920 0068 41F00071 		orr	r1, r1, #33554432
 2921 006c 8161     		str	r1, [r0, #24]
1501:Drivers/STM32F7xx_HAL_Driver/Src/stm32f7xx_ll_usb.c **** 
1502:Drivers/STM32F7xx_HAL_Driver/Src/stm32f7xx_ll_usb.c ****   /* Program the HCCHAR register */
1503:Drivers/STM32F7xx_HAL_Driver/Src/stm32f7xx_ll_usb.c ****   USBx_HC(ch_num)->HCCHAR = (((dev_address << 22) & USB_OTG_HCCHAR_DAD)  |\
 2922              		.loc 1 1503 0
 2923 006e 9B05     		lsls	r3, r3, #22
 2924              	.LVL221:
 2925 0070 03F0FE53 		and	r3, r3, #532676608
1504:Drivers/STM32F7xx_HAL_Driver/Src/stm32f7xx_ll_usb.c ****                              (((epnum & 0x7F)<< 11) & USB_OTG_HCCHAR_EPNUM)|\
 2926              		.loc 1 1504 0
 2927 0074 D102     		lsls	r1, r2, #11
 2928 0076 01F4F041 		and	r1, r1, #30720
1503:Drivers/STM32F7xx_HAL_Driver/Src/stm32f7xx_ll_usb.c ****                              (((epnum & 0x7F)<< 11) & USB_OTG_HCCHAR_EPNUM)|\
 2929              		.loc 1 1503 0
 2930 007a 0B43     		orrs	r3, r3, r1
1505:Drivers/STM32F7xx_HAL_Driver/Src/stm32f7xx_ll_usb.c ****                              ((((epnum & 0x80) == 0x80)<< 15) & USB_OTG_HCCHAR_EPDIR)|\
 2931              		.loc 1 1505 0
 2932 007c 12F0800F 		tst	r2, #128
 2933 0080 26D1     		bne	.L234
 2934 0082 0022     		movs	r2, #0
 2935              	.LVL222:
 2936              	.L226:
1504:Drivers/STM32F7xx_HAL_Driver/Src/stm32f7xx_ll_usb.c ****                              (((epnum & 0x7F)<< 11) & USB_OTG_HCCHAR_EPNUM)|\
 2937              		.loc 1 1504 0
 2938 0084 1A43     		orrs	r2, r2, r3
1506:Drivers/STM32F7xx_HAL_Driver/Src/stm32f7xx_ll_usb.c ****                              (((speed == HPRT0_PRTSPD_LOW_SPEED)<< 17) & USB_OTG_HCCHAR_LSDEV)|\
 2939              		.loc 1 1506 0
 2940 0086 9DF81430 		ldrb	r3, [sp, #20]	@ zero_extendqisi2
 2941 008a 022B     		cmp	r3, #2
 2942 008c 23D0     		beq	.L235
 2943 008e 0023     		movs	r3, #0
 2944              	.L227:
1505:Drivers/STM32F7xx_HAL_Driver/Src/stm32f7xx_ll_usb.c ****                              ((((epnum & 0x80) == 0x80)<< 15) & USB_OTG_HCCHAR_EPDIR)|\
 2945              		.loc 1 1505 0
ARM GAS  C:\Users\Student\AppData\Local\Temp\ccty2SRd.s 			page 84


 2946 0090 1343     		orrs	r3, r3, r2
1507:Drivers/STM32F7xx_HAL_Driver/Src/stm32f7xx_ll_usb.c ****                              ((ep_type << 18) & USB_OTG_HCCHAR_EPTYP)|\
 2947              		.loc 1 1507 0
 2948 0092 A204     		lsls	r2, r4, #18
 2949 0094 02F44022 		and	r2, r2, #786432
1506:Drivers/STM32F7xx_HAL_Driver/Src/stm32f7xx_ll_usb.c ****                              (((speed == HPRT0_PRTSPD_LOW_SPEED)<< 17) & USB_OTG_HCCHAR_LSDEV)|\
 2950              		.loc 1 1506 0
 2951 0098 1343     		orrs	r3, r3, r2
1508:Drivers/STM32F7xx_HAL_Driver/Src/stm32f7xx_ll_usb.c ****                              (mps & USB_OTG_HCCHAR_MPSIZ));
 2952              		.loc 1 1508 0
 2953 009a BDF81C20 		ldrh	r2, [sp, #28]
 2954 009e C2F30A02 		ubfx	r2, r2, #0, #11
1507:Drivers/STM32F7xx_HAL_Driver/Src/stm32f7xx_ll_usb.c ****                              ((ep_type << 18) & USB_OTG_HCCHAR_EPTYP)|\
 2955              		.loc 1 1507 0
 2956 00a2 1343     		orrs	r3, r3, r2
1503:Drivers/STM32F7xx_HAL_Driver/Src/stm32f7xx_ll_usb.c ****                              (((epnum & 0x7F)<< 11) & USB_OTG_HCCHAR_EPNUM)|\
 2957              		.loc 1 1503 0
 2958 00a4 C5F80035 		str	r3, [r5, #1280]
1509:Drivers/STM32F7xx_HAL_Driver/Src/stm32f7xx_ll_usb.c **** 
1510:Drivers/STM32F7xx_HAL_Driver/Src/stm32f7xx_ll_usb.c ****   if (ep_type == EP_TYPE_INTR)
 2959              		.loc 1 1510 0
 2960 00a8 032C     		cmp	r4, #3
 2961 00aa 17D0     		beq	.L236
 2962              	.L228:
1511:Drivers/STM32F7xx_HAL_Driver/Src/stm32f7xx_ll_usb.c ****   {
1512:Drivers/STM32F7xx_HAL_Driver/Src/stm32f7xx_ll_usb.c ****     USBx_HC(ch_num)->HCCHAR |= USB_OTG_HCCHAR_ODDFRM ;
1513:Drivers/STM32F7xx_HAL_Driver/Src/stm32f7xx_ll_usb.c ****   }
1514:Drivers/STM32F7xx_HAL_Driver/Src/stm32f7xx_ll_usb.c **** 
1515:Drivers/STM32F7xx_HAL_Driver/Src/stm32f7xx_ll_usb.c ****   return HAL_OK;
1516:Drivers/STM32F7xx_HAL_Driver/Src/stm32f7xx_ll_usb.c **** }
 2963              		.loc 1 1516 0
 2964 00ac 0020     		movs	r0, #0
 2965              	.LVL223:
 2966 00ae F0BD     		pop	{r4, r5, r6, r7, pc}
 2967              	.LVL224:
 2968              	.L233:
1478:Drivers/STM32F7xx_HAL_Driver/Src/stm32f7xx_ll_usb.c ****     }
 2969              		.loc 1 1478 0
 2970 00b0 F768     		ldr	r7, [r6, #12]
 2971 00b2 47F48077 		orr	r7, r7, #256
 2972 00b6 F760     		str	r7, [r6, #12]
 2973 00b8 CBE7     		b	.L220
 2974              	.L223:
1484:Drivers/STM32F7xx_HAL_Driver/Src/stm32f7xx_ll_usb.c ****                                 USB_OTG_HCINTMSK_ACKM   |\
 2975              		.loc 1 1484 0
 2976 00ba 40F22527 		movw	r7, #549
 2977 00be F760     		str	r7, [r6, #12]
1489:Drivers/STM32F7xx_HAL_Driver/Src/stm32f7xx_ll_usb.c ****     {
 2978              		.loc 1 1489 0
 2979 00c0 12F0800F 		tst	r2, #128
 2980 00c4 C5D0     		beq	.L220
1491:Drivers/STM32F7xx_HAL_Driver/Src/stm32f7xx_ll_usb.c ****     }
 2981              		.loc 1 1491 0
 2982 00c6 F768     		ldr	r7, [r6, #12]
 2983 00c8 47F4C077 		orr	r7, r7, #384
 2984 00cc F760     		str	r7, [r6, #12]
 2985 00ce C0E7     		b	.L220
ARM GAS  C:\Users\Student\AppData\Local\Temp\ccty2SRd.s 			page 85


 2986              	.LVL225:
 2987              	.L234:
1505:Drivers/STM32F7xx_HAL_Driver/Src/stm32f7xx_ll_usb.c ****                              (((speed == HPRT0_PRTSPD_LOW_SPEED)<< 17) & USB_OTG_HCCHAR_LSDEV)|\
 2988              		.loc 1 1505 0
 2989 00d0 4FF40042 		mov	r2, #32768
 2990              	.LVL226:
 2991 00d4 D6E7     		b	.L226
 2992              	.L235:
1506:Drivers/STM32F7xx_HAL_Driver/Src/stm32f7xx_ll_usb.c ****                              ((ep_type << 18) & USB_OTG_HCCHAR_EPTYP)|\
 2993              		.loc 1 1506 0
 2994 00d6 4FF40033 		mov	r3, #131072
 2995 00da D9E7     		b	.L227
 2996              	.L236:
1512:Drivers/STM32F7xx_HAL_Driver/Src/stm32f7xx_ll_usb.c ****   }
 2997              		.loc 1 1512 0
 2998 00dc D5F80035 		ldr	r3, [r5, #1280]
 2999 00e0 43F00053 		orr	r3, r3, #536870912
 3000 00e4 C5F80035 		str	r3, [r5, #1280]
 3001 00e8 E0E7     		b	.L228
 3002              		.cfi_endproc
 3003              	.LFE175:
 3005              		.section	.text.USB_HC_ReadInterrupt,"ax",%progbits
 3006              		.align	1
 3007              		.global	USB_HC_ReadInterrupt
 3008              		.syntax unified
 3009              		.thumb
 3010              		.thumb_func
 3011              		.fpu fpv5-sp-d16
 3013              	USB_HC_ReadInterrupt:
 3014              	.LFB177:
1517:Drivers/STM32F7xx_HAL_Driver/Src/stm32f7xx_ll_usb.c **** 
1518:Drivers/STM32F7xx_HAL_Driver/Src/stm32f7xx_ll_usb.c **** /**
1519:Drivers/STM32F7xx_HAL_Driver/Src/stm32f7xx_ll_usb.c ****   * @brief  Start a transfer over a host channel
1520:Drivers/STM32F7xx_HAL_Driver/Src/stm32f7xx_ll_usb.c ****   * @param  USBx : Selected device
1521:Drivers/STM32F7xx_HAL_Driver/Src/stm32f7xx_ll_usb.c ****   * @param  hc : pointer to host channel structure
1522:Drivers/STM32F7xx_HAL_Driver/Src/stm32f7xx_ll_usb.c ****   * @param  dma: USB dma enabled or disabled
1523:Drivers/STM32F7xx_HAL_Driver/Src/stm32f7xx_ll_usb.c ****   *          This parameter can be one of these values:
1524:Drivers/STM32F7xx_HAL_Driver/Src/stm32f7xx_ll_usb.c ****   *           0 : DMA feature not used
1525:Drivers/STM32F7xx_HAL_Driver/Src/stm32f7xx_ll_usb.c ****   *           1 : DMA feature used
1526:Drivers/STM32F7xx_HAL_Driver/Src/stm32f7xx_ll_usb.c ****   * @retval HAL state
1527:Drivers/STM32F7xx_HAL_Driver/Src/stm32f7xx_ll_usb.c ****   */
1528:Drivers/STM32F7xx_HAL_Driver/Src/stm32f7xx_ll_usb.c **** HAL_StatusTypeDef USB_HC_StartXfer(USB_OTG_GlobalTypeDef *USBx, USB_OTG_HCTypeDef *hc, uint8_t dma)
1529:Drivers/STM32F7xx_HAL_Driver/Src/stm32f7xx_ll_usb.c **** {
1530:Drivers/STM32F7xx_HAL_Driver/Src/stm32f7xx_ll_usb.c ****   static __IO uint32_t tmpreg = 0;
1531:Drivers/STM32F7xx_HAL_Driver/Src/stm32f7xx_ll_usb.c ****   uint8_t  is_oddframe = 0;
1532:Drivers/STM32F7xx_HAL_Driver/Src/stm32f7xx_ll_usb.c ****   uint16_t len_words = 0;
1533:Drivers/STM32F7xx_HAL_Driver/Src/stm32f7xx_ll_usb.c ****   uint16_t num_packets = 0;
1534:Drivers/STM32F7xx_HAL_Driver/Src/stm32f7xx_ll_usb.c ****   uint16_t max_hc_pkt_count = 256;
1535:Drivers/STM32F7xx_HAL_Driver/Src/stm32f7xx_ll_usb.c **** 
1536:Drivers/STM32F7xx_HAL_Driver/Src/stm32f7xx_ll_usb.c ****   if((USBx != USB_OTG_FS) && (hc->speed == USB_OTG_SPEED_HIGH))
1537:Drivers/STM32F7xx_HAL_Driver/Src/stm32f7xx_ll_usb.c ****   {
1538:Drivers/STM32F7xx_HAL_Driver/Src/stm32f7xx_ll_usb.c ****     if((dma == 0) && (hc->do_ping == 1))
1539:Drivers/STM32F7xx_HAL_Driver/Src/stm32f7xx_ll_usb.c ****     {
1540:Drivers/STM32F7xx_HAL_Driver/Src/stm32f7xx_ll_usb.c ****       USB_DoPing(USBx, hc->ch_num);
1541:Drivers/STM32F7xx_HAL_Driver/Src/stm32f7xx_ll_usb.c ****       return HAL_OK;
1542:Drivers/STM32F7xx_HAL_Driver/Src/stm32f7xx_ll_usb.c ****     }
1543:Drivers/STM32F7xx_HAL_Driver/Src/stm32f7xx_ll_usb.c ****     else if(dma == 1)
ARM GAS  C:\Users\Student\AppData\Local\Temp\ccty2SRd.s 			page 86


1544:Drivers/STM32F7xx_HAL_Driver/Src/stm32f7xx_ll_usb.c ****     {
1545:Drivers/STM32F7xx_HAL_Driver/Src/stm32f7xx_ll_usb.c ****       USBx_HC(hc->ch_num)->HCINTMSK &= ~(USB_OTG_HCINTMSK_NYET | USB_OTG_HCINTMSK_ACKM);
1546:Drivers/STM32F7xx_HAL_Driver/Src/stm32f7xx_ll_usb.c ****       hc->do_ping = 0;
1547:Drivers/STM32F7xx_HAL_Driver/Src/stm32f7xx_ll_usb.c ****     }
1548:Drivers/STM32F7xx_HAL_Driver/Src/stm32f7xx_ll_usb.c ****   }
1549:Drivers/STM32F7xx_HAL_Driver/Src/stm32f7xx_ll_usb.c **** 
1550:Drivers/STM32F7xx_HAL_Driver/Src/stm32f7xx_ll_usb.c ****   /* Compute the expected number of packets associated to the transfer */
1551:Drivers/STM32F7xx_HAL_Driver/Src/stm32f7xx_ll_usb.c ****   if (hc->xfer_len > 0)
1552:Drivers/STM32F7xx_HAL_Driver/Src/stm32f7xx_ll_usb.c ****   {
1553:Drivers/STM32F7xx_HAL_Driver/Src/stm32f7xx_ll_usb.c ****     num_packets = (hc->xfer_len + hc->max_packet - 1) / hc->max_packet;
1554:Drivers/STM32F7xx_HAL_Driver/Src/stm32f7xx_ll_usb.c **** 
1555:Drivers/STM32F7xx_HAL_Driver/Src/stm32f7xx_ll_usb.c ****     if (num_packets > max_hc_pkt_count)
1556:Drivers/STM32F7xx_HAL_Driver/Src/stm32f7xx_ll_usb.c ****     {
1557:Drivers/STM32F7xx_HAL_Driver/Src/stm32f7xx_ll_usb.c ****       num_packets = max_hc_pkt_count;
1558:Drivers/STM32F7xx_HAL_Driver/Src/stm32f7xx_ll_usb.c ****       hc->xfer_len = num_packets * hc->max_packet;
1559:Drivers/STM32F7xx_HAL_Driver/Src/stm32f7xx_ll_usb.c ****     }
1560:Drivers/STM32F7xx_HAL_Driver/Src/stm32f7xx_ll_usb.c ****   }
1561:Drivers/STM32F7xx_HAL_Driver/Src/stm32f7xx_ll_usb.c ****   else
1562:Drivers/STM32F7xx_HAL_Driver/Src/stm32f7xx_ll_usb.c ****   {
1563:Drivers/STM32F7xx_HAL_Driver/Src/stm32f7xx_ll_usb.c ****     num_packets = 1;
1564:Drivers/STM32F7xx_HAL_Driver/Src/stm32f7xx_ll_usb.c ****   }
1565:Drivers/STM32F7xx_HAL_Driver/Src/stm32f7xx_ll_usb.c ****   if (hc->ep_is_in)
1566:Drivers/STM32F7xx_HAL_Driver/Src/stm32f7xx_ll_usb.c ****   {
1567:Drivers/STM32F7xx_HAL_Driver/Src/stm32f7xx_ll_usb.c ****     hc->xfer_len = num_packets * hc->max_packet;
1568:Drivers/STM32F7xx_HAL_Driver/Src/stm32f7xx_ll_usb.c ****   }
1569:Drivers/STM32F7xx_HAL_Driver/Src/stm32f7xx_ll_usb.c **** 
1570:Drivers/STM32F7xx_HAL_Driver/Src/stm32f7xx_ll_usb.c ****   /* Initialize the HCTSIZn register */
1571:Drivers/STM32F7xx_HAL_Driver/Src/stm32f7xx_ll_usb.c ****   USBx_HC(hc->ch_num)->HCTSIZ = (((hc->xfer_len) & USB_OTG_HCTSIZ_XFRSIZ)) |\
1572:Drivers/STM32F7xx_HAL_Driver/Src/stm32f7xx_ll_usb.c ****     ((num_packets << 19) & USB_OTG_HCTSIZ_PKTCNT) |\
1573:Drivers/STM32F7xx_HAL_Driver/Src/stm32f7xx_ll_usb.c ****       (((hc->data_pid) << 29) & USB_OTG_HCTSIZ_DPID);
1574:Drivers/STM32F7xx_HAL_Driver/Src/stm32f7xx_ll_usb.c **** 
1575:Drivers/STM32F7xx_HAL_Driver/Src/stm32f7xx_ll_usb.c ****   if (dma)
1576:Drivers/STM32F7xx_HAL_Driver/Src/stm32f7xx_ll_usb.c ****   {
1577:Drivers/STM32F7xx_HAL_Driver/Src/stm32f7xx_ll_usb.c ****     /* xfer_buff MUST be 32-bits aligned */
1578:Drivers/STM32F7xx_HAL_Driver/Src/stm32f7xx_ll_usb.c ****     USBx_HC(hc->ch_num)->HCDMA = (uint32_t)hc->xfer_buff;
1579:Drivers/STM32F7xx_HAL_Driver/Src/stm32f7xx_ll_usb.c ****   }
1580:Drivers/STM32F7xx_HAL_Driver/Src/stm32f7xx_ll_usb.c **** 
1581:Drivers/STM32F7xx_HAL_Driver/Src/stm32f7xx_ll_usb.c ****   is_oddframe = (USBx_HOST->HFNUM & 0x01) ? 0 : 1;
1582:Drivers/STM32F7xx_HAL_Driver/Src/stm32f7xx_ll_usb.c ****   USBx_HC(hc->ch_num)->HCCHAR &= ~USB_OTG_HCCHAR_ODDFRM;
1583:Drivers/STM32F7xx_HAL_Driver/Src/stm32f7xx_ll_usb.c ****   USBx_HC(hc->ch_num)->HCCHAR |= (is_oddframe << 29);
1584:Drivers/STM32F7xx_HAL_Driver/Src/stm32f7xx_ll_usb.c **** 
1585:Drivers/STM32F7xx_HAL_Driver/Src/stm32f7xx_ll_usb.c ****   /* Set host channel enable */
1586:Drivers/STM32F7xx_HAL_Driver/Src/stm32f7xx_ll_usb.c ****   tmpreg = USBx_HC(hc->ch_num)->HCCHAR;
1587:Drivers/STM32F7xx_HAL_Driver/Src/stm32f7xx_ll_usb.c ****   tmpreg &= ~USB_OTG_HCCHAR_CHDIS;
1588:Drivers/STM32F7xx_HAL_Driver/Src/stm32f7xx_ll_usb.c ****   tmpreg |= USB_OTG_HCCHAR_CHENA;
1589:Drivers/STM32F7xx_HAL_Driver/Src/stm32f7xx_ll_usb.c ****   USBx_HC(hc->ch_num)->HCCHAR = tmpreg;
1590:Drivers/STM32F7xx_HAL_Driver/Src/stm32f7xx_ll_usb.c **** 
1591:Drivers/STM32F7xx_HAL_Driver/Src/stm32f7xx_ll_usb.c ****   if (dma == 0) /* Slave mode */
1592:Drivers/STM32F7xx_HAL_Driver/Src/stm32f7xx_ll_usb.c ****   {
1593:Drivers/STM32F7xx_HAL_Driver/Src/stm32f7xx_ll_usb.c ****     if((hc->ep_is_in == 0) && (hc->xfer_len > 0))
1594:Drivers/STM32F7xx_HAL_Driver/Src/stm32f7xx_ll_usb.c ****     {
1595:Drivers/STM32F7xx_HAL_Driver/Src/stm32f7xx_ll_usb.c ****       switch(hc->ep_type)
1596:Drivers/STM32F7xx_HAL_Driver/Src/stm32f7xx_ll_usb.c ****       {
1597:Drivers/STM32F7xx_HAL_Driver/Src/stm32f7xx_ll_usb.c ****         /* Non periodic transfer */
1598:Drivers/STM32F7xx_HAL_Driver/Src/stm32f7xx_ll_usb.c ****       case EP_TYPE_CTRL:
1599:Drivers/STM32F7xx_HAL_Driver/Src/stm32f7xx_ll_usb.c ****       case EP_TYPE_BULK:
1600:Drivers/STM32F7xx_HAL_Driver/Src/stm32f7xx_ll_usb.c **** 
ARM GAS  C:\Users\Student\AppData\Local\Temp\ccty2SRd.s 			page 87


1601:Drivers/STM32F7xx_HAL_Driver/Src/stm32f7xx_ll_usb.c ****         len_words = (hc->xfer_len + 3) / 4;
1602:Drivers/STM32F7xx_HAL_Driver/Src/stm32f7xx_ll_usb.c **** 
1603:Drivers/STM32F7xx_HAL_Driver/Src/stm32f7xx_ll_usb.c ****         /* check if there is enough space in FIFO space */
1604:Drivers/STM32F7xx_HAL_Driver/Src/stm32f7xx_ll_usb.c ****         if(len_words > (USBx->HNPTXSTS & 0xFFFF))
1605:Drivers/STM32F7xx_HAL_Driver/Src/stm32f7xx_ll_usb.c ****         {
1606:Drivers/STM32F7xx_HAL_Driver/Src/stm32f7xx_ll_usb.c ****           /* need to process data in nptxfempty interrupt */
1607:Drivers/STM32F7xx_HAL_Driver/Src/stm32f7xx_ll_usb.c ****           USBx->GINTMSK |= USB_OTG_GINTMSK_NPTXFEM;
1608:Drivers/STM32F7xx_HAL_Driver/Src/stm32f7xx_ll_usb.c ****         }
1609:Drivers/STM32F7xx_HAL_Driver/Src/stm32f7xx_ll_usb.c ****         break;
1610:Drivers/STM32F7xx_HAL_Driver/Src/stm32f7xx_ll_usb.c ****         /* Periodic transfer */
1611:Drivers/STM32F7xx_HAL_Driver/Src/stm32f7xx_ll_usb.c ****       case EP_TYPE_INTR:
1612:Drivers/STM32F7xx_HAL_Driver/Src/stm32f7xx_ll_usb.c ****       case EP_TYPE_ISOC:
1613:Drivers/STM32F7xx_HAL_Driver/Src/stm32f7xx_ll_usb.c ****         len_words = (hc->xfer_len + 3) / 4;
1614:Drivers/STM32F7xx_HAL_Driver/Src/stm32f7xx_ll_usb.c ****         /* check if there is enough space in FIFO space */
1615:Drivers/STM32F7xx_HAL_Driver/Src/stm32f7xx_ll_usb.c ****         if(len_words > (USBx_HOST->HPTXSTS & 0xFFFF)) /* split the transfer */
1616:Drivers/STM32F7xx_HAL_Driver/Src/stm32f7xx_ll_usb.c ****         {
1617:Drivers/STM32F7xx_HAL_Driver/Src/stm32f7xx_ll_usb.c ****           /* need to process data in ptxfempty interrupt */
1618:Drivers/STM32F7xx_HAL_Driver/Src/stm32f7xx_ll_usb.c ****           USBx->GINTMSK |= USB_OTG_GINTMSK_PTXFEM;
1619:Drivers/STM32F7xx_HAL_Driver/Src/stm32f7xx_ll_usb.c ****         }
1620:Drivers/STM32F7xx_HAL_Driver/Src/stm32f7xx_ll_usb.c ****         break;
1621:Drivers/STM32F7xx_HAL_Driver/Src/stm32f7xx_ll_usb.c **** 
1622:Drivers/STM32F7xx_HAL_Driver/Src/stm32f7xx_ll_usb.c ****       default:
1623:Drivers/STM32F7xx_HAL_Driver/Src/stm32f7xx_ll_usb.c ****         break;
1624:Drivers/STM32F7xx_HAL_Driver/Src/stm32f7xx_ll_usb.c ****       }
1625:Drivers/STM32F7xx_HAL_Driver/Src/stm32f7xx_ll_usb.c **** 
1626:Drivers/STM32F7xx_HAL_Driver/Src/stm32f7xx_ll_usb.c ****       /* Write packet into the Tx FIFO. */
1627:Drivers/STM32F7xx_HAL_Driver/Src/stm32f7xx_ll_usb.c ****       USB_WritePacket(USBx, hc->xfer_buff, hc->ch_num, hc->xfer_len, 0);
1628:Drivers/STM32F7xx_HAL_Driver/Src/stm32f7xx_ll_usb.c ****     }
1629:Drivers/STM32F7xx_HAL_Driver/Src/stm32f7xx_ll_usb.c ****   }
1630:Drivers/STM32F7xx_HAL_Driver/Src/stm32f7xx_ll_usb.c **** 
1631:Drivers/STM32F7xx_HAL_Driver/Src/stm32f7xx_ll_usb.c ****   return HAL_OK;
1632:Drivers/STM32F7xx_HAL_Driver/Src/stm32f7xx_ll_usb.c **** }
1633:Drivers/STM32F7xx_HAL_Driver/Src/stm32f7xx_ll_usb.c **** 
1634:Drivers/STM32F7xx_HAL_Driver/Src/stm32f7xx_ll_usb.c **** /**
1635:Drivers/STM32F7xx_HAL_Driver/Src/stm32f7xx_ll_usb.c ****   * @brief Read all host channel interrupts status
1636:Drivers/STM32F7xx_HAL_Driver/Src/stm32f7xx_ll_usb.c ****   * @param  USBx : Selected device
1637:Drivers/STM32F7xx_HAL_Driver/Src/stm32f7xx_ll_usb.c ****   * @retval HAL state
1638:Drivers/STM32F7xx_HAL_Driver/Src/stm32f7xx_ll_usb.c ****   */
1639:Drivers/STM32F7xx_HAL_Driver/Src/stm32f7xx_ll_usb.c **** uint32_t USB_HC_ReadInterrupt (USB_OTG_GlobalTypeDef *USBx)
1640:Drivers/STM32F7xx_HAL_Driver/Src/stm32f7xx_ll_usb.c **** {
 3015              		.loc 1 1640 0
 3016              		.cfi_startproc
 3017              		@ args = 0, pretend = 0, frame = 0
 3018              		@ frame_needed = 0, uses_anonymous_args = 0
 3019              		@ link register save eliminated.
 3020              	.LVL227:
1641:Drivers/STM32F7xx_HAL_Driver/Src/stm32f7xx_ll_usb.c ****   return ((USBx_HOST->HAINT) & 0xFFFF);
 3021              		.loc 1 1641 0
 3022 0000 00F58060 		add	r0, r0, #1024
 3023              	.LVL228:
 3024 0004 4069     		ldr	r0, [r0, #20]
 3025              	.LVL229:
1642:Drivers/STM32F7xx_HAL_Driver/Src/stm32f7xx_ll_usb.c **** }
 3026              		.loc 1 1642 0
 3027 0006 80B2     		uxth	r0, r0
 3028 0008 7047     		bx	lr
 3029              		.cfi_endproc
ARM GAS  C:\Users\Student\AppData\Local\Temp\ccty2SRd.s 			page 88


 3030              	.LFE177:
 3032              		.section	.text.USB_HC_Halt,"ax",%progbits
 3033              		.align	1
 3034              		.global	USB_HC_Halt
 3035              		.syntax unified
 3036              		.thumb
 3037              		.thumb_func
 3038              		.fpu fpv5-sp-d16
 3040              	USB_HC_Halt:
 3041              	.LFB178:
1643:Drivers/STM32F7xx_HAL_Driver/Src/stm32f7xx_ll_usb.c **** 
1644:Drivers/STM32F7xx_HAL_Driver/Src/stm32f7xx_ll_usb.c **** /**
1645:Drivers/STM32F7xx_HAL_Driver/Src/stm32f7xx_ll_usb.c ****   * @brief  Halt a host channel
1646:Drivers/STM32F7xx_HAL_Driver/Src/stm32f7xx_ll_usb.c ****   * @param  USBx : Selected device
1647:Drivers/STM32F7xx_HAL_Driver/Src/stm32f7xx_ll_usb.c ****   * @param  hc_num : Host Channel number
1648:Drivers/STM32F7xx_HAL_Driver/Src/stm32f7xx_ll_usb.c ****   *         This parameter can be a value from 1 to 15
1649:Drivers/STM32F7xx_HAL_Driver/Src/stm32f7xx_ll_usb.c ****   * @retval HAL state
1650:Drivers/STM32F7xx_HAL_Driver/Src/stm32f7xx_ll_usb.c ****   */
1651:Drivers/STM32F7xx_HAL_Driver/Src/stm32f7xx_ll_usb.c **** HAL_StatusTypeDef USB_HC_Halt(USB_OTG_GlobalTypeDef *USBx , uint8_t hc_num)
1652:Drivers/STM32F7xx_HAL_Driver/Src/stm32f7xx_ll_usb.c **** {
 3042              		.loc 1 1652 0
 3043              		.cfi_startproc
 3044              		@ args = 0, pretend = 0, frame = 0
 3045              		@ frame_needed = 0, uses_anonymous_args = 0
 3046              		@ link register save eliminated.
 3047              	.LVL230:
 3048 0000 10B4     		push	{r4}
 3049              	.LCFI54:
 3050              		.cfi_def_cfa_offset 4
 3051              		.cfi_offset 4, -4
 3052              	.LVL231:
1653:Drivers/STM32F7xx_HAL_Driver/Src/stm32f7xx_ll_usb.c ****   uint32_t count = 0;
1654:Drivers/STM32F7xx_HAL_Driver/Src/stm32f7xx_ll_usb.c **** 
1655:Drivers/STM32F7xx_HAL_Driver/Src/stm32f7xx_ll_usb.c ****   /* Check for space in the request queue to issue the halt. */
1656:Drivers/STM32F7xx_HAL_Driver/Src/stm32f7xx_ll_usb.c ****   if (((((USBx_HC(hc_num)->HCCHAR) & USB_OTG_HCCHAR_EPTYP) >> 18) == HCCHAR_CTRL) ||
 3053              		.loc 1 1656 0
 3054 0002 00EB4111 		add	r1, r0, r1, lsl #5
 3055              	.LVL232:
 3056 0006 01F5A064 		add	r4, r1, #1280
 3057 000a D1F80035 		ldr	r3, [r1, #1280]
 3058 000e 13F4402F 		tst	r3, #786432
 3059 0012 2BD0     		beq	.L239
1657:Drivers/STM32F7xx_HAL_Driver/Src/stm32f7xx_ll_usb.c ****      (((((USBx_HC(hc_num)->HCCHAR) & USB_OTG_HCCHAR_EPTYP) >> 18) == HCCHAR_BULK)))
 3060              		.loc 1 1657 0 discriminator 1
 3061 0014 D1F80035 		ldr	r3, [r1, #1280]
 3062 0018 C3F38143 		ubfx	r3, r3, #18, #2
1656:Drivers/STM32F7xx_HAL_Driver/Src/stm32f7xx_ll_usb.c ****      (((((USBx_HC(hc_num)->HCCHAR) & USB_OTG_HCCHAR_EPTYP) >> 18) == HCCHAR_BULK)))
 3063              		.loc 1 1656 0 discriminator 1
 3064 001c 022B     		cmp	r3, #2
 3065 001e 25D0     		beq	.L239
1658:Drivers/STM32F7xx_HAL_Driver/Src/stm32f7xx_ll_usb.c ****   {
1659:Drivers/STM32F7xx_HAL_Driver/Src/stm32f7xx_ll_usb.c ****     USBx_HC(hc_num)->HCCHAR |= USB_OTG_HCCHAR_CHDIS;
1660:Drivers/STM32F7xx_HAL_Driver/Src/stm32f7xx_ll_usb.c **** 
1661:Drivers/STM32F7xx_HAL_Driver/Src/stm32f7xx_ll_usb.c ****     if ((USBx->HNPTXSTS & 0xFFFF) == 0)
1662:Drivers/STM32F7xx_HAL_Driver/Src/stm32f7xx_ll_usb.c ****     {
1663:Drivers/STM32F7xx_HAL_Driver/Src/stm32f7xx_ll_usb.c ****       USBx_HC(hc_num)->HCCHAR &= ~USB_OTG_HCCHAR_CHENA;
1664:Drivers/STM32F7xx_HAL_Driver/Src/stm32f7xx_ll_usb.c ****       USBx_HC(hc_num)->HCCHAR |= USB_OTG_HCCHAR_CHENA;
ARM GAS  C:\Users\Student\AppData\Local\Temp\ccty2SRd.s 			page 89


1665:Drivers/STM32F7xx_HAL_Driver/Src/stm32f7xx_ll_usb.c ****       USBx_HC(hc_num)->HCCHAR &= ~USB_OTG_HCCHAR_EPDIR;
1666:Drivers/STM32F7xx_HAL_Driver/Src/stm32f7xx_ll_usb.c ****       do
1667:Drivers/STM32F7xx_HAL_Driver/Src/stm32f7xx_ll_usb.c ****       {
1668:Drivers/STM32F7xx_HAL_Driver/Src/stm32f7xx_ll_usb.c ****         if (++count > 1000)
1669:Drivers/STM32F7xx_HAL_Driver/Src/stm32f7xx_ll_usb.c ****         {
1670:Drivers/STM32F7xx_HAL_Driver/Src/stm32f7xx_ll_usb.c ****           break;
1671:Drivers/STM32F7xx_HAL_Driver/Src/stm32f7xx_ll_usb.c ****         }
1672:Drivers/STM32F7xx_HAL_Driver/Src/stm32f7xx_ll_usb.c ****       }
1673:Drivers/STM32F7xx_HAL_Driver/Src/stm32f7xx_ll_usb.c ****       while ((USBx_HC(hc_num)->HCCHAR & USB_OTG_HCCHAR_CHENA) == USB_OTG_HCCHAR_CHENA);
1674:Drivers/STM32F7xx_HAL_Driver/Src/stm32f7xx_ll_usb.c ****     }
1675:Drivers/STM32F7xx_HAL_Driver/Src/stm32f7xx_ll_usb.c ****     else
1676:Drivers/STM32F7xx_HAL_Driver/Src/stm32f7xx_ll_usb.c ****     {
1677:Drivers/STM32F7xx_HAL_Driver/Src/stm32f7xx_ll_usb.c ****       USBx_HC(hc_num)->HCCHAR |= USB_OTG_HCCHAR_CHENA;
1678:Drivers/STM32F7xx_HAL_Driver/Src/stm32f7xx_ll_usb.c ****     }
1679:Drivers/STM32F7xx_HAL_Driver/Src/stm32f7xx_ll_usb.c ****   }
1680:Drivers/STM32F7xx_HAL_Driver/Src/stm32f7xx_ll_usb.c ****   else
1681:Drivers/STM32F7xx_HAL_Driver/Src/stm32f7xx_ll_usb.c ****   {
1682:Drivers/STM32F7xx_HAL_Driver/Src/stm32f7xx_ll_usb.c ****     USBx_HC(hc_num)->HCCHAR |= USB_OTG_HCCHAR_CHDIS;
 3066              		.loc 1 1682 0
 3067 0020 D1F80035 		ldr	r3, [r1, #1280]
 3068 0024 43F08043 		orr	r3, r3, #1073741824
 3069 0028 C1F80035 		str	r3, [r1, #1280]
1683:Drivers/STM32F7xx_HAL_Driver/Src/stm32f7xx_ll_usb.c **** 
1684:Drivers/STM32F7xx_HAL_Driver/Src/stm32f7xx_ll_usb.c ****     if ((USBx_HOST->HPTXSTS & 0xFFFF) == 0)
 3070              		.loc 1 1684 0
 3071 002c D0F81034 		ldr	r3, [r0, #1040]
 3072 0030 9BB2     		uxth	r3, r3
 3073 0032 002B     		cmp	r3, #0
 3074 0034 48D1     		bne	.L244
1685:Drivers/STM32F7xx_HAL_Driver/Src/stm32f7xx_ll_usb.c ****     {
1686:Drivers/STM32F7xx_HAL_Driver/Src/stm32f7xx_ll_usb.c ****       USBx_HC(hc_num)->HCCHAR &= ~USB_OTG_HCCHAR_CHENA;
 3075              		.loc 1 1686 0
 3076 0036 D1F80035 		ldr	r3, [r1, #1280]
 3077 003a 23F00043 		bic	r3, r3, #-2147483648
 3078 003e C1F80035 		str	r3, [r1, #1280]
1687:Drivers/STM32F7xx_HAL_Driver/Src/stm32f7xx_ll_usb.c ****       USBx_HC(hc_num)->HCCHAR |= USB_OTG_HCCHAR_CHENA;
 3079              		.loc 1 1687 0
 3080 0042 D1F80035 		ldr	r3, [r1, #1280]
 3081 0046 43F00043 		orr	r3, r3, #-2147483648
 3082 004a C1F80035 		str	r3, [r1, #1280]
1688:Drivers/STM32F7xx_HAL_Driver/Src/stm32f7xx_ll_usb.c ****       USBx_HC(hc_num)->HCCHAR &= ~USB_OTG_HCCHAR_EPDIR;
 3083              		.loc 1 1688 0
 3084 004e D1F80035 		ldr	r3, [r1, #1280]
 3085 0052 23F40043 		bic	r3, r3, #32768
 3086 0056 C1F80035 		str	r3, [r1, #1280]
1653:Drivers/STM32F7xx_HAL_Driver/Src/stm32f7xx_ll_usb.c **** 
 3087              		.loc 1 1653 0
 3088 005a 0023     		movs	r3, #0
 3089              	.LVL233:
 3090              	.L245:
1689:Drivers/STM32F7xx_HAL_Driver/Src/stm32f7xx_ll_usb.c ****       do
1690:Drivers/STM32F7xx_HAL_Driver/Src/stm32f7xx_ll_usb.c ****       {
1691:Drivers/STM32F7xx_HAL_Driver/Src/stm32f7xx_ll_usb.c ****         if (++count > 1000)
 3091              		.loc 1 1691 0
 3092 005c 0133     		adds	r3, r3, #1
 3093              	.LVL234:
 3094 005e B3F57A7F 		cmp	r3, #1000
ARM GAS  C:\Users\Student\AppData\Local\Temp\ccty2SRd.s 			page 90


 3095 0062 26D8     		bhi	.L242
1692:Drivers/STM32F7xx_HAL_Driver/Src/stm32f7xx_ll_usb.c ****         {
1693:Drivers/STM32F7xx_HAL_Driver/Src/stm32f7xx_ll_usb.c ****           break;
1694:Drivers/STM32F7xx_HAL_Driver/Src/stm32f7xx_ll_usb.c ****         }
1695:Drivers/STM32F7xx_HAL_Driver/Src/stm32f7xx_ll_usb.c ****       }
1696:Drivers/STM32F7xx_HAL_Driver/Src/stm32f7xx_ll_usb.c ****       while ((USBx_HC(hc_num)->HCCHAR & USB_OTG_HCCHAR_CHENA) == USB_OTG_HCCHAR_CHENA);
 3096              		.loc 1 1696 0
 3097 0064 2268     		ldr	r2, [r4]
 3098 0066 002A     		cmp	r2, #0
 3099 0068 F8DB     		blt	.L245
 3100 006a 22E0     		b	.L242
 3101              	.LVL235:
 3102              	.L239:
1659:Drivers/STM32F7xx_HAL_Driver/Src/stm32f7xx_ll_usb.c **** 
 3103              		.loc 1 1659 0
 3104 006c D1F80035 		ldr	r3, [r1, #1280]
 3105 0070 43F08043 		orr	r3, r3, #1073741824
 3106 0074 C1F80035 		str	r3, [r1, #1280]
1661:Drivers/STM32F7xx_HAL_Driver/Src/stm32f7xx_ll_usb.c ****     {
 3107              		.loc 1 1661 0
 3108 0078 C36A     		ldr	r3, [r0, #44]
 3109 007a 9BB2     		uxth	r3, r3
 3110 007c EBB9     		cbnz	r3, .L241
1663:Drivers/STM32F7xx_HAL_Driver/Src/stm32f7xx_ll_usb.c ****       USBx_HC(hc_num)->HCCHAR |= USB_OTG_HCCHAR_CHENA;
 3111              		.loc 1 1663 0
 3112 007e D1F80035 		ldr	r3, [r1, #1280]
 3113 0082 23F00043 		bic	r3, r3, #-2147483648
 3114 0086 C1F80035 		str	r3, [r1, #1280]
1664:Drivers/STM32F7xx_HAL_Driver/Src/stm32f7xx_ll_usb.c ****       USBx_HC(hc_num)->HCCHAR &= ~USB_OTG_HCCHAR_EPDIR;
 3115              		.loc 1 1664 0
 3116 008a D1F80035 		ldr	r3, [r1, #1280]
 3117 008e 43F00043 		orr	r3, r3, #-2147483648
 3118 0092 C1F80035 		str	r3, [r1, #1280]
1665:Drivers/STM32F7xx_HAL_Driver/Src/stm32f7xx_ll_usb.c ****       do
 3119              		.loc 1 1665 0
 3120 0096 D1F80035 		ldr	r3, [r1, #1280]
 3121 009a 23F40043 		bic	r3, r3, #32768
 3122 009e C1F80035 		str	r3, [r1, #1280]
1653:Drivers/STM32F7xx_HAL_Driver/Src/stm32f7xx_ll_usb.c **** 
 3123              		.loc 1 1653 0
 3124 00a2 0023     		movs	r3, #0
 3125              	.LVL236:
 3126              	.L243:
1668:Drivers/STM32F7xx_HAL_Driver/Src/stm32f7xx_ll_usb.c ****         {
 3127              		.loc 1 1668 0
 3128 00a4 0133     		adds	r3, r3, #1
 3129              	.LVL237:
 3130 00a6 B3F57A7F 		cmp	r3, #1000
 3131 00aa 02D8     		bhi	.L242
1673:Drivers/STM32F7xx_HAL_Driver/Src/stm32f7xx_ll_usb.c ****     }
 3132              		.loc 1 1673 0
 3133 00ac 2268     		ldr	r2, [r4]
 3134 00ae 002A     		cmp	r2, #0
 3135 00b0 F8DB     		blt	.L243
 3136              	.LVL238:
 3137              	.L242:
1697:Drivers/STM32F7xx_HAL_Driver/Src/stm32f7xx_ll_usb.c ****     }
ARM GAS  C:\Users\Student\AppData\Local\Temp\ccty2SRd.s 			page 91


1698:Drivers/STM32F7xx_HAL_Driver/Src/stm32f7xx_ll_usb.c ****     else
1699:Drivers/STM32F7xx_HAL_Driver/Src/stm32f7xx_ll_usb.c ****     {
1700:Drivers/STM32F7xx_HAL_Driver/Src/stm32f7xx_ll_usb.c ****        USBx_HC(hc_num)->HCCHAR |= USB_OTG_HCCHAR_CHENA;
1701:Drivers/STM32F7xx_HAL_Driver/Src/stm32f7xx_ll_usb.c ****     }
1702:Drivers/STM32F7xx_HAL_Driver/Src/stm32f7xx_ll_usb.c ****   }
1703:Drivers/STM32F7xx_HAL_Driver/Src/stm32f7xx_ll_usb.c **** 
1704:Drivers/STM32F7xx_HAL_Driver/Src/stm32f7xx_ll_usb.c ****   return HAL_OK;
1705:Drivers/STM32F7xx_HAL_Driver/Src/stm32f7xx_ll_usb.c **** }
 3138              		.loc 1 1705 0
 3139 00b2 0020     		movs	r0, #0
 3140              	.LVL239:
 3141 00b4 5DF8044B 		ldr	r4, [sp], #4
 3142              	.LCFI55:
 3143              		.cfi_remember_state
 3144              		.cfi_restore 4
 3145              		.cfi_def_cfa_offset 0
 3146 00b8 7047     		bx	lr
 3147              	.LVL240:
 3148              	.L241:
 3149              	.LCFI56:
 3150              		.cfi_restore_state
1677:Drivers/STM32F7xx_HAL_Driver/Src/stm32f7xx_ll_usb.c ****     }
 3151              		.loc 1 1677 0
 3152 00ba D1F80035 		ldr	r3, [r1, #1280]
 3153 00be 43F00043 		orr	r3, r3, #-2147483648
 3154 00c2 C1F80035 		str	r3, [r1, #1280]
 3155 00c6 F4E7     		b	.L242
 3156              	.L244:
1700:Drivers/STM32F7xx_HAL_Driver/Src/stm32f7xx_ll_usb.c ****     }
 3157              		.loc 1 1700 0
 3158 00c8 D1F80035 		ldr	r3, [r1, #1280]
 3159 00cc 43F00043 		orr	r3, r3, #-2147483648
 3160 00d0 C1F80035 		str	r3, [r1, #1280]
 3161 00d4 EDE7     		b	.L242
 3162              		.cfi_endproc
 3163              	.LFE178:
 3165              		.section	.text.USB_DoPing,"ax",%progbits
 3166              		.align	1
 3167              		.global	USB_DoPing
 3168              		.syntax unified
 3169              		.thumb
 3170              		.thumb_func
 3171              		.fpu fpv5-sp-d16
 3173              	USB_DoPing:
 3174              	.LFB179:
1706:Drivers/STM32F7xx_HAL_Driver/Src/stm32f7xx_ll_usb.c **** 
1707:Drivers/STM32F7xx_HAL_Driver/Src/stm32f7xx_ll_usb.c **** /**
1708:Drivers/STM32F7xx_HAL_Driver/Src/stm32f7xx_ll_usb.c ****   * @brief  Initiate Do Ping protocol
1709:Drivers/STM32F7xx_HAL_Driver/Src/stm32f7xx_ll_usb.c ****   * @param  USBx : Selected device
1710:Drivers/STM32F7xx_HAL_Driver/Src/stm32f7xx_ll_usb.c ****   * @param  hc_num : Host Channel number
1711:Drivers/STM32F7xx_HAL_Driver/Src/stm32f7xx_ll_usb.c ****   *         This parameter can be a value from 1 to 15
1712:Drivers/STM32F7xx_HAL_Driver/Src/stm32f7xx_ll_usb.c ****   * @retval HAL state
1713:Drivers/STM32F7xx_HAL_Driver/Src/stm32f7xx_ll_usb.c ****   */
1714:Drivers/STM32F7xx_HAL_Driver/Src/stm32f7xx_ll_usb.c **** HAL_StatusTypeDef USB_DoPing(USB_OTG_GlobalTypeDef *USBx , uint8_t ch_num)
1715:Drivers/STM32F7xx_HAL_Driver/Src/stm32f7xx_ll_usb.c **** {
 3175              		.loc 1 1715 0
 3176              		.cfi_startproc
ARM GAS  C:\Users\Student\AppData\Local\Temp\ccty2SRd.s 			page 92


 3177              		@ args = 0, pretend = 0, frame = 0
 3178              		@ frame_needed = 0, uses_anonymous_args = 0
 3179              		@ link register save eliminated.
 3180              	.LVL241:
1716:Drivers/STM32F7xx_HAL_Driver/Src/stm32f7xx_ll_usb.c ****   uint8_t  num_packets = 1;
1717:Drivers/STM32F7xx_HAL_Driver/Src/stm32f7xx_ll_usb.c ****   uint32_t tmpreg = 0;
1718:Drivers/STM32F7xx_HAL_Driver/Src/stm32f7xx_ll_usb.c **** 
1719:Drivers/STM32F7xx_HAL_Driver/Src/stm32f7xx_ll_usb.c ****   USBx_HC(ch_num)->HCTSIZ = ((num_packets << 19) & USB_OTG_HCTSIZ_PKTCNT) |\
 3181              		.loc 1 1719 0
 3182 0000 00EB4111 		add	r1, r0, r1, lsl #5
 3183              	.LVL242:
 3184 0004 064A     		ldr	r2, .L248
 3185 0006 C1F81025 		str	r2, [r1, #1296]
1720:Drivers/STM32F7xx_HAL_Driver/Src/stm32f7xx_ll_usb.c ****                                 USB_OTG_HCTSIZ_DOPING;
1721:Drivers/STM32F7xx_HAL_Driver/Src/stm32f7xx_ll_usb.c **** 
1722:Drivers/STM32F7xx_HAL_Driver/Src/stm32f7xx_ll_usb.c ****   /* Set host channel enable */
1723:Drivers/STM32F7xx_HAL_Driver/Src/stm32f7xx_ll_usb.c ****   tmpreg = USBx_HC(ch_num)->HCCHAR;
 3186              		.loc 1 1723 0
 3187 000a D1F80035 		ldr	r3, [r1, #1280]
 3188              	.LVL243:
1724:Drivers/STM32F7xx_HAL_Driver/Src/stm32f7xx_ll_usb.c ****   tmpreg &= ~USB_OTG_HCCHAR_CHDIS;
 3189              		.loc 1 1724 0
 3190 000e 23F08043 		bic	r3, r3, #1073741824
 3191              	.LVL244:
1725:Drivers/STM32F7xx_HAL_Driver/Src/stm32f7xx_ll_usb.c ****   tmpreg |= USB_OTG_HCCHAR_CHENA;
 3192              		.loc 1 1725 0
 3193 0012 43F00043 		orr	r3, r3, #-2147483648
 3194              	.LVL245:
1726:Drivers/STM32F7xx_HAL_Driver/Src/stm32f7xx_ll_usb.c ****   USBx_HC(ch_num)->HCCHAR = tmpreg;
 3195              		.loc 1 1726 0
 3196 0016 C1F80035 		str	r3, [r1, #1280]
1727:Drivers/STM32F7xx_HAL_Driver/Src/stm32f7xx_ll_usb.c **** 
1728:Drivers/STM32F7xx_HAL_Driver/Src/stm32f7xx_ll_usb.c ****   return HAL_OK;
1729:Drivers/STM32F7xx_HAL_Driver/Src/stm32f7xx_ll_usb.c **** }
 3197              		.loc 1 1729 0
 3198 001a 0020     		movs	r0, #0
 3199              	.LVL246:
 3200 001c 7047     		bx	lr
 3201              	.L249:
 3202 001e 00BF     		.align	2
 3203              	.L248:
 3204 0020 00000880 		.word	-2146959360
 3205              		.cfi_endproc
 3206              	.LFE179:
 3208              		.section	.text.USB_HC_StartXfer,"ax",%progbits
 3209              		.align	1
 3210              		.global	USB_HC_StartXfer
 3211              		.syntax unified
 3212              		.thumb
 3213              		.thumb_func
 3214              		.fpu fpv5-sp-d16
 3216              	USB_HC_StartXfer:
 3217              	.LFB176:
1529:Drivers/STM32F7xx_HAL_Driver/Src/stm32f7xx_ll_usb.c ****   static __IO uint32_t tmpreg = 0;
 3218              		.loc 1 1529 0
 3219              		.cfi_startproc
 3220              		@ args = 0, pretend = 0, frame = 0
ARM GAS  C:\Users\Student\AppData\Local\Temp\ccty2SRd.s 			page 93


 3221              		@ frame_needed = 0, uses_anonymous_args = 0
 3222              	.LVL247:
 3223 0000 70B5     		push	{r4, r5, r6, lr}
 3224              	.LCFI57:
 3225              		.cfi_def_cfa_offset 16
 3226              		.cfi_offset 4, -16
 3227              		.cfi_offset 5, -12
 3228              		.cfi_offset 6, -8
 3229              		.cfi_offset 14, -4
 3230 0002 82B0     		sub	sp, sp, #8
 3231              	.LCFI58:
 3232              		.cfi_def_cfa_offset 24
 3233              	.LVL248:
1536:Drivers/STM32F7xx_HAL_Driver/Src/stm32f7xx_ll_usb.c ****   {
 3234              		.loc 1 1536 0
 3235 0004 B0F1A04F 		cmp	r0, #1342177280
 3236 0008 07D0     		beq	.L251
1536:Drivers/STM32F7xx_HAL_Driver/Src/stm32f7xx_ll_usb.c ****   {
 3237              		.loc 1 1536 0 is_stmt 0 discriminator 1
 3238 000a 0B79     		ldrb	r3, [r1, #4]	@ zero_extendqisi2
 3239 000c 2BB9     		cbnz	r3, .L251
1538:Drivers/STM32F7xx_HAL_Driver/Src/stm32f7xx_ll_usb.c ****     {
 3240              		.loc 1 1538 0 is_stmt 1
 3241 000e 12B9     		cbnz	r2, .L252
1538:Drivers/STM32F7xx_HAL_Driver/Src/stm32f7xx_ll_usb.c ****     {
 3242              		.loc 1 1538 0 is_stmt 0 discriminator 1
 3243 0010 4B79     		ldrb	r3, [r1, #5]	@ zero_extendqisi2
 3244 0012 012B     		cmp	r3, #1
 3245 0014 11D0     		beq	.L263
 3246              	.L252:
1543:Drivers/STM32F7xx_HAL_Driver/Src/stm32f7xx_ll_usb.c ****     {
 3247              		.loc 1 1543 0 is_stmt 1
 3248 0016 012A     		cmp	r2, #1
 3249 0018 13D0     		beq	.L264
 3250              	.L251:
1551:Drivers/STM32F7xx_HAL_Driver/Src/stm32f7xx_ll_usb.c ****   {
 3251              		.loc 1 1551 0
 3252 001a 0B69     		ldr	r3, [r1, #16]
 3253 001c EBB1     		cbz	r3, .L261
1553:Drivers/STM32F7xx_HAL_Driver/Src/stm32f7xx_ll_usb.c **** 
 3254              		.loc 1 1553 0
 3255 001e 0C89     		ldrh	r4, [r1, #8]
 3256 0020 2344     		add	r3, r3, r4
 3257 0022 013B     		subs	r3, r3, #1
 3258 0024 B3FBF4F3 		udiv	r3, r3, r4
 3259 0028 9BB2     		uxth	r3, r3
 3260              	.LVL249:
1555:Drivers/STM32F7xx_HAL_Driver/Src/stm32f7xx_ll_usb.c ****     {
 3261              		.loc 1 1555 0
 3262 002a B3F5807F 		cmp	r3, #256
 3263 002e 15D9     		bls	.L254
 3264              	.LVL250:
1558:Drivers/STM32F7xx_HAL_Driver/Src/stm32f7xx_ll_usb.c ****     }
 3265              		.loc 1 1558 0
 3266 0030 2402     		lsls	r4, r4, #8
 3267 0032 0C61     		str	r4, [r1, #16]
1557:Drivers/STM32F7xx_HAL_Driver/Src/stm32f7xx_ll_usb.c ****       hc->xfer_len = num_packets * hc->max_packet;
ARM GAS  C:\Users\Student\AppData\Local\Temp\ccty2SRd.s 			page 94


 3268              		.loc 1 1557 0
 3269 0034 4FF48073 		mov	r3, #256
 3270 0038 10E0     		b	.L254
 3271              	.LVL251:
 3272              	.L263:
1540:Drivers/STM32F7xx_HAL_Driver/Src/stm32f7xx_ll_usb.c ****       return HAL_OK;
 3273              		.loc 1 1540 0
 3274 003a 4978     		ldrb	r1, [r1, #1]	@ zero_extendqisi2
 3275              	.LVL252:
 3276 003c FFF7FEFF 		bl	USB_DoPing
 3277              	.LVL253:
1541:Drivers/STM32F7xx_HAL_Driver/Src/stm32f7xx_ll_usb.c ****     }
 3278              		.loc 1 1541 0
 3279 0040 76E0     		b	.L253
 3280              	.LVL254:
 3281              	.L264:
1545:Drivers/STM32F7xx_HAL_Driver/Src/stm32f7xx_ll_usb.c ****       hc->do_ping = 0;
 3282              		.loc 1 1545 0
 3283 0042 4B78     		ldrb	r3, [r1, #1]	@ zero_extendqisi2
 3284 0044 00EB4313 		add	r3, r0, r3, lsl #5
 3285 0048 D3F80C45 		ldr	r4, [r3, #1292]
 3286 004c 24F06004 		bic	r4, r4, #96
 3287 0050 C3F80C45 		str	r4, [r3, #1292]
1546:Drivers/STM32F7xx_HAL_Driver/Src/stm32f7xx_ll_usb.c ****     }
 3288              		.loc 1 1546 0
 3289 0054 0023     		movs	r3, #0
 3290 0056 4B71     		strb	r3, [r1, #5]
 3291 0058 DFE7     		b	.L251
 3292              	.L261:
1563:Drivers/STM32F7xx_HAL_Driver/Src/stm32f7xx_ll_usb.c ****   }
 3293              		.loc 1 1563 0
 3294 005a 0123     		movs	r3, #1
 3295              	.LVL255:
 3296              	.L254:
1565:Drivers/STM32F7xx_HAL_Driver/Src/stm32f7xx_ll_usb.c ****   {
 3297              		.loc 1 1565 0
 3298 005c CC78     		ldrb	r4, [r1, #3]	@ zero_extendqisi2
 3299 005e 1CB1     		cbz	r4, .L255
1567:Drivers/STM32F7xx_HAL_Driver/Src/stm32f7xx_ll_usb.c ****   }
 3300              		.loc 1 1567 0
 3301 0060 0C89     		ldrh	r4, [r1, #8]
 3302 0062 04FB03F4 		mul	r4, r4, r3
 3303 0066 0C61     		str	r4, [r1, #16]
 3304              	.L255:
1571:Drivers/STM32F7xx_HAL_Driver/Src/stm32f7xx_ll_usb.c ****     ((num_packets << 19) & USB_OTG_HCTSIZ_PKTCNT) |\
 3305              		.loc 1 1571 0
 3306 0068 4D78     		ldrb	r5, [r1, #1]	@ zero_extendqisi2
 3307 006a 00EB4515 		add	r5, r0, r5, lsl #5
 3308 006e 0C69     		ldr	r4, [r1, #16]
 3309 0070 C4F31204 		ubfx	r4, r4, #0, #19
1572:Drivers/STM32F7xx_HAL_Driver/Src/stm32f7xx_ll_usb.c ****       (((hc->data_pid) << 29) & USB_OTG_HCTSIZ_DPID);
 3310              		.loc 1 1572 0
 3311 0074 364E     		ldr	r6, .L265
 3312 0076 06EAC343 		and	r3, r6, r3, lsl #19
 3313              	.LVL256:
1571:Drivers/STM32F7xx_HAL_Driver/Src/stm32f7xx_ll_usb.c ****     ((num_packets << 19) & USB_OTG_HCTSIZ_PKTCNT) |\
 3314              		.loc 1 1571 0
ARM GAS  C:\Users\Student\AppData\Local\Temp\ccty2SRd.s 			page 95


 3315 007a 2343     		orrs	r3, r3, r4
1573:Drivers/STM32F7xx_HAL_Driver/Src/stm32f7xx_ll_usb.c **** 
 3316              		.loc 1 1573 0
 3317 007c 8C7A     		ldrb	r4, [r1, #10]	@ zero_extendqisi2
 3318 007e 6407     		lsls	r4, r4, #29
 3319 0080 04F0C044 		and	r4, r4, #1610612736
1572:Drivers/STM32F7xx_HAL_Driver/Src/stm32f7xx_ll_usb.c ****       (((hc->data_pid) << 29) & USB_OTG_HCTSIZ_DPID);
 3320              		.loc 1 1572 0
 3321 0084 2343     		orrs	r3, r3, r4
1571:Drivers/STM32F7xx_HAL_Driver/Src/stm32f7xx_ll_usb.c ****     ((num_packets << 19) & USB_OTG_HCTSIZ_PKTCNT) |\
 3322              		.loc 1 1571 0
 3323 0086 C5F81035 		str	r3, [r5, #1296]
 3324 008a 05F5A065 		add	r5, r5, #1280
1575:Drivers/STM32F7xx_HAL_Driver/Src/stm32f7xx_ll_usb.c ****   {
 3325              		.loc 1 1575 0
 3326 008e 2AB1     		cbz	r2, .L256
1578:Drivers/STM32F7xx_HAL_Driver/Src/stm32f7xx_ll_usb.c ****   }
 3327              		.loc 1 1578 0
 3328 0090 4B78     		ldrb	r3, [r1, #1]	@ zero_extendqisi2
 3329 0092 00EB4313 		add	r3, r0, r3, lsl #5
 3330 0096 CC68     		ldr	r4, [r1, #12]
 3331 0098 C3F81445 		str	r4, [r3, #1300]
 3332              	.L256:
1581:Drivers/STM32F7xx_HAL_Driver/Src/stm32f7xx_ll_usb.c ****   USBx_HC(hc->ch_num)->HCCHAR &= ~USB_OTG_HCCHAR_ODDFRM;
 3333              		.loc 1 1581 0
 3334 009c 00F58066 		add	r6, r0, #1024
 3335 00a0 B368     		ldr	r3, [r6, #8]
 3336 00a2 13F0010F 		tst	r3, #1
 3337              	.LVL257:
1582:Drivers/STM32F7xx_HAL_Driver/Src/stm32f7xx_ll_usb.c ****   USBx_HC(hc->ch_num)->HCCHAR |= (is_oddframe << 29);
 3338              		.loc 1 1582 0
 3339 00a6 4B78     		ldrb	r3, [r1, #1]	@ zero_extendqisi2
 3340 00a8 00EB4313 		add	r3, r0, r3, lsl #5
 3341 00ac D3F80045 		ldr	r4, [r3, #1280]
 3342 00b0 24F00054 		bic	r4, r4, #536870912
 3343 00b4 C3F80045 		str	r4, [r3, #1280]
1583:Drivers/STM32F7xx_HAL_Driver/Src/stm32f7xx_ll_usb.c **** 
 3344              		.loc 1 1583 0
 3345 00b8 4B78     		ldrb	r3, [r1, #1]	@ zero_extendqisi2
 3346 00ba 00EB4313 		add	r3, r0, r3, lsl #5
 3347 00be D3F80045 		ldr	r4, [r3, #1280]
 3348 00c2 0CBF     		ite	eq
 3349 00c4 4FF00055 		moveq	r5, #536870912
 3350 00c8 0025     		movne	r5, #0
 3351 00ca 2C43     		orrs	r4, r4, r5
 3352 00cc C3F80045 		str	r4, [r3, #1280]
1586:Drivers/STM32F7xx_HAL_Driver/Src/stm32f7xx_ll_usb.c ****   tmpreg &= ~USB_OTG_HCCHAR_CHDIS;
 3353              		.loc 1 1586 0
 3354 00d0 4C78     		ldrb	r4, [r1, #1]	@ zero_extendqisi2
 3355 00d2 00EB4414 		add	r4, r0, r4, lsl #5
 3356 00d6 D4F80055 		ldr	r5, [r4, #1280]
 3357 00da 1E4B     		ldr	r3, .L265+4
 3358 00dc 1D60     		str	r5, [r3]
1587:Drivers/STM32F7xx_HAL_Driver/Src/stm32f7xx_ll_usb.c ****   tmpreg |= USB_OTG_HCCHAR_CHENA;
 3359              		.loc 1 1587 0
 3360 00de 1D68     		ldr	r5, [r3]
 3361 00e0 25F08045 		bic	r5, r5, #1073741824
ARM GAS  C:\Users\Student\AppData\Local\Temp\ccty2SRd.s 			page 96


 3362 00e4 1D60     		str	r5, [r3]
1588:Drivers/STM32F7xx_HAL_Driver/Src/stm32f7xx_ll_usb.c ****   USBx_HC(hc->ch_num)->HCCHAR = tmpreg;
 3363              		.loc 1 1588 0
 3364 00e6 1D68     		ldr	r5, [r3]
 3365 00e8 45F00045 		orr	r5, r5, #-2147483648
 3366 00ec 1D60     		str	r5, [r3]
1589:Drivers/STM32F7xx_HAL_Driver/Src/stm32f7xx_ll_usb.c **** 
 3367              		.loc 1 1589 0
 3368 00ee 1B68     		ldr	r3, [r3]
 3369 00f0 C4F80035 		str	r3, [r4, #1280]
1591:Drivers/STM32F7xx_HAL_Driver/Src/stm32f7xx_ll_usb.c ****   {
 3370              		.loc 1 1591 0
 3371 00f4 E2B9     		cbnz	r2, .L253
 3372              	.LVL258:
1593:Drivers/STM32F7xx_HAL_Driver/Src/stm32f7xx_ll_usb.c ****     {
 3373              		.loc 1 1593 0
 3374 00f6 CB78     		ldrb	r3, [r1, #3]	@ zero_extendqisi2
 3375 00f8 D3B9     		cbnz	r3, .L253
1593:Drivers/STM32F7xx_HAL_Driver/Src/stm32f7xx_ll_usb.c ****     {
 3376              		.loc 1 1593 0 is_stmt 0 discriminator 1
 3377 00fa 0B69     		ldr	r3, [r1, #16]
 3378 00fc C3B1     		cbz	r3, .L253
1595:Drivers/STM32F7xx_HAL_Driver/Src/stm32f7xx_ll_usb.c ****       {
 3379              		.loc 1 1595 0 is_stmt 1
 3380 00fe CA79     		ldrb	r2, [r1, #7]	@ zero_extendqisi2
 3381              	.LVL259:
 3382 0100 032A     		cmp	r2, #3
 3383 0102 0ED8     		bhi	.L257
 3384 0104 DFE802F0 		tbb	[pc, r2]
 3385              	.L259:
 3386 0108 02       		.byte	(.L258-.L259)/2
 3387 0109 17       		.byte	(.L260-.L259)/2
 3388 010a 02       		.byte	(.L258-.L259)/2
 3389 010b 17       		.byte	(.L260-.L259)/2
 3390              		.p2align 1
 3391              	.L258:
1601:Drivers/STM32F7xx_HAL_Driver/Src/stm32f7xx_ll_usb.c **** 
 3392              		.loc 1 1601 0
 3393 010c 0333     		adds	r3, r3, #3
 3394              	.LVL260:
1604:Drivers/STM32F7xx_HAL_Driver/Src/stm32f7xx_ll_usb.c ****         {
 3395              		.loc 1 1604 0
 3396 010e C26A     		ldr	r2, [r0, #44]
 3397 0110 92B2     		uxth	r2, r2
 3398 0112 C3F38F03 		ubfx	r3, r3, #2, #16
 3399              	.LVL261:
 3400 0116 9342     		cmp	r3, r2
 3401 0118 03D9     		bls	.L257
1607:Drivers/STM32F7xx_HAL_Driver/Src/stm32f7xx_ll_usb.c ****         }
 3402              		.loc 1 1607 0
 3403 011a 8369     		ldr	r3, [r0, #24]
 3404 011c 43F02003 		orr	r3, r3, #32
 3405 0120 8361     		str	r3, [r0, #24]
 3406              	.LVL262:
 3407              	.L257:
1627:Drivers/STM32F7xx_HAL_Driver/Src/stm32f7xx_ll_usb.c ****     }
 3408              		.loc 1 1627 0
ARM GAS  C:\Users\Student\AppData\Local\Temp\ccty2SRd.s 			page 97


 3409 0122 0B8A     		ldrh	r3, [r1, #16]
 3410 0124 4A78     		ldrb	r2, [r1, #1]	@ zero_extendqisi2
 3411 0126 C968     		ldr	r1, [r1, #12]
 3412              	.LVL263:
 3413 0128 0024     		movs	r4, #0
 3414 012a 0094     		str	r4, [sp]
 3415 012c FFF7FEFF 		bl	USB_WritePacket
 3416              	.LVL264:
 3417              	.L253:
1632:Drivers/STM32F7xx_HAL_Driver/Src/stm32f7xx_ll_usb.c **** 
 3418              		.loc 1 1632 0
 3419 0130 0020     		movs	r0, #0
 3420 0132 02B0     		add	sp, sp, #8
 3421              	.LCFI59:
 3422              		.cfi_remember_state
 3423              		.cfi_def_cfa_offset 16
 3424              		@ sp needed
 3425 0134 70BD     		pop	{r4, r5, r6, pc}
 3426              	.LVL265:
 3427              	.L260:
 3428              	.LCFI60:
 3429              		.cfi_restore_state
1613:Drivers/STM32F7xx_HAL_Driver/Src/stm32f7xx_ll_usb.c ****         /* check if there is enough space in FIFO space */
 3430              		.loc 1 1613 0
 3431 0136 0333     		adds	r3, r3, #3
 3432              	.LVL266:
1615:Drivers/STM32F7xx_HAL_Driver/Src/stm32f7xx_ll_usb.c ****         {
 3433              		.loc 1 1615 0
 3434 0138 3269     		ldr	r2, [r6, #16]
 3435 013a 92B2     		uxth	r2, r2
 3436 013c C3F38F03 		ubfx	r3, r3, #2, #16
 3437              	.LVL267:
 3438 0140 9342     		cmp	r3, r2
 3439 0142 EED9     		bls	.L257
1618:Drivers/STM32F7xx_HAL_Driver/Src/stm32f7xx_ll_usb.c ****         }
 3440              		.loc 1 1618 0
 3441 0144 8369     		ldr	r3, [r0, #24]
 3442 0146 43F08063 		orr	r3, r3, #67108864
 3443 014a 8361     		str	r3, [r0, #24]
 3444              	.LVL268:
 3445 014c E9E7     		b	.L257
 3446              	.L266:
 3447 014e 00BF     		.align	2
 3448              	.L265:
 3449 0150 0000F81F 		.word	536346624
 3450 0154 00000000 		.word	.LANCHOR1
 3451              		.cfi_endproc
 3452              	.LFE176:
 3454              		.section	.text.USB_StopHost,"ax",%progbits
 3455              		.align	1
 3456              		.global	USB_StopHost
 3457              		.syntax unified
 3458              		.thumb
 3459              		.thumb_func
 3460              		.fpu fpv5-sp-d16
 3462              	USB_StopHost:
 3463              	.LFB180:
ARM GAS  C:\Users\Student\AppData\Local\Temp\ccty2SRd.s 			page 98


1730:Drivers/STM32F7xx_HAL_Driver/Src/stm32f7xx_ll_usb.c **** 
1731:Drivers/STM32F7xx_HAL_Driver/Src/stm32f7xx_ll_usb.c **** /**
1732:Drivers/STM32F7xx_HAL_Driver/Src/stm32f7xx_ll_usb.c ****   * @brief  Stop Host Core
1733:Drivers/STM32F7xx_HAL_Driver/Src/stm32f7xx_ll_usb.c ****   * @param  USBx : Selected device
1734:Drivers/STM32F7xx_HAL_Driver/Src/stm32f7xx_ll_usb.c ****   * @retval HAL state
1735:Drivers/STM32F7xx_HAL_Driver/Src/stm32f7xx_ll_usb.c ****   */
1736:Drivers/STM32F7xx_HAL_Driver/Src/stm32f7xx_ll_usb.c **** HAL_StatusTypeDef USB_StopHost(USB_OTG_GlobalTypeDef *USBx)
1737:Drivers/STM32F7xx_HAL_Driver/Src/stm32f7xx_ll_usb.c **** {
 3464              		.loc 1 1737 0
 3465              		.cfi_startproc
 3466              		@ args = 0, pretend = 0, frame = 0
 3467              		@ frame_needed = 0, uses_anonymous_args = 0
 3468              	.LVL269:
 3469 0000 38B5     		push	{r3, r4, r5, lr}
 3470              	.LCFI61:
 3471              		.cfi_def_cfa_offset 16
 3472              		.cfi_offset 3, -16
 3473              		.cfi_offset 4, -12
 3474              		.cfi_offset 5, -8
 3475              		.cfi_offset 14, -4
 3476 0002 0446     		mov	r4, r0
 3477              	.LVL270:
1738:Drivers/STM32F7xx_HAL_Driver/Src/stm32f7xx_ll_usb.c ****   uint8_t i;
1739:Drivers/STM32F7xx_HAL_Driver/Src/stm32f7xx_ll_usb.c ****   uint32_t count = 0;
1740:Drivers/STM32F7xx_HAL_Driver/Src/stm32f7xx_ll_usb.c ****   uint32_t value;
1741:Drivers/STM32F7xx_HAL_Driver/Src/stm32f7xx_ll_usb.c **** 
1742:Drivers/STM32F7xx_HAL_Driver/Src/stm32f7xx_ll_usb.c ****   USB_DisableGlobalInt(USBx);
 3478              		.loc 1 1742 0
 3479 0004 FFF7FEFF 		bl	USB_DisableGlobalInt
 3480              	.LVL271:
1743:Drivers/STM32F7xx_HAL_Driver/Src/stm32f7xx_ll_usb.c **** 
1744:Drivers/STM32F7xx_HAL_Driver/Src/stm32f7xx_ll_usb.c ****     /* Flush FIFO */
1745:Drivers/STM32F7xx_HAL_Driver/Src/stm32f7xx_ll_usb.c ****   USB_FlushTxFifo(USBx, 0x10);
 3481              		.loc 1 1745 0
 3482 0008 1021     		movs	r1, #16
 3483 000a 2046     		mov	r0, r4
 3484 000c FFF7FEFF 		bl	USB_FlushTxFifo
 3485              	.LVL272:
1746:Drivers/STM32F7xx_HAL_Driver/Src/stm32f7xx_ll_usb.c ****   USB_FlushRxFifo(USBx);
 3486              		.loc 1 1746 0
 3487 0010 2046     		mov	r0, r4
 3488 0012 FFF7FEFF 		bl	USB_FlushRxFifo
 3489              	.LVL273:
1747:Drivers/STM32F7xx_HAL_Driver/Src/stm32f7xx_ll_usb.c **** 
1748:Drivers/STM32F7xx_HAL_Driver/Src/stm32f7xx_ll_usb.c ****   /* Flush out any leftover queued requests. */
1749:Drivers/STM32F7xx_HAL_Driver/Src/stm32f7xx_ll_usb.c ****   for (i = 0; i <= 15; i++)
 3490              		.loc 1 1749 0
 3491 0016 0023     		movs	r3, #0
 3492 0018 0BE0     		b	.L268
 3493              	.LVL274:
 3494              	.L269:
1750:Drivers/STM32F7xx_HAL_Driver/Src/stm32f7xx_ll_usb.c ****   {
1751:Drivers/STM32F7xx_HAL_Driver/Src/stm32f7xx_ll_usb.c **** 
1752:Drivers/STM32F7xx_HAL_Driver/Src/stm32f7xx_ll_usb.c ****     value = USBx_HC(i)->HCCHAR ;
 3495              		.loc 1 1752 0 discriminator 3
 3496 001a 04EB4311 		add	r1, r4, r3, lsl #5
 3497 001e D1F80025 		ldr	r2, [r1, #1280]
ARM GAS  C:\Users\Student\AppData\Local\Temp\ccty2SRd.s 			page 99


 3498              	.LVL275:
 3499 0022 22F08022 		bic	r2, r2, #-2147450880
 3500              	.LVL276:
1753:Drivers/STM32F7xx_HAL_Driver/Src/stm32f7xx_ll_usb.c ****     value |=  USB_OTG_HCCHAR_CHDIS;
1754:Drivers/STM32F7xx_HAL_Driver/Src/stm32f7xx_ll_usb.c ****     value &= ~USB_OTG_HCCHAR_CHENA;
1755:Drivers/STM32F7xx_HAL_Driver/Src/stm32f7xx_ll_usb.c ****     value &= ~USB_OTG_HCCHAR_EPDIR;
 3501              		.loc 1 1755 0 discriminator 3
 3502 0026 42F08042 		orr	r2, r2, #1073741824
 3503              	.LVL277:
1756:Drivers/STM32F7xx_HAL_Driver/Src/stm32f7xx_ll_usb.c ****     USBx_HC(i)->HCCHAR = value;
 3504              		.loc 1 1756 0 discriminator 3
 3505 002a C1F80025 		str	r2, [r1, #1280]
1749:Drivers/STM32F7xx_HAL_Driver/Src/stm32f7xx_ll_usb.c ****   {
 3506              		.loc 1 1749 0 discriminator 3
 3507 002e 0133     		adds	r3, r3, #1
 3508              	.LVL278:
 3509 0030 DBB2     		uxtb	r3, r3
 3510              	.LVL279:
 3511              	.L268:
1749:Drivers/STM32F7xx_HAL_Driver/Src/stm32f7xx_ll_usb.c ****   {
 3512              		.loc 1 1749 0 is_stmt 0 discriminator 1
 3513 0032 0F2B     		cmp	r3, #15
 3514 0034 F1D9     		bls	.L269
 3515 0036 0023     		movs	r3, #0
 3516              	.LVL280:
 3517 0038 1846     		mov	r0, r3
 3518 003a 01E0     		b	.L270
 3519              	.LVL281:
 3520              	.L271:
1757:Drivers/STM32F7xx_HAL_Driver/Src/stm32f7xx_ll_usb.c ****   }
1758:Drivers/STM32F7xx_HAL_Driver/Src/stm32f7xx_ll_usb.c **** 
1759:Drivers/STM32F7xx_HAL_Driver/Src/stm32f7xx_ll_usb.c ****   /* Halt all channels to put them into a known state. */
1760:Drivers/STM32F7xx_HAL_Driver/Src/stm32f7xx_ll_usb.c ****   for (i = 0; i <= 15; i++)
 3521              		.loc 1 1760 0 is_stmt 1 discriminator 2
 3522 003c 0130     		adds	r0, r0, #1
 3523              	.LVL282:
 3524 003e C0B2     		uxtb	r0, r0
 3525              	.LVL283:
 3526              	.L270:
 3527              		.loc 1 1760 0 is_stmt 0 discriminator 1
 3528 0040 0F28     		cmp	r0, #15
 3529 0042 13D8     		bhi	.L275
1761:Drivers/STM32F7xx_HAL_Driver/Src/stm32f7xx_ll_usb.c ****   {
1762:Drivers/STM32F7xx_HAL_Driver/Src/stm32f7xx_ll_usb.c ****     value = USBx_HC(i)->HCCHAR ;
 3530              		.loc 1 1762 0 is_stmt 1
 3531 0044 04EB4015 		add	r5, r4, r0, lsl #5
 3532 0048 05F5A061 		add	r1, r5, #1280
 3533 004c D5F80025 		ldr	r2, [r5, #1280]
 3534              	.LVL284:
 3535 0050 22F40042 		bic	r2, r2, #32768
 3536              	.LVL285:
1763:Drivers/STM32F7xx_HAL_Driver/Src/stm32f7xx_ll_usb.c **** 
1764:Drivers/STM32F7xx_HAL_Driver/Src/stm32f7xx_ll_usb.c ****     value |= USB_OTG_HCCHAR_CHDIS;
1765:Drivers/STM32F7xx_HAL_Driver/Src/stm32f7xx_ll_usb.c ****     value |= USB_OTG_HCCHAR_CHENA;
1766:Drivers/STM32F7xx_HAL_Driver/Src/stm32f7xx_ll_usb.c ****     value &= ~USB_OTG_HCCHAR_EPDIR;
 3537              		.loc 1 1766 0
 3538 0054 42F04042 		orr	r2, r2, #-1073741824
ARM GAS  C:\Users\Student\AppData\Local\Temp\ccty2SRd.s 			page 100


 3539              	.LVL286:
1767:Drivers/STM32F7xx_HAL_Driver/Src/stm32f7xx_ll_usb.c **** 
1768:Drivers/STM32F7xx_HAL_Driver/Src/stm32f7xx_ll_usb.c ****     USBx_HC(i)->HCCHAR = value;
 3540              		.loc 1 1768 0
 3541 0058 C5F80025 		str	r2, [r5, #1280]
 3542              	.LVL287:
 3543              	.L272:
1769:Drivers/STM32F7xx_HAL_Driver/Src/stm32f7xx_ll_usb.c ****     do
1770:Drivers/STM32F7xx_HAL_Driver/Src/stm32f7xx_ll_usb.c ****     {
1771:Drivers/STM32F7xx_HAL_Driver/Src/stm32f7xx_ll_usb.c ****       if (++count > 1000)
 3544              		.loc 1 1771 0
 3545 005c 0133     		adds	r3, r3, #1
 3546              	.LVL288:
 3547 005e B3F57A7F 		cmp	r3, #1000
 3548 0062 EBD8     		bhi	.L271
1772:Drivers/STM32F7xx_HAL_Driver/Src/stm32f7xx_ll_usb.c ****       {
1773:Drivers/STM32F7xx_HAL_Driver/Src/stm32f7xx_ll_usb.c ****         break;
1774:Drivers/STM32F7xx_HAL_Driver/Src/stm32f7xx_ll_usb.c ****       }
1775:Drivers/STM32F7xx_HAL_Driver/Src/stm32f7xx_ll_usb.c ****     }
1776:Drivers/STM32F7xx_HAL_Driver/Src/stm32f7xx_ll_usb.c ****     while ((USBx_HC(i)->HCCHAR & USB_OTG_HCCHAR_CHENA) == USB_OTG_HCCHAR_CHENA);
 3549              		.loc 1 1776 0
 3550 0064 0A68     		ldr	r2, [r1]
 3551 0066 002A     		cmp	r2, #0
 3552 0068 F8DB     		blt	.L272
 3553 006a E7E7     		b	.L271
 3554              	.LVL289:
 3555              	.L275:
1777:Drivers/STM32F7xx_HAL_Driver/Src/stm32f7xx_ll_usb.c ****   }
1778:Drivers/STM32F7xx_HAL_Driver/Src/stm32f7xx_ll_usb.c **** 
1779:Drivers/STM32F7xx_HAL_Driver/Src/stm32f7xx_ll_usb.c ****   /* Clear any pending Host interrupts */
1780:Drivers/STM32F7xx_HAL_Driver/Src/stm32f7xx_ll_usb.c ****   USBx_HOST->HAINT = 0xFFFFFFFF;
 3556              		.loc 1 1780 0
 3557 006c 4FF0FF33 		mov	r3, #-1
 3558              	.LVL290:
 3559 0070 C4F81434 		str	r3, [r4, #1044]
1781:Drivers/STM32F7xx_HAL_Driver/Src/stm32f7xx_ll_usb.c ****   USBx->GINTSTS = 0xFFFFFFFF;
 3560              		.loc 1 1781 0
 3561 0074 6361     		str	r3, [r4, #20]
1782:Drivers/STM32F7xx_HAL_Driver/Src/stm32f7xx_ll_usb.c ****   USB_EnableGlobalInt(USBx);
 3562              		.loc 1 1782 0
 3563 0076 2046     		mov	r0, r4
 3564              	.LVL291:
 3565 0078 FFF7FEFF 		bl	USB_EnableGlobalInt
 3566              	.LVL292:
1783:Drivers/STM32F7xx_HAL_Driver/Src/stm32f7xx_ll_usb.c ****   return HAL_OK;
1784:Drivers/STM32F7xx_HAL_Driver/Src/stm32f7xx_ll_usb.c **** }
 3567              		.loc 1 1784 0
 3568 007c 0020     		movs	r0, #0
 3569 007e 38BD     		pop	{r3, r4, r5, pc}
 3570              		.cfi_endproc
 3571              	.LFE180:
 3573              		.section	.bss.debug.9815,"aw",%nobits
 3574              		.align	2
 3575              		.set	.LANCHOR0,. + 0
 3578              	debug.9815:
 3579 0000 00000000 		.space	4
 3580              		.section	.bss.tmpreg.9976,"aw",%nobits
ARM GAS  C:\Users\Student\AppData\Local\Temp\ccty2SRd.s 			page 101


 3581              		.align	2
 3582              		.set	.LANCHOR1,. + 0
 3585              	tmpreg.9976:
 3586 0000 00000000 		.space	4
 3587              		.text
 3588              	.Letext0:
 3589              		.file 2 "c:\\gcc_toolchain\\6_2017-q1-update\\arm-none-eabi\\include\\machine\\_default_types.h"
 3590              		.file 3 "c:\\gcc_toolchain\\6_2017-q1-update\\arm-none-eabi\\include\\sys\\_stdint.h"
 3591              		.file 4 "Drivers/CMSIS/Include/core_cm7.h"
 3592              		.file 5 "Drivers/CMSIS/Device/ST/STM32F7xx/Include/system_stm32f7xx.h"
 3593              		.file 6 "Drivers/CMSIS/Device/ST/STM32F7xx/Include/stm32f746xx.h"
 3594              		.file 7 "c:\\gcc_toolchain\\6_2017-q1-update\\arm-none-eabi\\include\\sys\\lock.h"
 3595              		.file 8 "c:\\gcc_toolchain\\6_2017-q1-update\\arm-none-eabi\\include\\sys\\_types.h"
 3596              		.file 9 "c:\\gcc_toolchain\\6_2017-q1-update\\lib\\gcc\\arm-none-eabi\\6.3.1\\include\\stddef.h"
 3597              		.file 10 "c:\\gcc_toolchain\\6_2017-q1-update\\arm-none-eabi\\include\\sys\\reent.h"
 3598              		.file 11 "Drivers/CMSIS/Device/ST/STM32F7xx/Include/stm32f7xx.h"
 3599              		.file 12 "Drivers/STM32F7xx_HAL_Driver/Inc/stm32f7xx_hal_def.h"
 3600              		.file 13 "Drivers/STM32F7xx_HAL_Driver/Inc/stm32f7xx_ll_usb.h"
 3601              		.file 14 "Drivers/STM32F7xx_HAL_Driver/Inc/stm32f7xx_hal.h"
ARM GAS  C:\Users\Student\AppData\Local\Temp\ccty2SRd.s 			page 102


DEFINED SYMBOLS
                            *ABS*:00000000 stm32f7xx_ll_usb.c
C:\Users\Student\AppData\Local\Temp\ccty2SRd.s:18     .text.USB_CoreReset:00000000 $t
C:\Users\Student\AppData\Local\Temp\ccty2SRd.s:24     .text.USB_CoreReset:00000000 USB_CoreReset
C:\Users\Student\AppData\Local\Temp\ccty2SRd.s:86     .text.USB_CoreReset:00000038 $d
C:\Users\Student\AppData\Local\Temp\ccty2SRd.s:91     .text.USB_CoreInit:00000000 $t
C:\Users\Student\AppData\Local\Temp\ccty2SRd.s:98     .text.USB_CoreInit:00000000 USB_CoreInit
C:\Users\Student\AppData\Local\Temp\ccty2SRd.s:197    .text.USB_CoreInit:00000078 $d
C:\Users\Student\AppData\Local\Temp\ccty2SRd.s:202    .text.USB_EnableGlobalInt:00000000 $t
C:\Users\Student\AppData\Local\Temp\ccty2SRd.s:209    .text.USB_EnableGlobalInt:00000000 USB_EnableGlobalInt
C:\Users\Student\AppData\Local\Temp\ccty2SRd.s:229    .text.USB_DisableGlobalInt:00000000 $t
C:\Users\Student\AppData\Local\Temp\ccty2SRd.s:236    .text.USB_DisableGlobalInt:00000000 USB_DisableGlobalInt
C:\Users\Student\AppData\Local\Temp\ccty2SRd.s:256    .text.USB_SetCurrentMode:00000000 $t
C:\Users\Student\AppData\Local\Temp\ccty2SRd.s:263    .text.USB_SetCurrentMode:00000000 USB_SetCurrentMode
C:\Users\Student\AppData\Local\Temp\ccty2SRd.s:308    .text.USB_FlushTxFifo:00000000 $t
C:\Users\Student\AppData\Local\Temp\ccty2SRd.s:315    .text.USB_FlushTxFifo:00000000 USB_FlushTxFifo
C:\Users\Student\AppData\Local\Temp\ccty2SRd.s:356    .text.USB_FlushTxFifo:00000024 $d
C:\Users\Student\AppData\Local\Temp\ccty2SRd.s:361    .text.USB_FlushRxFifo:00000000 $t
C:\Users\Student\AppData\Local\Temp\ccty2SRd.s:368    .text.USB_FlushRxFifo:00000000 USB_FlushRxFifo
C:\Users\Student\AppData\Local\Temp\ccty2SRd.s:407    .text.USB_FlushRxFifo:00000020 $d
C:\Users\Student\AppData\Local\Temp\ccty2SRd.s:412    .text.USB_SetDevSpeed:00000000 $t
C:\Users\Student\AppData\Local\Temp\ccty2SRd.s:419    .text.USB_SetDevSpeed:00000000 USB_SetDevSpeed
C:\Users\Student\AppData\Local\Temp\ccty2SRd.s:440    .text.USB_DevInit:00000000 $t
C:\Users\Student\AppData\Local\Temp\ccty2SRd.s:447    .text.USB_DevInit:00000000 USB_DevInit
C:\Users\Student\AppData\Local\Temp\ccty2SRd.s:714    .text.USB_DevInit:00000168 $d
C:\Users\Student\AppData\Local\Temp\ccty2SRd.s:722    .text.USB_GetDevSpeed:00000000 $t
C:\Users\Student\AppData\Local\Temp\ccty2SRd.s:729    .text.USB_GetDevSpeed:00000000 USB_GetDevSpeed
C:\Users\Student\AppData\Local\Temp\ccty2SRd.s:784    .text.USB_ActivateEndpoint:00000000 $t
C:\Users\Student\AppData\Local\Temp\ccty2SRd.s:791    .text.USB_ActivateEndpoint:00000000 USB_ActivateEndpoint
C:\Users\Student\AppData\Local\Temp\ccty2SRd.s:877    .text.USB_ActivateEndpoint:0000008c $d
C:\Users\Student\AppData\Local\Temp\ccty2SRd.s:882    .text.USB_ActivateDedicatedEndpoint:00000000 $t
C:\Users\Student\AppData\Local\Temp\ccty2SRd.s:889    .text.USB_ActivateDedicatedEndpoint:00000000 USB_ActivateDedicatedEndpoint
C:\Users\Student\AppData\Local\Temp\ccty2SRd.s:1012   .text.USB_ActivateDedicatedEndpoint:000000dc $d
C:\Users\Student\AppData\Local\Temp\ccty2SRd.s:1018   .text.USB_DeactivateEndpoint:00000000 $t
C:\Users\Student\AppData\Local\Temp\ccty2SRd.s:1025   .text.USB_DeactivateEndpoint:00000000 USB_DeactivateEndpoint
C:\Users\Student\AppData\Local\Temp\ccty2SRd.s:1102   .text.USB_DeactivateDedicatedEndpoint:00000000 $t
C:\Users\Student\AppData\Local\Temp\ccty2SRd.s:1109   .text.USB_DeactivateDedicatedEndpoint:00000000 USB_DeactivateDedicatedEndpoint
C:\Users\Student\AppData\Local\Temp\ccty2SRd.s:1162   .text.USB_EP0StartXfer:00000000 $t
C:\Users\Student\AppData\Local\Temp\ccty2SRd.s:1169   .text.USB_EP0StartXfer:00000000 USB_EP0StartXfer
C:\Users\Student\AppData\Local\Temp\ccty2SRd.s:1353   .text.USB_EP0StartXfer:00000154 $d
C:\Users\Student\AppData\Local\Temp\ccty2SRd.s:1359   .text.USB_WritePacket:00000000 $t
C:\Users\Student\AppData\Local\Temp\ccty2SRd.s:1366   .text.USB_WritePacket:00000000 USB_WritePacket
C:\Users\Student\AppData\Local\Temp\ccty2SRd.s:1423   .text.USB_EPStartXfer:00000000 $t
C:\Users\Student\AppData\Local\Temp\ccty2SRd.s:1430   .text.USB_EPStartXfer:00000000 USB_EPStartXfer
C:\Users\Student\AppData\Local\Temp\ccty2SRd.s:1725   .text.USB_EPStartXfer:00000254 $d
C:\Users\Student\AppData\Local\Temp\ccty2SRd.s:1732   .text.USB_ReadPacket:00000000 $t
C:\Users\Student\AppData\Local\Temp\ccty2SRd.s:1739   .text.USB_ReadPacket:00000000 USB_ReadPacket
C:\Users\Student\AppData\Local\Temp\ccty2SRd.s:1790   .text.USB_EPSetStall:00000000 $t
C:\Users\Student\AppData\Local\Temp\ccty2SRd.s:1797   .text.USB_EPSetStall:00000000 USB_EPSetStall
C:\Users\Student\AppData\Local\Temp\ccty2SRd.s:1856   .text.USB_EPClearStall:00000000 $t
C:\Users\Student\AppData\Local\Temp\ccty2SRd.s:1863   .text.USB_EPClearStall:00000000 USB_EPClearStall
C:\Users\Student\AppData\Local\Temp\ccty2SRd.s:1928   .text.USB_StopDevice:00000000 $t
C:\Users\Student\AppData\Local\Temp\ccty2SRd.s:1935   .text.USB_StopDevice:00000000 USB_StopDevice
C:\Users\Student\AppData\Local\Temp\ccty2SRd.s:1997   .text.USB_SetDevAddress:00000000 $t
C:\Users\Student\AppData\Local\Temp\ccty2SRd.s:2004   .text.USB_SetDevAddress:00000000 USB_SetDevAddress
C:\Users\Student\AppData\Local\Temp\ccty2SRd.s:2031   .text.USB_DevConnect:00000000 $t
C:\Users\Student\AppData\Local\Temp\ccty2SRd.s:2038   .text.USB_DevConnect:00000000 USB_DevConnect
ARM GAS  C:\Users\Student\AppData\Local\Temp\ccty2SRd.s 			page 103


C:\Users\Student\AppData\Local\Temp\ccty2SRd.s:2066   .text.USB_DevDisconnect:00000000 $t
C:\Users\Student\AppData\Local\Temp\ccty2SRd.s:2073   .text.USB_DevDisconnect:00000000 USB_DevDisconnect
C:\Users\Student\AppData\Local\Temp\ccty2SRd.s:2101   .text.USB_ReadInterrupts:00000000 $t
C:\Users\Student\AppData\Local\Temp\ccty2SRd.s:2108   .text.USB_ReadInterrupts:00000000 USB_ReadInterrupts
C:\Users\Student\AppData\Local\Temp\ccty2SRd.s:2130   .text.USB_ReadDevAllOutEpInterrupt:00000000 $t
C:\Users\Student\AppData\Local\Temp\ccty2SRd.s:2137   .text.USB_ReadDevAllOutEpInterrupt:00000000 USB_ReadDevAllOutEpInterrupt
C:\Users\Student\AppData\Local\Temp\ccty2SRd.s:2162   .text.USB_ReadDevAllInEpInterrupt:00000000 $t
C:\Users\Student\AppData\Local\Temp\ccty2SRd.s:2169   .text.USB_ReadDevAllInEpInterrupt:00000000 USB_ReadDevAllInEpInterrupt
C:\Users\Student\AppData\Local\Temp\ccty2SRd.s:2194   .text.USB_ReadDevOutEPInterrupt:00000000 $t
C:\Users\Student\AppData\Local\Temp\ccty2SRd.s:2201   .text.USB_ReadDevOutEPInterrupt:00000000 USB_ReadDevOutEPInterrupt
C:\Users\Student\AppData\Local\Temp\ccty2SRd.s:2227   .text.USB_ReadDevInEPInterrupt:00000000 $t
C:\Users\Student\AppData\Local\Temp\ccty2SRd.s:2234   .text.USB_ReadDevInEPInterrupt:00000000 USB_ReadDevInEPInterrupt
C:\Users\Student\AppData\Local\Temp\ccty2SRd.s:2268   .text.USB_ClearInterrupts:00000000 $t
C:\Users\Student\AppData\Local\Temp\ccty2SRd.s:2275   .text.USB_ClearInterrupts:00000000 USB_ClearInterrupts
C:\Users\Student\AppData\Local\Temp\ccty2SRd.s:2293   .text.USB_GetMode:00000000 $t
C:\Users\Student\AppData\Local\Temp\ccty2SRd.s:2300   .text.USB_GetMode:00000000 USB_GetMode
C:\Users\Student\AppData\Local\Temp\ccty2SRd.s:2318   .text.USB_ActivateSetup:00000000 $t
C:\Users\Student\AppData\Local\Temp\ccty2SRd.s:2325   .text.USB_ActivateSetup:00000000 USB_ActivateSetup
C:\Users\Student\AppData\Local\Temp\ccty2SRd.s:2363   .text.USB_ActivateSetup:00000034 $d
C:\Users\Student\AppData\Local\Temp\ccty2SRd.s:2368   .text.USB_EP0_OutStart:00000000 $t
C:\Users\Student\AppData\Local\Temp\ccty2SRd.s:2375   .text.USB_EP0_OutStart:00000000 USB_EP0_OutStart
C:\Users\Student\AppData\Local\Temp\ccty2SRd.s:2429   .text.USB_InitFSLSPClkSel:00000000 $t
C:\Users\Student\AppData\Local\Temp\ccty2SRd.s:2436   .text.USB_InitFSLSPClkSel:00000000 USB_InitFSLSPClkSel
C:\Users\Student\AppData\Local\Temp\ccty2SRd.s:2492   .text.USB_ResetPort:00000000 $t
C:\Users\Student\AppData\Local\Temp\ccty2SRd.s:2499   .text.USB_ResetPort:00000000 USB_ResetPort
C:\Users\Student\AppData\Local\Temp\ccty2SRd.s:2550   .text.USB_DriveVbus:00000000 $t
C:\Users\Student\AppData\Local\Temp\ccty2SRd.s:2557   .text.USB_DriveVbus:00000000 USB_DriveVbus
C:\Users\Student\AppData\Local\Temp\ccty2SRd.s:2616   .text.USB_HostInit:00000000 $t
C:\Users\Student\AppData\Local\Temp\ccty2SRd.s:2623   .text.USB_HostInit:00000000 USB_HostInit
C:\Users\Student\AppData\Local\Temp\ccty2SRd.s:2774   .text.USB_HostInit:000000d0 $d
C:\Users\Student\AppData\Local\Temp\ccty2SRd.s:2781   .text.USB_GetHostSpeed:00000000 $t
C:\Users\Student\AppData\Local\Temp\ccty2SRd.s:2788   .text.USB_GetHostSpeed:00000000 USB_GetHostSpeed
C:\Users\Student\AppData\Local\Temp\ccty2SRd.s:2816   .text.USB_GetCurrentFrame:00000000 $t
C:\Users\Student\AppData\Local\Temp\ccty2SRd.s:2823   .text.USB_GetCurrentFrame:00000000 USB_GetCurrentFrame
C:\Users\Student\AppData\Local\Temp\ccty2SRd.s:2843   .text.USB_HC_Init:00000000 $t
C:\Users\Student\AppData\Local\Temp\ccty2SRd.s:2850   .text.USB_HC_Init:00000000 USB_HC_Init
C:\Users\Student\AppData\Local\Temp\ccty2SRd.s:2876   .text.USB_HC_Init:0000001c $d
C:\Users\Student\AppData\Local\Temp\ccty2SRd.s:2880   .text.USB_HC_Init:00000020 $t
C:\Users\Student\AppData\Local\Temp\ccty2SRd.s:3006   .text.USB_HC_ReadInterrupt:00000000 $t
C:\Users\Student\AppData\Local\Temp\ccty2SRd.s:3013   .text.USB_HC_ReadInterrupt:00000000 USB_HC_ReadInterrupt
C:\Users\Student\AppData\Local\Temp\ccty2SRd.s:3033   .text.USB_HC_Halt:00000000 $t
C:\Users\Student\AppData\Local\Temp\ccty2SRd.s:3040   .text.USB_HC_Halt:00000000 USB_HC_Halt
C:\Users\Student\AppData\Local\Temp\ccty2SRd.s:3166   .text.USB_DoPing:00000000 $t
C:\Users\Student\AppData\Local\Temp\ccty2SRd.s:3173   .text.USB_DoPing:00000000 USB_DoPing
C:\Users\Student\AppData\Local\Temp\ccty2SRd.s:3204   .text.USB_DoPing:00000020 $d
C:\Users\Student\AppData\Local\Temp\ccty2SRd.s:3209   .text.USB_HC_StartXfer:00000000 $t
C:\Users\Student\AppData\Local\Temp\ccty2SRd.s:3216   .text.USB_HC_StartXfer:00000000 USB_HC_StartXfer
C:\Users\Student\AppData\Local\Temp\ccty2SRd.s:3386   .text.USB_HC_StartXfer:00000108 $d
C:\Users\Student\AppData\Local\Temp\ccty2SRd.s:3390   .text.USB_HC_StartXfer:0000010c $t
C:\Users\Student\AppData\Local\Temp\ccty2SRd.s:3449   .text.USB_HC_StartXfer:00000150 $d
C:\Users\Student\AppData\Local\Temp\ccty2SRd.s:3455   .text.USB_StopHost:00000000 $t
C:\Users\Student\AppData\Local\Temp\ccty2SRd.s:3462   .text.USB_StopHost:00000000 USB_StopHost
C:\Users\Student\AppData\Local\Temp\ccty2SRd.s:3574   .bss.debug.9815:00000000 $d
C:\Users\Student\AppData\Local\Temp\ccty2SRd.s:3578   .bss.debug.9815:00000000 debug.9815
C:\Users\Student\AppData\Local\Temp\ccty2SRd.s:3581   .bss.tmpreg.9976:00000000 $d
C:\Users\Student\AppData\Local\Temp\ccty2SRd.s:3585   .bss.tmpreg.9976:00000000 tmpreg.9976
                     .debug_frame:00000010 $d
ARM GAS  C:\Users\Student\AppData\Local\Temp\ccty2SRd.s 			page 104



UNDEFINED SYMBOLS
HAL_Delay
