ARM GAS  C:\Users\Student\AppData\Local\Temp\ccR1oIOQ.s 			page 1


   1              		.cpu cortex-m7
   2              		.eabi_attribute 27, 1
   3              		.eabi_attribute 28, 1
   4              		.eabi_attribute 20, 1
   5              		.eabi_attribute 21, 1
   6              		.eabi_attribute 23, 3
   7              		.eabi_attribute 24, 1
   8              		.eabi_attribute 25, 1
   9              		.eabi_attribute 26, 1
  10              		.eabi_attribute 30, 1
  11              		.eabi_attribute 34, 1
  12              		.eabi_attribute 18, 4
  13              		.file	"usbh_ctlreq.c"
  14              		.text
  15              	.Ltext0:
  16              		.cfi_sections	.debug_frame
  17              		.section	.text.USBH_ParseDevDesc,"ax",%progbits
  18              		.align	1
  19              		.syntax unified
  20              		.thumb
  21              		.thumb_func
  22              		.fpu fpv5-sp-d16
  24              	USBH_ParseDevDesc:
  25              	.LFB149:
  26              		.file 1 "Middlewares/ST/STM32_USB_Host_Library/Core/Src/usbh_ctlreq.c"
   1:Middlewares/ST/STM32_USB_Host_Library/Core/Src/usbh_ctlreq.c **** /**
   2:Middlewares/ST/STM32_USB_Host_Library/Core/Src/usbh_ctlreq.c ****   ******************************************************************************
   3:Middlewares/ST/STM32_USB_Host_Library/Core/Src/usbh_ctlreq.c ****   * @file    usbh_ctlreq.c 
   4:Middlewares/ST/STM32_USB_Host_Library/Core/Src/usbh_ctlreq.c ****   * @author  MCD Application Team
   5:Middlewares/ST/STM32_USB_Host_Library/Core/Src/usbh_ctlreq.c ****   * @brief   This file implements the control requests for device enumeration
   6:Middlewares/ST/STM32_USB_Host_Library/Core/Src/usbh_ctlreq.c ****   ******************************************************************************
   7:Middlewares/ST/STM32_USB_Host_Library/Core/Src/usbh_ctlreq.c ****   * @attention
   8:Middlewares/ST/STM32_USB_Host_Library/Core/Src/usbh_ctlreq.c ****   *
   9:Middlewares/ST/STM32_USB_Host_Library/Core/Src/usbh_ctlreq.c ****   * <h2><center>&copy; COPYRIGHT 2015 STMicroelectronics</center></h2>
  10:Middlewares/ST/STM32_USB_Host_Library/Core/Src/usbh_ctlreq.c ****   *
  11:Middlewares/ST/STM32_USB_Host_Library/Core/Src/usbh_ctlreq.c ****   * Licensed under MCD-ST Liberty SW License Agreement V2, (the "License");
  12:Middlewares/ST/STM32_USB_Host_Library/Core/Src/usbh_ctlreq.c ****   * You may not use this file except in compliance with the License.
  13:Middlewares/ST/STM32_USB_Host_Library/Core/Src/usbh_ctlreq.c ****   * You may obtain a copy of the License at:
  14:Middlewares/ST/STM32_USB_Host_Library/Core/Src/usbh_ctlreq.c ****   *
  15:Middlewares/ST/STM32_USB_Host_Library/Core/Src/usbh_ctlreq.c ****   *        http://www.st.com/software_license_agreement_liberty_v2
  16:Middlewares/ST/STM32_USB_Host_Library/Core/Src/usbh_ctlreq.c ****   *
  17:Middlewares/ST/STM32_USB_Host_Library/Core/Src/usbh_ctlreq.c ****   * Unless required by applicable law or agreed to in writing, software 
  18:Middlewares/ST/STM32_USB_Host_Library/Core/Src/usbh_ctlreq.c ****   * distributed under the License is distributed on an "AS IS" BASIS, 
  19:Middlewares/ST/STM32_USB_Host_Library/Core/Src/usbh_ctlreq.c ****   * WITHOUT WARRANTIES OR CONDITIONS OF ANY KIND, either express or implied.
  20:Middlewares/ST/STM32_USB_Host_Library/Core/Src/usbh_ctlreq.c ****   * See the License for the specific language governing permissions and
  21:Middlewares/ST/STM32_USB_Host_Library/Core/Src/usbh_ctlreq.c ****   * limitations under the License.
  22:Middlewares/ST/STM32_USB_Host_Library/Core/Src/usbh_ctlreq.c ****   *
  23:Middlewares/ST/STM32_USB_Host_Library/Core/Src/usbh_ctlreq.c ****   ******************************************************************************
  24:Middlewares/ST/STM32_USB_Host_Library/Core/Src/usbh_ctlreq.c ****   */ 
  25:Middlewares/ST/STM32_USB_Host_Library/Core/Src/usbh_ctlreq.c **** /* Includes ------------------------------------------------------------------*/
  26:Middlewares/ST/STM32_USB_Host_Library/Core/Src/usbh_ctlreq.c **** 
  27:Middlewares/ST/STM32_USB_Host_Library/Core/Src/usbh_ctlreq.c **** #include "usbh_ctlreq.h"
  28:Middlewares/ST/STM32_USB_Host_Library/Core/Src/usbh_ctlreq.c **** 
  29:Middlewares/ST/STM32_USB_Host_Library/Core/Src/usbh_ctlreq.c **** /** @addtogroup USBH_LIB
  30:Middlewares/ST/STM32_USB_Host_Library/Core/Src/usbh_ctlreq.c **** * @{
  31:Middlewares/ST/STM32_USB_Host_Library/Core/Src/usbh_ctlreq.c **** */
  32:Middlewares/ST/STM32_USB_Host_Library/Core/Src/usbh_ctlreq.c **** 
ARM GAS  C:\Users\Student\AppData\Local\Temp\ccR1oIOQ.s 			page 2


  33:Middlewares/ST/STM32_USB_Host_Library/Core/Src/usbh_ctlreq.c **** /** @addtogroup USBH_LIB_CORE
  34:Middlewares/ST/STM32_USB_Host_Library/Core/Src/usbh_ctlreq.c **** * @{
  35:Middlewares/ST/STM32_USB_Host_Library/Core/Src/usbh_ctlreq.c **** */
  36:Middlewares/ST/STM32_USB_Host_Library/Core/Src/usbh_ctlreq.c **** 
  37:Middlewares/ST/STM32_USB_Host_Library/Core/Src/usbh_ctlreq.c **** /** @defgroup USBH_CTLREQ 
  38:Middlewares/ST/STM32_USB_Host_Library/Core/Src/usbh_ctlreq.c **** * @brief This file implements the standard requests for device enumeration
  39:Middlewares/ST/STM32_USB_Host_Library/Core/Src/usbh_ctlreq.c **** * @{
  40:Middlewares/ST/STM32_USB_Host_Library/Core/Src/usbh_ctlreq.c **** */
  41:Middlewares/ST/STM32_USB_Host_Library/Core/Src/usbh_ctlreq.c **** 
  42:Middlewares/ST/STM32_USB_Host_Library/Core/Src/usbh_ctlreq.c **** 
  43:Middlewares/ST/STM32_USB_Host_Library/Core/Src/usbh_ctlreq.c **** /** @defgroup USBH_CTLREQ_Private_Defines
  44:Middlewares/ST/STM32_USB_Host_Library/Core/Src/usbh_ctlreq.c **** * @{
  45:Middlewares/ST/STM32_USB_Host_Library/Core/Src/usbh_ctlreq.c **** */ 
  46:Middlewares/ST/STM32_USB_Host_Library/Core/Src/usbh_ctlreq.c **** /**
  47:Middlewares/ST/STM32_USB_Host_Library/Core/Src/usbh_ctlreq.c **** * @}
  48:Middlewares/ST/STM32_USB_Host_Library/Core/Src/usbh_ctlreq.c **** */ 
  49:Middlewares/ST/STM32_USB_Host_Library/Core/Src/usbh_ctlreq.c **** 
  50:Middlewares/ST/STM32_USB_Host_Library/Core/Src/usbh_ctlreq.c **** 
  51:Middlewares/ST/STM32_USB_Host_Library/Core/Src/usbh_ctlreq.c **** /** @defgroup USBH_CTLREQ_Private_TypesDefinitions
  52:Middlewares/ST/STM32_USB_Host_Library/Core/Src/usbh_ctlreq.c **** * @{
  53:Middlewares/ST/STM32_USB_Host_Library/Core/Src/usbh_ctlreq.c **** */ 
  54:Middlewares/ST/STM32_USB_Host_Library/Core/Src/usbh_ctlreq.c **** /**
  55:Middlewares/ST/STM32_USB_Host_Library/Core/Src/usbh_ctlreq.c **** * @}
  56:Middlewares/ST/STM32_USB_Host_Library/Core/Src/usbh_ctlreq.c **** */ 
  57:Middlewares/ST/STM32_USB_Host_Library/Core/Src/usbh_ctlreq.c **** 
  58:Middlewares/ST/STM32_USB_Host_Library/Core/Src/usbh_ctlreq.c **** 
  59:Middlewares/ST/STM32_USB_Host_Library/Core/Src/usbh_ctlreq.c **** 
  60:Middlewares/ST/STM32_USB_Host_Library/Core/Src/usbh_ctlreq.c **** /** @defgroup USBH_CTLREQ_Private_Macros
  61:Middlewares/ST/STM32_USB_Host_Library/Core/Src/usbh_ctlreq.c **** * @{
  62:Middlewares/ST/STM32_USB_Host_Library/Core/Src/usbh_ctlreq.c **** */ 
  63:Middlewares/ST/STM32_USB_Host_Library/Core/Src/usbh_ctlreq.c **** /**
  64:Middlewares/ST/STM32_USB_Host_Library/Core/Src/usbh_ctlreq.c **** * @}
  65:Middlewares/ST/STM32_USB_Host_Library/Core/Src/usbh_ctlreq.c **** */ 
  66:Middlewares/ST/STM32_USB_Host_Library/Core/Src/usbh_ctlreq.c **** 
  67:Middlewares/ST/STM32_USB_Host_Library/Core/Src/usbh_ctlreq.c **** 
  68:Middlewares/ST/STM32_USB_Host_Library/Core/Src/usbh_ctlreq.c **** /** @defgroup USBH_CTLREQ_Private_Variables
  69:Middlewares/ST/STM32_USB_Host_Library/Core/Src/usbh_ctlreq.c **** * @{
  70:Middlewares/ST/STM32_USB_Host_Library/Core/Src/usbh_ctlreq.c **** */
  71:Middlewares/ST/STM32_USB_Host_Library/Core/Src/usbh_ctlreq.c **** /**
  72:Middlewares/ST/STM32_USB_Host_Library/Core/Src/usbh_ctlreq.c **** * @}
  73:Middlewares/ST/STM32_USB_Host_Library/Core/Src/usbh_ctlreq.c **** */ 
  74:Middlewares/ST/STM32_USB_Host_Library/Core/Src/usbh_ctlreq.c **** 
  75:Middlewares/ST/STM32_USB_Host_Library/Core/Src/usbh_ctlreq.c **** /** @defgroup USBH_CTLREQ_Private_FunctionPrototypes
  76:Middlewares/ST/STM32_USB_Host_Library/Core/Src/usbh_ctlreq.c **** * @{
  77:Middlewares/ST/STM32_USB_Host_Library/Core/Src/usbh_ctlreq.c **** */
  78:Middlewares/ST/STM32_USB_Host_Library/Core/Src/usbh_ctlreq.c **** static USBH_StatusTypeDef USBH_HandleControl (USBH_HandleTypeDef *phost);
  79:Middlewares/ST/STM32_USB_Host_Library/Core/Src/usbh_ctlreq.c **** 
  80:Middlewares/ST/STM32_USB_Host_Library/Core/Src/usbh_ctlreq.c **** static void USBH_ParseDevDesc (USBH_DevDescTypeDef* , uint8_t *buf, uint16_t length);
  81:Middlewares/ST/STM32_USB_Host_Library/Core/Src/usbh_ctlreq.c **** 
  82:Middlewares/ST/STM32_USB_Host_Library/Core/Src/usbh_ctlreq.c **** static void USBH_ParseCfgDesc (USBH_CfgDescTypeDef* cfg_desc,
  83:Middlewares/ST/STM32_USB_Host_Library/Core/Src/usbh_ctlreq.c ****                                uint8_t *buf, 
  84:Middlewares/ST/STM32_USB_Host_Library/Core/Src/usbh_ctlreq.c ****                                uint16_t length);
  85:Middlewares/ST/STM32_USB_Host_Library/Core/Src/usbh_ctlreq.c **** 
  86:Middlewares/ST/STM32_USB_Host_Library/Core/Src/usbh_ctlreq.c **** 
  87:Middlewares/ST/STM32_USB_Host_Library/Core/Src/usbh_ctlreq.c **** static void USBH_ParseEPDesc (USBH_EpDescTypeDef  *ep_descriptor, uint8_t *buf);
  88:Middlewares/ST/STM32_USB_Host_Library/Core/Src/usbh_ctlreq.c **** static void USBH_ParseStringDesc (uint8_t* psrc, uint8_t* pdest, uint16_t length);
  89:Middlewares/ST/STM32_USB_Host_Library/Core/Src/usbh_ctlreq.c **** static void USBH_ParseInterfaceDesc (USBH_InterfaceDescTypeDef  *if_descriptor, uint8_t *buf);
ARM GAS  C:\Users\Student\AppData\Local\Temp\ccR1oIOQ.s 			page 3


  90:Middlewares/ST/STM32_USB_Host_Library/Core/Src/usbh_ctlreq.c **** 
  91:Middlewares/ST/STM32_USB_Host_Library/Core/Src/usbh_ctlreq.c **** 
  92:Middlewares/ST/STM32_USB_Host_Library/Core/Src/usbh_ctlreq.c **** /**
  93:Middlewares/ST/STM32_USB_Host_Library/Core/Src/usbh_ctlreq.c **** * @}
  94:Middlewares/ST/STM32_USB_Host_Library/Core/Src/usbh_ctlreq.c **** */ 
  95:Middlewares/ST/STM32_USB_Host_Library/Core/Src/usbh_ctlreq.c **** 
  96:Middlewares/ST/STM32_USB_Host_Library/Core/Src/usbh_ctlreq.c **** 
  97:Middlewares/ST/STM32_USB_Host_Library/Core/Src/usbh_ctlreq.c **** /** @defgroup USBH_CTLREQ_Private_Functions
  98:Middlewares/ST/STM32_USB_Host_Library/Core/Src/usbh_ctlreq.c **** * @{
  99:Middlewares/ST/STM32_USB_Host_Library/Core/Src/usbh_ctlreq.c **** */ 
 100:Middlewares/ST/STM32_USB_Host_Library/Core/Src/usbh_ctlreq.c **** 
 101:Middlewares/ST/STM32_USB_Host_Library/Core/Src/usbh_ctlreq.c **** 
 102:Middlewares/ST/STM32_USB_Host_Library/Core/Src/usbh_ctlreq.c **** /**
 103:Middlewares/ST/STM32_USB_Host_Library/Core/Src/usbh_ctlreq.c ****   * @brief  USBH_Get_DevDesc
 104:Middlewares/ST/STM32_USB_Host_Library/Core/Src/usbh_ctlreq.c ****   *         Issue Get Device Descriptor command to the device. Once the response 
 105:Middlewares/ST/STM32_USB_Host_Library/Core/Src/usbh_ctlreq.c ****   *         received, it parses the device descriptor and updates the status.
 106:Middlewares/ST/STM32_USB_Host_Library/Core/Src/usbh_ctlreq.c ****   * @param  phost: Host Handle
 107:Middlewares/ST/STM32_USB_Host_Library/Core/Src/usbh_ctlreq.c ****   * @param  length: Length of the descriptor
 108:Middlewares/ST/STM32_USB_Host_Library/Core/Src/usbh_ctlreq.c ****   * @retval USBH Status
 109:Middlewares/ST/STM32_USB_Host_Library/Core/Src/usbh_ctlreq.c ****   */
 110:Middlewares/ST/STM32_USB_Host_Library/Core/Src/usbh_ctlreq.c **** USBH_StatusTypeDef USBH_Get_DevDesc(USBH_HandleTypeDef *phost, uint8_t length)
 111:Middlewares/ST/STM32_USB_Host_Library/Core/Src/usbh_ctlreq.c **** {
 112:Middlewares/ST/STM32_USB_Host_Library/Core/Src/usbh_ctlreq.c ****   USBH_StatusTypeDef status;
 113:Middlewares/ST/STM32_USB_Host_Library/Core/Src/usbh_ctlreq.c ****   
 114:Middlewares/ST/STM32_USB_Host_Library/Core/Src/usbh_ctlreq.c ****   if((status = USBH_GetDescriptor(phost,
 115:Middlewares/ST/STM32_USB_Host_Library/Core/Src/usbh_ctlreq.c ****                                   USB_REQ_RECIPIENT_DEVICE | USB_REQ_TYPE_STANDARD,                
 116:Middlewares/ST/STM32_USB_Host_Library/Core/Src/usbh_ctlreq.c ****                                   USB_DESC_DEVICE, 
 117:Middlewares/ST/STM32_USB_Host_Library/Core/Src/usbh_ctlreq.c ****                                   phost->device.Data,
 118:Middlewares/ST/STM32_USB_Host_Library/Core/Src/usbh_ctlreq.c ****                                   length)) == USBH_OK)
 119:Middlewares/ST/STM32_USB_Host_Library/Core/Src/usbh_ctlreq.c ****   {
 120:Middlewares/ST/STM32_USB_Host_Library/Core/Src/usbh_ctlreq.c ****     /* Commands successfully sent and Response Received */       
 121:Middlewares/ST/STM32_USB_Host_Library/Core/Src/usbh_ctlreq.c ****     USBH_ParseDevDesc(&phost->device.DevDesc, phost->device.Data, length);
 122:Middlewares/ST/STM32_USB_Host_Library/Core/Src/usbh_ctlreq.c ****   }
 123:Middlewares/ST/STM32_USB_Host_Library/Core/Src/usbh_ctlreq.c ****   return status;      
 124:Middlewares/ST/STM32_USB_Host_Library/Core/Src/usbh_ctlreq.c **** }
 125:Middlewares/ST/STM32_USB_Host_Library/Core/Src/usbh_ctlreq.c **** 
 126:Middlewares/ST/STM32_USB_Host_Library/Core/Src/usbh_ctlreq.c **** /**
 127:Middlewares/ST/STM32_USB_Host_Library/Core/Src/usbh_ctlreq.c ****   * @brief  USBH_Get_CfgDesc
 128:Middlewares/ST/STM32_USB_Host_Library/Core/Src/usbh_ctlreq.c ****   *         Issues Configuration Descriptor to the device. Once the response 
 129:Middlewares/ST/STM32_USB_Host_Library/Core/Src/usbh_ctlreq.c ****   *         received, it parses the configuration descriptor and updates the 
 130:Middlewares/ST/STM32_USB_Host_Library/Core/Src/usbh_ctlreq.c ****   *         status.
 131:Middlewares/ST/STM32_USB_Host_Library/Core/Src/usbh_ctlreq.c ****   * @param  phost: Host Handle
 132:Middlewares/ST/STM32_USB_Host_Library/Core/Src/usbh_ctlreq.c ****   * @param  length: Length of the descriptor
 133:Middlewares/ST/STM32_USB_Host_Library/Core/Src/usbh_ctlreq.c ****   * @retval USBH Status
 134:Middlewares/ST/STM32_USB_Host_Library/Core/Src/usbh_ctlreq.c ****   */
 135:Middlewares/ST/STM32_USB_Host_Library/Core/Src/usbh_ctlreq.c **** USBH_StatusTypeDef USBH_Get_CfgDesc(USBH_HandleTypeDef *phost,                      
 136:Middlewares/ST/STM32_USB_Host_Library/Core/Src/usbh_ctlreq.c ****                              uint16_t length)
 137:Middlewares/ST/STM32_USB_Host_Library/Core/Src/usbh_ctlreq.c **** 
 138:Middlewares/ST/STM32_USB_Host_Library/Core/Src/usbh_ctlreq.c **** {
 139:Middlewares/ST/STM32_USB_Host_Library/Core/Src/usbh_ctlreq.c ****   USBH_StatusTypeDef status;
 140:Middlewares/ST/STM32_USB_Host_Library/Core/Src/usbh_ctlreq.c ****   uint8_t *pData;
 141:Middlewares/ST/STM32_USB_Host_Library/Core/Src/usbh_ctlreq.c **** #if (USBH_KEEP_CFG_DESCRIPTOR == 1)  
 142:Middlewares/ST/STM32_USB_Host_Library/Core/Src/usbh_ctlreq.c ****   pData = phost->device.CfgDesc_Raw;
 143:Middlewares/ST/STM32_USB_Host_Library/Core/Src/usbh_ctlreq.c **** #else
 144:Middlewares/ST/STM32_USB_Host_Library/Core/Src/usbh_ctlreq.c ****   pData = phost->device.Data;
 145:Middlewares/ST/STM32_USB_Host_Library/Core/Src/usbh_ctlreq.c **** #endif  
 146:Middlewares/ST/STM32_USB_Host_Library/Core/Src/usbh_ctlreq.c ****   if((status = USBH_GetDescriptor(phost,
ARM GAS  C:\Users\Student\AppData\Local\Temp\ccR1oIOQ.s 			page 4


 147:Middlewares/ST/STM32_USB_Host_Library/Core/Src/usbh_ctlreq.c ****                                   USB_REQ_RECIPIENT_DEVICE | USB_REQ_TYPE_STANDARD,                
 148:Middlewares/ST/STM32_USB_Host_Library/Core/Src/usbh_ctlreq.c ****                                   USB_DESC_CONFIGURATION, 
 149:Middlewares/ST/STM32_USB_Host_Library/Core/Src/usbh_ctlreq.c ****                                   pData,
 150:Middlewares/ST/STM32_USB_Host_Library/Core/Src/usbh_ctlreq.c ****                                   length)) == USBH_OK)
 151:Middlewares/ST/STM32_USB_Host_Library/Core/Src/usbh_ctlreq.c ****   {
 152:Middlewares/ST/STM32_USB_Host_Library/Core/Src/usbh_ctlreq.c ****     
 153:Middlewares/ST/STM32_USB_Host_Library/Core/Src/usbh_ctlreq.c ****     /* Commands successfully sent and Response Received  */       
 154:Middlewares/ST/STM32_USB_Host_Library/Core/Src/usbh_ctlreq.c ****     USBH_ParseCfgDesc (&phost->device.CfgDesc,
 155:Middlewares/ST/STM32_USB_Host_Library/Core/Src/usbh_ctlreq.c ****                        pData,
 156:Middlewares/ST/STM32_USB_Host_Library/Core/Src/usbh_ctlreq.c ****                        length); 
 157:Middlewares/ST/STM32_USB_Host_Library/Core/Src/usbh_ctlreq.c ****     
 158:Middlewares/ST/STM32_USB_Host_Library/Core/Src/usbh_ctlreq.c ****   }
 159:Middlewares/ST/STM32_USB_Host_Library/Core/Src/usbh_ctlreq.c ****   return status;
 160:Middlewares/ST/STM32_USB_Host_Library/Core/Src/usbh_ctlreq.c **** }
 161:Middlewares/ST/STM32_USB_Host_Library/Core/Src/usbh_ctlreq.c **** 
 162:Middlewares/ST/STM32_USB_Host_Library/Core/Src/usbh_ctlreq.c **** 
 163:Middlewares/ST/STM32_USB_Host_Library/Core/Src/usbh_ctlreq.c **** /**
 164:Middlewares/ST/STM32_USB_Host_Library/Core/Src/usbh_ctlreq.c ****   * @brief  USBH_Get_StringDesc
 165:Middlewares/ST/STM32_USB_Host_Library/Core/Src/usbh_ctlreq.c ****   *         Issues string Descriptor command to the device. Once the response 
 166:Middlewares/ST/STM32_USB_Host_Library/Core/Src/usbh_ctlreq.c ****   *         received, it parses the string descriptor and updates the status.
 167:Middlewares/ST/STM32_USB_Host_Library/Core/Src/usbh_ctlreq.c ****   * @param  phost: Host Handle
 168:Middlewares/ST/STM32_USB_Host_Library/Core/Src/usbh_ctlreq.c ****   * @param  string_index: String index for the descriptor
 169:Middlewares/ST/STM32_USB_Host_Library/Core/Src/usbh_ctlreq.c ****   * @param  buff: Buffer address for the descriptor
 170:Middlewares/ST/STM32_USB_Host_Library/Core/Src/usbh_ctlreq.c ****   * @param  length: Length of the descriptor
 171:Middlewares/ST/STM32_USB_Host_Library/Core/Src/usbh_ctlreq.c ****   * @retval USBH Status
 172:Middlewares/ST/STM32_USB_Host_Library/Core/Src/usbh_ctlreq.c ****   */
 173:Middlewares/ST/STM32_USB_Host_Library/Core/Src/usbh_ctlreq.c **** USBH_StatusTypeDef USBH_Get_StringDesc(USBH_HandleTypeDef *phost,
 174:Middlewares/ST/STM32_USB_Host_Library/Core/Src/usbh_ctlreq.c ****                                 uint8_t string_index, 
 175:Middlewares/ST/STM32_USB_Host_Library/Core/Src/usbh_ctlreq.c ****                                 uint8_t *buff, 
 176:Middlewares/ST/STM32_USB_Host_Library/Core/Src/usbh_ctlreq.c ****                                 uint16_t length)
 177:Middlewares/ST/STM32_USB_Host_Library/Core/Src/usbh_ctlreq.c **** {
 178:Middlewares/ST/STM32_USB_Host_Library/Core/Src/usbh_ctlreq.c ****   USBH_StatusTypeDef status;
 179:Middlewares/ST/STM32_USB_Host_Library/Core/Src/usbh_ctlreq.c ****   if((status = USBH_GetDescriptor(phost,
 180:Middlewares/ST/STM32_USB_Host_Library/Core/Src/usbh_ctlreq.c ****                                   USB_REQ_RECIPIENT_DEVICE | USB_REQ_TYPE_STANDARD,                
 181:Middlewares/ST/STM32_USB_Host_Library/Core/Src/usbh_ctlreq.c ****                                   USB_DESC_STRING | string_index, 
 182:Middlewares/ST/STM32_USB_Host_Library/Core/Src/usbh_ctlreq.c ****                                   phost->device.Data,
 183:Middlewares/ST/STM32_USB_Host_Library/Core/Src/usbh_ctlreq.c ****                                   length)) == USBH_OK)
 184:Middlewares/ST/STM32_USB_Host_Library/Core/Src/usbh_ctlreq.c ****   {
 185:Middlewares/ST/STM32_USB_Host_Library/Core/Src/usbh_ctlreq.c ****     /* Commands successfully sent and Response Received  */       
 186:Middlewares/ST/STM32_USB_Host_Library/Core/Src/usbh_ctlreq.c ****     USBH_ParseStringDesc(phost->device.Data,buff, length);    
 187:Middlewares/ST/STM32_USB_Host_Library/Core/Src/usbh_ctlreq.c ****   }
 188:Middlewares/ST/STM32_USB_Host_Library/Core/Src/usbh_ctlreq.c ****   return status;
 189:Middlewares/ST/STM32_USB_Host_Library/Core/Src/usbh_ctlreq.c **** }
 190:Middlewares/ST/STM32_USB_Host_Library/Core/Src/usbh_ctlreq.c **** 
 191:Middlewares/ST/STM32_USB_Host_Library/Core/Src/usbh_ctlreq.c **** /**
 192:Middlewares/ST/STM32_USB_Host_Library/Core/Src/usbh_ctlreq.c ****   * @brief  USBH_GetDescriptor
 193:Middlewares/ST/STM32_USB_Host_Library/Core/Src/usbh_ctlreq.c ****   *         Issues Descriptor command to the device. Once the response received,
 194:Middlewares/ST/STM32_USB_Host_Library/Core/Src/usbh_ctlreq.c ****   *         it parses the descriptor and updates the status.
 195:Middlewares/ST/STM32_USB_Host_Library/Core/Src/usbh_ctlreq.c ****   * @param  phost: Host Handle
 196:Middlewares/ST/STM32_USB_Host_Library/Core/Src/usbh_ctlreq.c ****   * @param  req_type: Descriptor type
 197:Middlewares/ST/STM32_USB_Host_Library/Core/Src/usbh_ctlreq.c ****   * @param  value_idx: Value for the GetDescriptr request
 198:Middlewares/ST/STM32_USB_Host_Library/Core/Src/usbh_ctlreq.c ****   * @param  buff: Buffer to store the descriptor
 199:Middlewares/ST/STM32_USB_Host_Library/Core/Src/usbh_ctlreq.c ****   * @param  length: Length of the descriptor
 200:Middlewares/ST/STM32_USB_Host_Library/Core/Src/usbh_ctlreq.c ****   * @retval USBH Status
 201:Middlewares/ST/STM32_USB_Host_Library/Core/Src/usbh_ctlreq.c ****   */
 202:Middlewares/ST/STM32_USB_Host_Library/Core/Src/usbh_ctlreq.c **** USBH_StatusTypeDef USBH_GetDescriptor(USBH_HandleTypeDef *phost,                          
 203:Middlewares/ST/STM32_USB_Host_Library/Core/Src/usbh_ctlreq.c ****                                uint8_t  req_type,
ARM GAS  C:\Users\Student\AppData\Local\Temp\ccR1oIOQ.s 			page 5


 204:Middlewares/ST/STM32_USB_Host_Library/Core/Src/usbh_ctlreq.c ****                                uint16_t value_idx, 
 205:Middlewares/ST/STM32_USB_Host_Library/Core/Src/usbh_ctlreq.c ****                                uint8_t* buff, 
 206:Middlewares/ST/STM32_USB_Host_Library/Core/Src/usbh_ctlreq.c ****                                uint16_t length )
 207:Middlewares/ST/STM32_USB_Host_Library/Core/Src/usbh_ctlreq.c **** { 
 208:Middlewares/ST/STM32_USB_Host_Library/Core/Src/usbh_ctlreq.c ****   if(phost->RequestState == CMD_SEND)
 209:Middlewares/ST/STM32_USB_Host_Library/Core/Src/usbh_ctlreq.c ****   {
 210:Middlewares/ST/STM32_USB_Host_Library/Core/Src/usbh_ctlreq.c ****     phost->Control.setup.b.bmRequestType = USB_D2H | req_type;
 211:Middlewares/ST/STM32_USB_Host_Library/Core/Src/usbh_ctlreq.c ****     phost->Control.setup.b.bRequest = USB_REQ_GET_DESCRIPTOR;
 212:Middlewares/ST/STM32_USB_Host_Library/Core/Src/usbh_ctlreq.c ****     phost->Control.setup.b.wValue.w = value_idx;
 213:Middlewares/ST/STM32_USB_Host_Library/Core/Src/usbh_ctlreq.c ****     
 214:Middlewares/ST/STM32_USB_Host_Library/Core/Src/usbh_ctlreq.c ****     if ((value_idx & 0xff00) == USB_DESC_STRING)
 215:Middlewares/ST/STM32_USB_Host_Library/Core/Src/usbh_ctlreq.c ****     {
 216:Middlewares/ST/STM32_USB_Host_Library/Core/Src/usbh_ctlreq.c ****       phost->Control.setup.b.wIndex.w = 0x0409;
 217:Middlewares/ST/STM32_USB_Host_Library/Core/Src/usbh_ctlreq.c ****     }
 218:Middlewares/ST/STM32_USB_Host_Library/Core/Src/usbh_ctlreq.c ****     else
 219:Middlewares/ST/STM32_USB_Host_Library/Core/Src/usbh_ctlreq.c ****     {
 220:Middlewares/ST/STM32_USB_Host_Library/Core/Src/usbh_ctlreq.c ****       phost->Control.setup.b.wIndex.w = 0;
 221:Middlewares/ST/STM32_USB_Host_Library/Core/Src/usbh_ctlreq.c ****     }
 222:Middlewares/ST/STM32_USB_Host_Library/Core/Src/usbh_ctlreq.c ****     phost->Control.setup.b.wLength.w = length; 
 223:Middlewares/ST/STM32_USB_Host_Library/Core/Src/usbh_ctlreq.c ****   }
 224:Middlewares/ST/STM32_USB_Host_Library/Core/Src/usbh_ctlreq.c ****   return USBH_CtlReq(phost, buff , length );     
 225:Middlewares/ST/STM32_USB_Host_Library/Core/Src/usbh_ctlreq.c **** }
 226:Middlewares/ST/STM32_USB_Host_Library/Core/Src/usbh_ctlreq.c **** 
 227:Middlewares/ST/STM32_USB_Host_Library/Core/Src/usbh_ctlreq.c **** /**
 228:Middlewares/ST/STM32_USB_Host_Library/Core/Src/usbh_ctlreq.c ****   * @brief  USBH_SetAddress
 229:Middlewares/ST/STM32_USB_Host_Library/Core/Src/usbh_ctlreq.c ****   *         This command sets the address to the connected device
 230:Middlewares/ST/STM32_USB_Host_Library/Core/Src/usbh_ctlreq.c ****   * @param  phost: Host Handle
 231:Middlewares/ST/STM32_USB_Host_Library/Core/Src/usbh_ctlreq.c ****   * @param  DeviceAddress: Device address to assign
 232:Middlewares/ST/STM32_USB_Host_Library/Core/Src/usbh_ctlreq.c ****   * @retval USBH Status
 233:Middlewares/ST/STM32_USB_Host_Library/Core/Src/usbh_ctlreq.c ****   */
 234:Middlewares/ST/STM32_USB_Host_Library/Core/Src/usbh_ctlreq.c **** USBH_StatusTypeDef USBH_SetAddress(USBH_HandleTypeDef *phost, 
 235:Middlewares/ST/STM32_USB_Host_Library/Core/Src/usbh_ctlreq.c ****                                    uint8_t DeviceAddress)
 236:Middlewares/ST/STM32_USB_Host_Library/Core/Src/usbh_ctlreq.c **** {
 237:Middlewares/ST/STM32_USB_Host_Library/Core/Src/usbh_ctlreq.c ****   if(phost->RequestState == CMD_SEND)
 238:Middlewares/ST/STM32_USB_Host_Library/Core/Src/usbh_ctlreq.c ****   {
 239:Middlewares/ST/STM32_USB_Host_Library/Core/Src/usbh_ctlreq.c ****     phost->Control.setup.b.bmRequestType = USB_H2D | USB_REQ_RECIPIENT_DEVICE | \
 240:Middlewares/ST/STM32_USB_Host_Library/Core/Src/usbh_ctlreq.c ****       USB_REQ_TYPE_STANDARD;
 241:Middlewares/ST/STM32_USB_Host_Library/Core/Src/usbh_ctlreq.c ****     
 242:Middlewares/ST/STM32_USB_Host_Library/Core/Src/usbh_ctlreq.c ****     phost->Control.setup.b.bRequest = USB_REQ_SET_ADDRESS;
 243:Middlewares/ST/STM32_USB_Host_Library/Core/Src/usbh_ctlreq.c ****     
 244:Middlewares/ST/STM32_USB_Host_Library/Core/Src/usbh_ctlreq.c ****     phost->Control.setup.b.wValue.w = (uint16_t)DeviceAddress;
 245:Middlewares/ST/STM32_USB_Host_Library/Core/Src/usbh_ctlreq.c ****     phost->Control.setup.b.wIndex.w = 0;
 246:Middlewares/ST/STM32_USB_Host_Library/Core/Src/usbh_ctlreq.c ****     phost->Control.setup.b.wLength.w = 0;
 247:Middlewares/ST/STM32_USB_Host_Library/Core/Src/usbh_ctlreq.c ****   }
 248:Middlewares/ST/STM32_USB_Host_Library/Core/Src/usbh_ctlreq.c ****   return USBH_CtlReq(phost, 0 , 0 );
 249:Middlewares/ST/STM32_USB_Host_Library/Core/Src/usbh_ctlreq.c **** }
 250:Middlewares/ST/STM32_USB_Host_Library/Core/Src/usbh_ctlreq.c **** 
 251:Middlewares/ST/STM32_USB_Host_Library/Core/Src/usbh_ctlreq.c **** /**
 252:Middlewares/ST/STM32_USB_Host_Library/Core/Src/usbh_ctlreq.c ****   * @brief  USBH_SetCfg
 253:Middlewares/ST/STM32_USB_Host_Library/Core/Src/usbh_ctlreq.c ****   *         The command sets the configuration value to the connected device
 254:Middlewares/ST/STM32_USB_Host_Library/Core/Src/usbh_ctlreq.c ****   * @param  phost: Host Handle
 255:Middlewares/ST/STM32_USB_Host_Library/Core/Src/usbh_ctlreq.c ****   * @param  cfg_idx: Configuration value
 256:Middlewares/ST/STM32_USB_Host_Library/Core/Src/usbh_ctlreq.c ****   * @retval USBH Status
 257:Middlewares/ST/STM32_USB_Host_Library/Core/Src/usbh_ctlreq.c ****   */
 258:Middlewares/ST/STM32_USB_Host_Library/Core/Src/usbh_ctlreq.c **** USBH_StatusTypeDef USBH_SetCfg(USBH_HandleTypeDef *phost, 
 259:Middlewares/ST/STM32_USB_Host_Library/Core/Src/usbh_ctlreq.c ****                                uint16_t cfg_idx)
 260:Middlewares/ST/STM32_USB_Host_Library/Core/Src/usbh_ctlreq.c **** {
ARM GAS  C:\Users\Student\AppData\Local\Temp\ccR1oIOQ.s 			page 6


 261:Middlewares/ST/STM32_USB_Host_Library/Core/Src/usbh_ctlreq.c ****   if(phost->RequestState == CMD_SEND)
 262:Middlewares/ST/STM32_USB_Host_Library/Core/Src/usbh_ctlreq.c ****   {
 263:Middlewares/ST/STM32_USB_Host_Library/Core/Src/usbh_ctlreq.c ****     phost->Control.setup.b.bmRequestType = USB_H2D | USB_REQ_RECIPIENT_DEVICE |\
 264:Middlewares/ST/STM32_USB_Host_Library/Core/Src/usbh_ctlreq.c ****       USB_REQ_TYPE_STANDARD;
 265:Middlewares/ST/STM32_USB_Host_Library/Core/Src/usbh_ctlreq.c ****     phost->Control.setup.b.bRequest = USB_REQ_SET_CONFIGURATION;
 266:Middlewares/ST/STM32_USB_Host_Library/Core/Src/usbh_ctlreq.c ****     phost->Control.setup.b.wValue.w = cfg_idx;
 267:Middlewares/ST/STM32_USB_Host_Library/Core/Src/usbh_ctlreq.c ****     phost->Control.setup.b.wIndex.w = 0;
 268:Middlewares/ST/STM32_USB_Host_Library/Core/Src/usbh_ctlreq.c ****     phost->Control.setup.b.wLength.w = 0; 
 269:Middlewares/ST/STM32_USB_Host_Library/Core/Src/usbh_ctlreq.c ****   }
 270:Middlewares/ST/STM32_USB_Host_Library/Core/Src/usbh_ctlreq.c ****   
 271:Middlewares/ST/STM32_USB_Host_Library/Core/Src/usbh_ctlreq.c ****   return USBH_CtlReq(phost, 0 , 0 );      
 272:Middlewares/ST/STM32_USB_Host_Library/Core/Src/usbh_ctlreq.c **** }
 273:Middlewares/ST/STM32_USB_Host_Library/Core/Src/usbh_ctlreq.c **** 
 274:Middlewares/ST/STM32_USB_Host_Library/Core/Src/usbh_ctlreq.c **** /**
 275:Middlewares/ST/STM32_USB_Host_Library/Core/Src/usbh_ctlreq.c ****   * @brief  USBH_SetInterface
 276:Middlewares/ST/STM32_USB_Host_Library/Core/Src/usbh_ctlreq.c ****   *         The command sets the Interface value to the connected device
 277:Middlewares/ST/STM32_USB_Host_Library/Core/Src/usbh_ctlreq.c ****   * @param  phost: Host Handle
 278:Middlewares/ST/STM32_USB_Host_Library/Core/Src/usbh_ctlreq.c ****   * @param  altSetting: Interface value
 279:Middlewares/ST/STM32_USB_Host_Library/Core/Src/usbh_ctlreq.c ****   * @retval USBH Status
 280:Middlewares/ST/STM32_USB_Host_Library/Core/Src/usbh_ctlreq.c ****   */
 281:Middlewares/ST/STM32_USB_Host_Library/Core/Src/usbh_ctlreq.c **** USBH_StatusTypeDef USBH_SetInterface(USBH_HandleTypeDef *phost, 
 282:Middlewares/ST/STM32_USB_Host_Library/Core/Src/usbh_ctlreq.c ****                         uint8_t ep_num, uint8_t altSetting)
 283:Middlewares/ST/STM32_USB_Host_Library/Core/Src/usbh_ctlreq.c **** {
 284:Middlewares/ST/STM32_USB_Host_Library/Core/Src/usbh_ctlreq.c ****   
 285:Middlewares/ST/STM32_USB_Host_Library/Core/Src/usbh_ctlreq.c ****   if(phost->RequestState == CMD_SEND)
 286:Middlewares/ST/STM32_USB_Host_Library/Core/Src/usbh_ctlreq.c ****   {
 287:Middlewares/ST/STM32_USB_Host_Library/Core/Src/usbh_ctlreq.c ****     phost->Control.setup.b.bmRequestType = USB_H2D | USB_REQ_RECIPIENT_INTERFACE | \
 288:Middlewares/ST/STM32_USB_Host_Library/Core/Src/usbh_ctlreq.c ****       USB_REQ_TYPE_STANDARD;
 289:Middlewares/ST/STM32_USB_Host_Library/Core/Src/usbh_ctlreq.c ****     
 290:Middlewares/ST/STM32_USB_Host_Library/Core/Src/usbh_ctlreq.c ****     phost->Control.setup.b.bRequest = USB_REQ_SET_INTERFACE;
 291:Middlewares/ST/STM32_USB_Host_Library/Core/Src/usbh_ctlreq.c ****     phost->Control.setup.b.wValue.w = altSetting;
 292:Middlewares/ST/STM32_USB_Host_Library/Core/Src/usbh_ctlreq.c ****     phost->Control.setup.b.wIndex.w = ep_num;
 293:Middlewares/ST/STM32_USB_Host_Library/Core/Src/usbh_ctlreq.c ****     phost->Control.setup.b.wLength.w = 0;           
 294:Middlewares/ST/STM32_USB_Host_Library/Core/Src/usbh_ctlreq.c ****   }
 295:Middlewares/ST/STM32_USB_Host_Library/Core/Src/usbh_ctlreq.c ****   return USBH_CtlReq(phost, 0 , 0 );     
 296:Middlewares/ST/STM32_USB_Host_Library/Core/Src/usbh_ctlreq.c **** }
 297:Middlewares/ST/STM32_USB_Host_Library/Core/Src/usbh_ctlreq.c **** 
 298:Middlewares/ST/STM32_USB_Host_Library/Core/Src/usbh_ctlreq.c **** /**
 299:Middlewares/ST/STM32_USB_Host_Library/Core/Src/usbh_ctlreq.c ****   * @brief  USBH_ClrFeature
 300:Middlewares/ST/STM32_USB_Host_Library/Core/Src/usbh_ctlreq.c ****   *         This request is used to clear or disable a specific feature.
 301:Middlewares/ST/STM32_USB_Host_Library/Core/Src/usbh_ctlreq.c ****   * @param  phost: Host Handle
 302:Middlewares/ST/STM32_USB_Host_Library/Core/Src/usbh_ctlreq.c ****   * @param  ep_num: endpoint number 
 303:Middlewares/ST/STM32_USB_Host_Library/Core/Src/usbh_ctlreq.c ****   * @param  hc_num: Host channel number 
 304:Middlewares/ST/STM32_USB_Host_Library/Core/Src/usbh_ctlreq.c ****   * @retval USBH Status
 305:Middlewares/ST/STM32_USB_Host_Library/Core/Src/usbh_ctlreq.c ****   */
 306:Middlewares/ST/STM32_USB_Host_Library/Core/Src/usbh_ctlreq.c **** USBH_StatusTypeDef USBH_ClrFeature(USBH_HandleTypeDef *phost,
 307:Middlewares/ST/STM32_USB_Host_Library/Core/Src/usbh_ctlreq.c ****                                    uint8_t ep_num) 
 308:Middlewares/ST/STM32_USB_Host_Library/Core/Src/usbh_ctlreq.c **** {
 309:Middlewares/ST/STM32_USB_Host_Library/Core/Src/usbh_ctlreq.c ****   if(phost->RequestState == CMD_SEND)
 310:Middlewares/ST/STM32_USB_Host_Library/Core/Src/usbh_ctlreq.c ****   {
 311:Middlewares/ST/STM32_USB_Host_Library/Core/Src/usbh_ctlreq.c ****     phost->Control.setup.b.bmRequestType = USB_H2D | 
 312:Middlewares/ST/STM32_USB_Host_Library/Core/Src/usbh_ctlreq.c ****       USB_REQ_RECIPIENT_ENDPOINT |
 313:Middlewares/ST/STM32_USB_Host_Library/Core/Src/usbh_ctlreq.c ****         USB_REQ_TYPE_STANDARD;
 314:Middlewares/ST/STM32_USB_Host_Library/Core/Src/usbh_ctlreq.c ****     
 315:Middlewares/ST/STM32_USB_Host_Library/Core/Src/usbh_ctlreq.c ****     phost->Control.setup.b.bRequest = USB_REQ_CLEAR_FEATURE;
 316:Middlewares/ST/STM32_USB_Host_Library/Core/Src/usbh_ctlreq.c ****     phost->Control.setup.b.wValue.w = FEATURE_SELECTOR_ENDPOINT;
 317:Middlewares/ST/STM32_USB_Host_Library/Core/Src/usbh_ctlreq.c ****     phost->Control.setup.b.wIndex.w = ep_num;
ARM GAS  C:\Users\Student\AppData\Local\Temp\ccR1oIOQ.s 			page 7


 318:Middlewares/ST/STM32_USB_Host_Library/Core/Src/usbh_ctlreq.c ****     phost->Control.setup.b.wLength.w = 0;           
 319:Middlewares/ST/STM32_USB_Host_Library/Core/Src/usbh_ctlreq.c ****   }
 320:Middlewares/ST/STM32_USB_Host_Library/Core/Src/usbh_ctlreq.c ****   return USBH_CtlReq(phost, 0 , 0 );   
 321:Middlewares/ST/STM32_USB_Host_Library/Core/Src/usbh_ctlreq.c **** }
 322:Middlewares/ST/STM32_USB_Host_Library/Core/Src/usbh_ctlreq.c **** 
 323:Middlewares/ST/STM32_USB_Host_Library/Core/Src/usbh_ctlreq.c **** /**
 324:Middlewares/ST/STM32_USB_Host_Library/Core/Src/usbh_ctlreq.c ****   * @brief  USBH_ParseDevDesc 
 325:Middlewares/ST/STM32_USB_Host_Library/Core/Src/usbh_ctlreq.c ****   *         This function Parses the device descriptor
 326:Middlewares/ST/STM32_USB_Host_Library/Core/Src/usbh_ctlreq.c ****   * @param  dev_desc: device_descriptor destination address 
 327:Middlewares/ST/STM32_USB_Host_Library/Core/Src/usbh_ctlreq.c ****   * @param  buf: Buffer where the source descriptor is available
 328:Middlewares/ST/STM32_USB_Host_Library/Core/Src/usbh_ctlreq.c ****   * @param  length: Length of the descriptor
 329:Middlewares/ST/STM32_USB_Host_Library/Core/Src/usbh_ctlreq.c ****   * @retval None
 330:Middlewares/ST/STM32_USB_Host_Library/Core/Src/usbh_ctlreq.c ****   */
 331:Middlewares/ST/STM32_USB_Host_Library/Core/Src/usbh_ctlreq.c **** static void  USBH_ParseDevDesc (USBH_DevDescTypeDef* dev_desc,
 332:Middlewares/ST/STM32_USB_Host_Library/Core/Src/usbh_ctlreq.c ****                                 uint8_t *buf, 
 333:Middlewares/ST/STM32_USB_Host_Library/Core/Src/usbh_ctlreq.c ****                                 uint16_t length)
 334:Middlewares/ST/STM32_USB_Host_Library/Core/Src/usbh_ctlreq.c **** {
  27              		.loc 1 334 0
  28              		.cfi_startproc
  29              		@ args = 0, pretend = 0, frame = 0
  30              		@ frame_needed = 0, uses_anonymous_args = 0
  31              		@ link register save eliminated.
  32              	.LVL0:
  33 0000 10B4     		push	{r4}
  34              	.LCFI0:
  35              		.cfi_def_cfa_offset 4
  36              		.cfi_offset 4, -4
 335:Middlewares/ST/STM32_USB_Host_Library/Core/Src/usbh_ctlreq.c ****   dev_desc->bLength            = *(uint8_t  *) (buf +  0);
  37              		.loc 1 335 0
  38 0002 0B78     		ldrb	r3, [r1]	@ zero_extendqisi2
  39 0004 0370     		strb	r3, [r0]
 336:Middlewares/ST/STM32_USB_Host_Library/Core/Src/usbh_ctlreq.c ****   dev_desc->bDescriptorType    = *(uint8_t  *) (buf +  1);
  40              		.loc 1 336 0
  41 0006 4B78     		ldrb	r3, [r1, #1]	@ zero_extendqisi2
  42 0008 4370     		strb	r3, [r0, #1]
 337:Middlewares/ST/STM32_USB_Host_Library/Core/Src/usbh_ctlreq.c ****   dev_desc->bcdUSB             = LE16 (buf +  2);
  43              		.loc 1 337 0
  44 000a 8B78     		ldrb	r3, [r1, #2]	@ zero_extendqisi2
  45 000c CC78     		ldrb	r4, [r1, #3]	@ zero_extendqisi2
  46 000e 03EB0423 		add	r3, r3, r4, lsl #8
  47 0012 4380     		strh	r3, [r0, #2]	@ movhi
 338:Middlewares/ST/STM32_USB_Host_Library/Core/Src/usbh_ctlreq.c ****   dev_desc->bDeviceClass       = *(uint8_t  *) (buf +  4);
  48              		.loc 1 338 0
  49 0014 0B79     		ldrb	r3, [r1, #4]	@ zero_extendqisi2
  50 0016 0371     		strb	r3, [r0, #4]
 339:Middlewares/ST/STM32_USB_Host_Library/Core/Src/usbh_ctlreq.c ****   dev_desc->bDeviceSubClass    = *(uint8_t  *) (buf +  5);
  51              		.loc 1 339 0
  52 0018 4B79     		ldrb	r3, [r1, #5]	@ zero_extendqisi2
  53 001a 4371     		strb	r3, [r0, #5]
 340:Middlewares/ST/STM32_USB_Host_Library/Core/Src/usbh_ctlreq.c ****   dev_desc->bDeviceProtocol    = *(uint8_t  *) (buf +  6);
  54              		.loc 1 340 0
  55 001c 8B79     		ldrb	r3, [r1, #6]	@ zero_extendqisi2
  56 001e 8371     		strb	r3, [r0, #6]
 341:Middlewares/ST/STM32_USB_Host_Library/Core/Src/usbh_ctlreq.c ****   dev_desc->bMaxPacketSize     = *(uint8_t  *) (buf +  7);
  57              		.loc 1 341 0
  58 0020 CB79     		ldrb	r3, [r1, #7]	@ zero_extendqisi2
  59 0022 C371     		strb	r3, [r0, #7]
ARM GAS  C:\Users\Student\AppData\Local\Temp\ccR1oIOQ.s 			page 8


 342:Middlewares/ST/STM32_USB_Host_Library/Core/Src/usbh_ctlreq.c ****   
 343:Middlewares/ST/STM32_USB_Host_Library/Core/Src/usbh_ctlreq.c ****   if (length > 8)
  60              		.loc 1 343 0
  61 0024 082A     		cmp	r2, #8
  62 0026 16D9     		bls	.L1
 344:Middlewares/ST/STM32_USB_Host_Library/Core/Src/usbh_ctlreq.c ****   { /* For 1st time after device connection, Host may issue only 8 bytes for 
 345:Middlewares/ST/STM32_USB_Host_Library/Core/Src/usbh_ctlreq.c ****     Device Descriptor Length  */
 346:Middlewares/ST/STM32_USB_Host_Library/Core/Src/usbh_ctlreq.c ****     dev_desc->idVendor           = LE16 (buf +  8);
  63              		.loc 1 346 0
  64 0028 0B7A     		ldrb	r3, [r1, #8]	@ zero_extendqisi2
  65 002a 4A7A     		ldrb	r2, [r1, #9]	@ zero_extendqisi2
  66              	.LVL1:
  67 002c 03EB0223 		add	r3, r3, r2, lsl #8
  68 0030 0381     		strh	r3, [r0, #8]	@ movhi
 347:Middlewares/ST/STM32_USB_Host_Library/Core/Src/usbh_ctlreq.c ****     dev_desc->idProduct          = LE16 (buf + 10);
  69              		.loc 1 347 0
  70 0032 8B7A     		ldrb	r3, [r1, #10]	@ zero_extendqisi2
  71 0034 CA7A     		ldrb	r2, [r1, #11]	@ zero_extendqisi2
  72 0036 03EB0223 		add	r3, r3, r2, lsl #8
  73 003a 4381     		strh	r3, [r0, #10]	@ movhi
 348:Middlewares/ST/STM32_USB_Host_Library/Core/Src/usbh_ctlreq.c ****     dev_desc->bcdDevice          = LE16 (buf + 12);
  74              		.loc 1 348 0
  75 003c 0B7B     		ldrb	r3, [r1, #12]	@ zero_extendqisi2
  76 003e 4A7B     		ldrb	r2, [r1, #13]	@ zero_extendqisi2
  77 0040 03EB0223 		add	r3, r3, r2, lsl #8
  78 0044 8381     		strh	r3, [r0, #12]	@ movhi
 349:Middlewares/ST/STM32_USB_Host_Library/Core/Src/usbh_ctlreq.c ****     dev_desc->iManufacturer      = *(uint8_t  *) (buf + 14);
  79              		.loc 1 349 0
  80 0046 8B7B     		ldrb	r3, [r1, #14]	@ zero_extendqisi2
  81 0048 8373     		strb	r3, [r0, #14]
 350:Middlewares/ST/STM32_USB_Host_Library/Core/Src/usbh_ctlreq.c ****     dev_desc->iProduct           = *(uint8_t  *) (buf + 15);
  82              		.loc 1 350 0
  83 004a CB7B     		ldrb	r3, [r1, #15]	@ zero_extendqisi2
  84 004c C373     		strb	r3, [r0, #15]
 351:Middlewares/ST/STM32_USB_Host_Library/Core/Src/usbh_ctlreq.c ****     dev_desc->iSerialNumber      = *(uint8_t  *) (buf + 16);
  85              		.loc 1 351 0
  86 004e 0B7C     		ldrb	r3, [r1, #16]	@ zero_extendqisi2
  87 0050 0374     		strb	r3, [r0, #16]
 352:Middlewares/ST/STM32_USB_Host_Library/Core/Src/usbh_ctlreq.c ****     dev_desc->bNumConfigurations = *(uint8_t  *) (buf + 17);
  88              		.loc 1 352 0
  89 0052 4B7C     		ldrb	r3, [r1, #17]	@ zero_extendqisi2
  90 0054 4374     		strb	r3, [r0, #17]
  91              	.L1:
 353:Middlewares/ST/STM32_USB_Host_Library/Core/Src/usbh_ctlreq.c ****   }
 354:Middlewares/ST/STM32_USB_Host_Library/Core/Src/usbh_ctlreq.c **** }
  92              		.loc 1 354 0
  93 0056 5DF8044B 		ldr	r4, [sp], #4
  94              	.LCFI1:
  95              		.cfi_restore 4
  96              		.cfi_def_cfa_offset 0
  97 005a 7047     		bx	lr
  98              		.cfi_endproc
  99              	.LFE149:
 101              		.section	.text.USBH_ParseInterfaceDesc,"ax",%progbits
 102              		.align	1
 103              		.syntax unified
 104              		.thumb
ARM GAS  C:\Users\Student\AppData\Local\Temp\ccR1oIOQ.s 			page 9


 105              		.thumb_func
 106              		.fpu fpv5-sp-d16
 108              	USBH_ParseInterfaceDesc:
 109              	.LFB151:
 355:Middlewares/ST/STM32_USB_Host_Library/Core/Src/usbh_ctlreq.c **** 
 356:Middlewares/ST/STM32_USB_Host_Library/Core/Src/usbh_ctlreq.c **** /**
 357:Middlewares/ST/STM32_USB_Host_Library/Core/Src/usbh_ctlreq.c ****   * @brief  USBH_ParseCfgDesc 
 358:Middlewares/ST/STM32_USB_Host_Library/Core/Src/usbh_ctlreq.c ****   *         This function Parses the configuration descriptor
 359:Middlewares/ST/STM32_USB_Host_Library/Core/Src/usbh_ctlreq.c ****   * @param  cfg_desc: Configuration Descriptor address
 360:Middlewares/ST/STM32_USB_Host_Library/Core/Src/usbh_ctlreq.c ****   * @param  buf: Buffer where the source descriptor is available
 361:Middlewares/ST/STM32_USB_Host_Library/Core/Src/usbh_ctlreq.c ****   * @param  length: Length of the descriptor
 362:Middlewares/ST/STM32_USB_Host_Library/Core/Src/usbh_ctlreq.c ****   * @retval None
 363:Middlewares/ST/STM32_USB_Host_Library/Core/Src/usbh_ctlreq.c ****   */
 364:Middlewares/ST/STM32_USB_Host_Library/Core/Src/usbh_ctlreq.c **** static void USBH_ParseCfgDesc (USBH_CfgDescTypeDef* cfg_desc,
 365:Middlewares/ST/STM32_USB_Host_Library/Core/Src/usbh_ctlreq.c ****                                uint8_t *buf, 
 366:Middlewares/ST/STM32_USB_Host_Library/Core/Src/usbh_ctlreq.c ****                                uint16_t length)
 367:Middlewares/ST/STM32_USB_Host_Library/Core/Src/usbh_ctlreq.c **** {  
 368:Middlewares/ST/STM32_USB_Host_Library/Core/Src/usbh_ctlreq.c ****   USBH_InterfaceDescTypeDef    *pif ;
 369:Middlewares/ST/STM32_USB_Host_Library/Core/Src/usbh_ctlreq.c ****   USBH_EpDescTypeDef           *pep;  
 370:Middlewares/ST/STM32_USB_Host_Library/Core/Src/usbh_ctlreq.c ****   USBH_DescHeader_t             *pdesc = (USBH_DescHeader_t *)buf;
 371:Middlewares/ST/STM32_USB_Host_Library/Core/Src/usbh_ctlreq.c ****   uint16_t                      ptr;
 372:Middlewares/ST/STM32_USB_Host_Library/Core/Src/usbh_ctlreq.c ****   int8_t                        if_ix = 0;
 373:Middlewares/ST/STM32_USB_Host_Library/Core/Src/usbh_ctlreq.c ****   int8_t                        ep_ix = 0;  
 374:Middlewares/ST/STM32_USB_Host_Library/Core/Src/usbh_ctlreq.c ****   
 375:Middlewares/ST/STM32_USB_Host_Library/Core/Src/usbh_ctlreq.c ****   pdesc   = (USBH_DescHeader_t *)buf;
 376:Middlewares/ST/STM32_USB_Host_Library/Core/Src/usbh_ctlreq.c ****   
 377:Middlewares/ST/STM32_USB_Host_Library/Core/Src/usbh_ctlreq.c ****   /* Parse configuration descriptor */
 378:Middlewares/ST/STM32_USB_Host_Library/Core/Src/usbh_ctlreq.c ****   cfg_desc->bLength             = *(uint8_t  *) (buf + 0);
 379:Middlewares/ST/STM32_USB_Host_Library/Core/Src/usbh_ctlreq.c ****   cfg_desc->bDescriptorType     = *(uint8_t  *) (buf + 1);
 380:Middlewares/ST/STM32_USB_Host_Library/Core/Src/usbh_ctlreq.c ****   cfg_desc->wTotalLength        = LE16 (buf + 2);
 381:Middlewares/ST/STM32_USB_Host_Library/Core/Src/usbh_ctlreq.c ****   cfg_desc->bNumInterfaces      = *(uint8_t  *) (buf + 4);
 382:Middlewares/ST/STM32_USB_Host_Library/Core/Src/usbh_ctlreq.c ****   cfg_desc->bConfigurationValue = *(uint8_t  *) (buf + 5);
 383:Middlewares/ST/STM32_USB_Host_Library/Core/Src/usbh_ctlreq.c ****   cfg_desc->iConfiguration      = *(uint8_t  *) (buf + 6);
 384:Middlewares/ST/STM32_USB_Host_Library/Core/Src/usbh_ctlreq.c ****   cfg_desc->bmAttributes        = *(uint8_t  *) (buf + 7);
 385:Middlewares/ST/STM32_USB_Host_Library/Core/Src/usbh_ctlreq.c ****   cfg_desc->bMaxPower           = *(uint8_t  *) (buf + 8);    
 386:Middlewares/ST/STM32_USB_Host_Library/Core/Src/usbh_ctlreq.c ****   
 387:Middlewares/ST/STM32_USB_Host_Library/Core/Src/usbh_ctlreq.c ****   
 388:Middlewares/ST/STM32_USB_Host_Library/Core/Src/usbh_ctlreq.c ****   if (length > USB_CONFIGURATION_DESC_SIZE)
 389:Middlewares/ST/STM32_USB_Host_Library/Core/Src/usbh_ctlreq.c ****   {
 390:Middlewares/ST/STM32_USB_Host_Library/Core/Src/usbh_ctlreq.c ****     ptr = USB_LEN_CFG_DESC;
 391:Middlewares/ST/STM32_USB_Host_Library/Core/Src/usbh_ctlreq.c ****     pif = (USBH_InterfaceDescTypeDef *)0;
 392:Middlewares/ST/STM32_USB_Host_Library/Core/Src/usbh_ctlreq.c ****     
 393:Middlewares/ST/STM32_USB_Host_Library/Core/Src/usbh_ctlreq.c ****     
 394:Middlewares/ST/STM32_USB_Host_Library/Core/Src/usbh_ctlreq.c ****     while ((if_ix < USBH_MAX_NUM_INTERFACES ) && (ptr < cfg_desc->wTotalLength))
 395:Middlewares/ST/STM32_USB_Host_Library/Core/Src/usbh_ctlreq.c ****     {
 396:Middlewares/ST/STM32_USB_Host_Library/Core/Src/usbh_ctlreq.c ****       pdesc = USBH_GetNextDesc((uint8_t *)pdesc, &ptr);
 397:Middlewares/ST/STM32_USB_Host_Library/Core/Src/usbh_ctlreq.c ****       if (pdesc->bDescriptorType   == USB_DESC_TYPE_INTERFACE) 
 398:Middlewares/ST/STM32_USB_Host_Library/Core/Src/usbh_ctlreq.c ****       {
 399:Middlewares/ST/STM32_USB_Host_Library/Core/Src/usbh_ctlreq.c ****         pif = &cfg_desc->Itf_Desc[if_ix];
 400:Middlewares/ST/STM32_USB_Host_Library/Core/Src/usbh_ctlreq.c ****         USBH_ParseInterfaceDesc (pif, (uint8_t *)pdesc);            
 401:Middlewares/ST/STM32_USB_Host_Library/Core/Src/usbh_ctlreq.c ****         
 402:Middlewares/ST/STM32_USB_Host_Library/Core/Src/usbh_ctlreq.c ****         ep_ix = 0;
 403:Middlewares/ST/STM32_USB_Host_Library/Core/Src/usbh_ctlreq.c ****         pep = (USBH_EpDescTypeDef *)0;        
 404:Middlewares/ST/STM32_USB_Host_Library/Core/Src/usbh_ctlreq.c ****         while ((ep_ix < pif->bNumEndpoints) && (ptr < cfg_desc->wTotalLength))
 405:Middlewares/ST/STM32_USB_Host_Library/Core/Src/usbh_ctlreq.c ****         {
 406:Middlewares/ST/STM32_USB_Host_Library/Core/Src/usbh_ctlreq.c ****           pdesc = USBH_GetNextDesc((uint8_t*) pdesc, &ptr);
 407:Middlewares/ST/STM32_USB_Host_Library/Core/Src/usbh_ctlreq.c ****           if (pdesc->bDescriptorType   == USB_DESC_TYPE_ENDPOINT) 
ARM GAS  C:\Users\Student\AppData\Local\Temp\ccR1oIOQ.s 			page 10


 408:Middlewares/ST/STM32_USB_Host_Library/Core/Src/usbh_ctlreq.c ****           {  
 409:Middlewares/ST/STM32_USB_Host_Library/Core/Src/usbh_ctlreq.c ****             pep = &cfg_desc->Itf_Desc[if_ix].Ep_Desc[ep_ix];
 410:Middlewares/ST/STM32_USB_Host_Library/Core/Src/usbh_ctlreq.c ****             USBH_ParseEPDesc (pep, (uint8_t *)pdesc);
 411:Middlewares/ST/STM32_USB_Host_Library/Core/Src/usbh_ctlreq.c ****             ep_ix++;
 412:Middlewares/ST/STM32_USB_Host_Library/Core/Src/usbh_ctlreq.c ****           }
 413:Middlewares/ST/STM32_USB_Host_Library/Core/Src/usbh_ctlreq.c ****         }
 414:Middlewares/ST/STM32_USB_Host_Library/Core/Src/usbh_ctlreq.c ****         if_ix++;
 415:Middlewares/ST/STM32_USB_Host_Library/Core/Src/usbh_ctlreq.c ****       }
 416:Middlewares/ST/STM32_USB_Host_Library/Core/Src/usbh_ctlreq.c ****     }
 417:Middlewares/ST/STM32_USB_Host_Library/Core/Src/usbh_ctlreq.c ****   }  
 418:Middlewares/ST/STM32_USB_Host_Library/Core/Src/usbh_ctlreq.c **** }
 419:Middlewares/ST/STM32_USB_Host_Library/Core/Src/usbh_ctlreq.c **** 
 420:Middlewares/ST/STM32_USB_Host_Library/Core/Src/usbh_ctlreq.c **** 
 421:Middlewares/ST/STM32_USB_Host_Library/Core/Src/usbh_ctlreq.c **** 
 422:Middlewares/ST/STM32_USB_Host_Library/Core/Src/usbh_ctlreq.c **** /**
 423:Middlewares/ST/STM32_USB_Host_Library/Core/Src/usbh_ctlreq.c ****   * @brief  USBH_ParseInterfaceDesc 
 424:Middlewares/ST/STM32_USB_Host_Library/Core/Src/usbh_ctlreq.c ****   *         This function Parses the interface descriptor
 425:Middlewares/ST/STM32_USB_Host_Library/Core/Src/usbh_ctlreq.c ****   * @param  if_descriptor : Interface descriptor destination
 426:Middlewares/ST/STM32_USB_Host_Library/Core/Src/usbh_ctlreq.c ****   * @param  buf: Buffer where the descriptor data is available
 427:Middlewares/ST/STM32_USB_Host_Library/Core/Src/usbh_ctlreq.c ****   * @retval None
 428:Middlewares/ST/STM32_USB_Host_Library/Core/Src/usbh_ctlreq.c ****   */
 429:Middlewares/ST/STM32_USB_Host_Library/Core/Src/usbh_ctlreq.c **** static void  USBH_ParseInterfaceDesc (USBH_InterfaceDescTypeDef *if_descriptor, 
 430:Middlewares/ST/STM32_USB_Host_Library/Core/Src/usbh_ctlreq.c ****                                       uint8_t *buf)
 431:Middlewares/ST/STM32_USB_Host_Library/Core/Src/usbh_ctlreq.c **** {
 110              		.loc 1 431 0
 111              		.cfi_startproc
 112              		@ args = 0, pretend = 0, frame = 0
 113              		@ frame_needed = 0, uses_anonymous_args = 0
 114              		@ link register save eliminated.
 115              	.LVL2:
 432:Middlewares/ST/STM32_USB_Host_Library/Core/Src/usbh_ctlreq.c ****   if_descriptor->bLength            = *(uint8_t  *) (buf + 0);
 116              		.loc 1 432 0
 117 0000 0B78     		ldrb	r3, [r1]	@ zero_extendqisi2
 118 0002 0370     		strb	r3, [r0]
 433:Middlewares/ST/STM32_USB_Host_Library/Core/Src/usbh_ctlreq.c ****   if_descriptor->bDescriptorType    = *(uint8_t  *) (buf + 1);
 119              		.loc 1 433 0
 120 0004 4B78     		ldrb	r3, [r1, #1]	@ zero_extendqisi2
 121 0006 4370     		strb	r3, [r0, #1]
 434:Middlewares/ST/STM32_USB_Host_Library/Core/Src/usbh_ctlreq.c ****   if_descriptor->bInterfaceNumber   = *(uint8_t  *) (buf + 2);
 122              		.loc 1 434 0
 123 0008 8B78     		ldrb	r3, [r1, #2]	@ zero_extendqisi2
 124 000a 8370     		strb	r3, [r0, #2]
 435:Middlewares/ST/STM32_USB_Host_Library/Core/Src/usbh_ctlreq.c ****   if_descriptor->bAlternateSetting  = *(uint8_t  *) (buf + 3);
 125              		.loc 1 435 0
 126 000c CB78     		ldrb	r3, [r1, #3]	@ zero_extendqisi2
 127 000e C370     		strb	r3, [r0, #3]
 436:Middlewares/ST/STM32_USB_Host_Library/Core/Src/usbh_ctlreq.c ****   if_descriptor->bNumEndpoints      = *(uint8_t  *) (buf + 4);
 128              		.loc 1 436 0
 129 0010 0B79     		ldrb	r3, [r1, #4]	@ zero_extendqisi2
 130 0012 0371     		strb	r3, [r0, #4]
 437:Middlewares/ST/STM32_USB_Host_Library/Core/Src/usbh_ctlreq.c ****   if_descriptor->bInterfaceClass    = *(uint8_t  *) (buf + 5);
 131              		.loc 1 437 0
 132 0014 4B79     		ldrb	r3, [r1, #5]	@ zero_extendqisi2
 133 0016 4371     		strb	r3, [r0, #5]
 438:Middlewares/ST/STM32_USB_Host_Library/Core/Src/usbh_ctlreq.c ****   if_descriptor->bInterfaceSubClass = *(uint8_t  *) (buf + 6);
 134              		.loc 1 438 0
 135 0018 8B79     		ldrb	r3, [r1, #6]	@ zero_extendqisi2
ARM GAS  C:\Users\Student\AppData\Local\Temp\ccR1oIOQ.s 			page 11


 136 001a 8371     		strb	r3, [r0, #6]
 439:Middlewares/ST/STM32_USB_Host_Library/Core/Src/usbh_ctlreq.c ****   if_descriptor->bInterfaceProtocol = *(uint8_t  *) (buf + 7);
 137              		.loc 1 439 0
 138 001c CB79     		ldrb	r3, [r1, #7]	@ zero_extendqisi2
 139 001e C371     		strb	r3, [r0, #7]
 440:Middlewares/ST/STM32_USB_Host_Library/Core/Src/usbh_ctlreq.c ****   if_descriptor->iInterface         = *(uint8_t  *) (buf + 8);
 140              		.loc 1 440 0
 141 0020 0B7A     		ldrb	r3, [r1, #8]	@ zero_extendqisi2
 142 0022 0372     		strb	r3, [r0, #8]
 143 0024 7047     		bx	lr
 144              		.cfi_endproc
 145              	.LFE151:
 147              		.section	.text.USBH_ParseEPDesc,"ax",%progbits
 148              		.align	1
 149              		.syntax unified
 150              		.thumb
 151              		.thumb_func
 152              		.fpu fpv5-sp-d16
 154              	USBH_ParseEPDesc:
 155              	.LFB152:
 441:Middlewares/ST/STM32_USB_Host_Library/Core/Src/usbh_ctlreq.c **** }
 442:Middlewares/ST/STM32_USB_Host_Library/Core/Src/usbh_ctlreq.c **** 
 443:Middlewares/ST/STM32_USB_Host_Library/Core/Src/usbh_ctlreq.c **** /**
 444:Middlewares/ST/STM32_USB_Host_Library/Core/Src/usbh_ctlreq.c ****   * @brief  USBH_ParseEPDesc 
 445:Middlewares/ST/STM32_USB_Host_Library/Core/Src/usbh_ctlreq.c ****   *         This function Parses the endpoint descriptor
 446:Middlewares/ST/STM32_USB_Host_Library/Core/Src/usbh_ctlreq.c ****   * @param  ep_descriptor: Endpoint descriptor destination address
 447:Middlewares/ST/STM32_USB_Host_Library/Core/Src/usbh_ctlreq.c ****   * @param  buf: Buffer where the parsed descriptor stored
 448:Middlewares/ST/STM32_USB_Host_Library/Core/Src/usbh_ctlreq.c ****   * @retval None
 449:Middlewares/ST/STM32_USB_Host_Library/Core/Src/usbh_ctlreq.c ****   */
 450:Middlewares/ST/STM32_USB_Host_Library/Core/Src/usbh_ctlreq.c **** static void  USBH_ParseEPDesc (USBH_EpDescTypeDef  *ep_descriptor, 
 451:Middlewares/ST/STM32_USB_Host_Library/Core/Src/usbh_ctlreq.c ****                                uint8_t *buf)
 452:Middlewares/ST/STM32_USB_Host_Library/Core/Src/usbh_ctlreq.c **** {
 156              		.loc 1 452 0
 157              		.cfi_startproc
 158              		@ args = 0, pretend = 0, frame = 0
 159              		@ frame_needed = 0, uses_anonymous_args = 0
 160              		@ link register save eliminated.
 161              	.LVL3:
 453:Middlewares/ST/STM32_USB_Host_Library/Core/Src/usbh_ctlreq.c ****   
 454:Middlewares/ST/STM32_USB_Host_Library/Core/Src/usbh_ctlreq.c ****   ep_descriptor->bLength          = *(uint8_t  *) (buf + 0);
 162              		.loc 1 454 0
 163 0000 0B78     		ldrb	r3, [r1]	@ zero_extendqisi2
 164 0002 0370     		strb	r3, [r0]
 455:Middlewares/ST/STM32_USB_Host_Library/Core/Src/usbh_ctlreq.c ****   ep_descriptor->bDescriptorType  = *(uint8_t  *) (buf + 1);
 165              		.loc 1 455 0
 166 0004 4B78     		ldrb	r3, [r1, #1]	@ zero_extendqisi2
 167 0006 4370     		strb	r3, [r0, #1]
 456:Middlewares/ST/STM32_USB_Host_Library/Core/Src/usbh_ctlreq.c ****   ep_descriptor->bEndpointAddress = *(uint8_t  *) (buf + 2);
 168              		.loc 1 456 0
 169 0008 8B78     		ldrb	r3, [r1, #2]	@ zero_extendqisi2
 170 000a 8370     		strb	r3, [r0, #2]
 457:Middlewares/ST/STM32_USB_Host_Library/Core/Src/usbh_ctlreq.c ****   ep_descriptor->bmAttributes     = *(uint8_t  *) (buf + 3);
 171              		.loc 1 457 0
 172 000c CB78     		ldrb	r3, [r1, #3]	@ zero_extendqisi2
 173 000e C370     		strb	r3, [r0, #3]
 458:Middlewares/ST/STM32_USB_Host_Library/Core/Src/usbh_ctlreq.c ****   ep_descriptor->wMaxPacketSize   = LE16 (buf + 4);
 174              		.loc 1 458 0
ARM GAS  C:\Users\Student\AppData\Local\Temp\ccR1oIOQ.s 			page 12


 175 0010 0B79     		ldrb	r3, [r1, #4]	@ zero_extendqisi2
 176 0012 4A79     		ldrb	r2, [r1, #5]	@ zero_extendqisi2
 177 0014 03EB0223 		add	r3, r3, r2, lsl #8
 178 0018 8380     		strh	r3, [r0, #4]	@ movhi
 459:Middlewares/ST/STM32_USB_Host_Library/Core/Src/usbh_ctlreq.c ****   ep_descriptor->bInterval        = *(uint8_t  *) (buf + 6);
 179              		.loc 1 459 0
 180 001a 8B79     		ldrb	r3, [r1, #6]	@ zero_extendqisi2
 181 001c 8371     		strb	r3, [r0, #6]
 182 001e 7047     		bx	lr
 183              		.cfi_endproc
 184              	.LFE152:
 186              		.section	.text.USBH_ParseStringDesc,"ax",%progbits
 187              		.align	1
 188              		.syntax unified
 189              		.thumb
 190              		.thumb_func
 191              		.fpu fpv5-sp-d16
 193              	USBH_ParseStringDesc:
 194              	.LFB153:
 460:Middlewares/ST/STM32_USB_Host_Library/Core/Src/usbh_ctlreq.c **** }
 461:Middlewares/ST/STM32_USB_Host_Library/Core/Src/usbh_ctlreq.c **** 
 462:Middlewares/ST/STM32_USB_Host_Library/Core/Src/usbh_ctlreq.c **** /**
 463:Middlewares/ST/STM32_USB_Host_Library/Core/Src/usbh_ctlreq.c ****   * @brief  USBH_ParseStringDesc 
 464:Middlewares/ST/STM32_USB_Host_Library/Core/Src/usbh_ctlreq.c ****   *         This function Parses the string descriptor
 465:Middlewares/ST/STM32_USB_Host_Library/Core/Src/usbh_ctlreq.c ****   * @param  psrc: Source pointer containing the descriptor data
 466:Middlewares/ST/STM32_USB_Host_Library/Core/Src/usbh_ctlreq.c ****   * @param  pdest: Destination address pointer
 467:Middlewares/ST/STM32_USB_Host_Library/Core/Src/usbh_ctlreq.c ****   * @param  length: Length of the descriptor
 468:Middlewares/ST/STM32_USB_Host_Library/Core/Src/usbh_ctlreq.c ****   * @retval None
 469:Middlewares/ST/STM32_USB_Host_Library/Core/Src/usbh_ctlreq.c ****   */
 470:Middlewares/ST/STM32_USB_Host_Library/Core/Src/usbh_ctlreq.c **** static void USBH_ParseStringDesc (uint8_t* psrc, 
 471:Middlewares/ST/STM32_USB_Host_Library/Core/Src/usbh_ctlreq.c ****                                   uint8_t* pdest, 
 472:Middlewares/ST/STM32_USB_Host_Library/Core/Src/usbh_ctlreq.c ****                                   uint16_t length)
 473:Middlewares/ST/STM32_USB_Host_Library/Core/Src/usbh_ctlreq.c **** {
 195              		.loc 1 473 0
 196              		.cfi_startproc
 197              		@ args = 0, pretend = 0, frame = 0
 198              		@ frame_needed = 0, uses_anonymous_args = 0
 199              		@ link register save eliminated.
 200              	.LVL4:
 474:Middlewares/ST/STM32_USB_Host_Library/Core/Src/usbh_ctlreq.c ****   uint16_t strlength;
 475:Middlewares/ST/STM32_USB_Host_Library/Core/Src/usbh_ctlreq.c ****   uint16_t idx;
 476:Middlewares/ST/STM32_USB_Host_Library/Core/Src/usbh_ctlreq.c ****   
 477:Middlewares/ST/STM32_USB_Host_Library/Core/Src/usbh_ctlreq.c ****   /* The UNICODE string descriptor is not NULL-terminated. The string length is
 478:Middlewares/ST/STM32_USB_Host_Library/Core/Src/usbh_ctlreq.c ****   computed by substracting two from the value of the first byte of the descriptor.
 479:Middlewares/ST/STM32_USB_Host_Library/Core/Src/usbh_ctlreq.c ****   */
 480:Middlewares/ST/STM32_USB_Host_Library/Core/Src/usbh_ctlreq.c ****   
 481:Middlewares/ST/STM32_USB_Host_Library/Core/Src/usbh_ctlreq.c ****   /* Check which is lower size, the Size of string or the length of bytes read 
 482:Middlewares/ST/STM32_USB_Host_Library/Core/Src/usbh_ctlreq.c ****   from the device */
 483:Middlewares/ST/STM32_USB_Host_Library/Core/Src/usbh_ctlreq.c ****   
 484:Middlewares/ST/STM32_USB_Host_Library/Core/Src/usbh_ctlreq.c ****   if ( psrc[1] == USB_DESC_TYPE_STRING)
 201              		.loc 1 484 0
 202 0000 4378     		ldrb	r3, [r0, #1]	@ zero_extendqisi2
 203 0002 032B     		cmp	r3, #3
 204 0004 00D0     		beq	.L15
 205              	.LVL5:
 206              	.L14:
 485:Middlewares/ST/STM32_USB_Host_Library/Core/Src/usbh_ctlreq.c ****   { /* Make sure the Descriptor is String Type */
ARM GAS  C:\Users\Student\AppData\Local\Temp\ccR1oIOQ.s 			page 13


 486:Middlewares/ST/STM32_USB_Host_Library/Core/Src/usbh_ctlreq.c ****     
 487:Middlewares/ST/STM32_USB_Host_Library/Core/Src/usbh_ctlreq.c ****     /* psrc[0] contains Size of Descriptor, subtract 2 to get the length of string */      
 488:Middlewares/ST/STM32_USB_Host_Library/Core/Src/usbh_ctlreq.c ****     strlength = ( ( (psrc[0]-2) <= length) ? (psrc[0]-2) :length); 
 489:Middlewares/ST/STM32_USB_Host_Library/Core/Src/usbh_ctlreq.c ****     psrc += 2; /* Adjust the offset ignoring the String Len and Descriptor type */
 490:Middlewares/ST/STM32_USB_Host_Library/Core/Src/usbh_ctlreq.c ****     
 491:Middlewares/ST/STM32_USB_Host_Library/Core/Src/usbh_ctlreq.c ****     for (idx = 0; idx < strlength; idx+=2 )
 492:Middlewares/ST/STM32_USB_Host_Library/Core/Src/usbh_ctlreq.c ****     {/* Copy Only the string and ignore the UNICODE ID, hence add the src */
 493:Middlewares/ST/STM32_USB_Host_Library/Core/Src/usbh_ctlreq.c ****       *pdest =  psrc[idx];
 494:Middlewares/ST/STM32_USB_Host_Library/Core/Src/usbh_ctlreq.c ****       pdest++;
 495:Middlewares/ST/STM32_USB_Host_Library/Core/Src/usbh_ctlreq.c ****     }  
 496:Middlewares/ST/STM32_USB_Host_Library/Core/Src/usbh_ctlreq.c ****     *pdest = 0; /* mark end of string */  
 497:Middlewares/ST/STM32_USB_Host_Library/Core/Src/usbh_ctlreq.c ****   }
 498:Middlewares/ST/STM32_USB_Host_Library/Core/Src/usbh_ctlreq.c **** }
 207              		.loc 1 498 0
 208 0006 7047     		bx	lr
 209              	.LVL6:
 210              	.L15:
 473:Middlewares/ST/STM32_USB_Host_Library/Core/Src/usbh_ctlreq.c ****   uint16_t strlength;
 211              		.loc 1 473 0
 212 0008 10B4     		push	{r4}
 213              	.LCFI2:
 214              		.cfi_def_cfa_offset 4
 215              		.cfi_offset 4, -4
 488:Middlewares/ST/STM32_USB_Host_Library/Core/Src/usbh_ctlreq.c ****     psrc += 2; /* Adjust the offset ignoring the String Len and Descriptor type */
 216              		.loc 1 488 0
 217 000a 0478     		ldrb	r4, [r0]	@ zero_extendqisi2
 218 000c 023C     		subs	r4, r4, #2
 219 000e A242     		cmp	r2, r4
 220 0010 A8BF     		it	ge
 221 0012 2246     		movge	r2, r4
 222              	.LVL7:
 223 0014 94B2     		uxth	r4, r2
 224              	.LVL8:
 491:Middlewares/ST/STM32_USB_Host_Library/Core/Src/usbh_ctlreq.c ****     {/* Copy Only the string and ignore the UNICODE ID, hence add the src */
 225              		.loc 1 491 0
 226 0016 0023     		movs	r3, #0
 227 0018 05E0     		b	.L8
 228              	.LVL9:
 229              	.L9:
 493:Middlewares/ST/STM32_USB_Host_Library/Core/Src/usbh_ctlreq.c ****       pdest++;
 230              		.loc 1 493 0 discriminator 3
 231 001a C218     		adds	r2, r0, r3
 232 001c 9278     		ldrb	r2, [r2, #2]	@ zero_extendqisi2
 233 001e 01F8012B 		strb	r2, [r1], #1
 234              	.LVL10:
 491:Middlewares/ST/STM32_USB_Host_Library/Core/Src/usbh_ctlreq.c ****     {/* Copy Only the string and ignore the UNICODE ID, hence add the src */
 235              		.loc 1 491 0 discriminator 3
 236 0022 0233     		adds	r3, r3, #2
 237              	.LVL11:
 238 0024 9BB2     		uxth	r3, r3
 239              	.LVL12:
 240              	.L8:
 491:Middlewares/ST/STM32_USB_Host_Library/Core/Src/usbh_ctlreq.c ****     {/* Copy Only the string and ignore the UNICODE ID, hence add the src */
 241              		.loc 1 491 0 is_stmt 0 discriminator 1
 242 0026 A342     		cmp	r3, r4
 243 0028 F7D3     		bcc	.L9
 496:Middlewares/ST/STM32_USB_Host_Library/Core/Src/usbh_ctlreq.c ****   }
ARM GAS  C:\Users\Student\AppData\Local\Temp\ccR1oIOQ.s 			page 14


 244              		.loc 1 496 0 is_stmt 1
 245 002a 0023     		movs	r3, #0
 246              	.LVL13:
 247 002c 0B70     		strb	r3, [r1]
 248              		.loc 1 498 0
 249 002e 5DF8044B 		ldr	r4, [sp], #4
 250              	.LCFI3:
 251              		.cfi_restore 4
 252              		.cfi_def_cfa_offset 0
 253              	.LVL14:
 254 0032 E8E7     		b	.L14
 255              		.cfi_endproc
 256              	.LFE153:
 258              		.section	.text.USBH_HandleControl,"ax",%progbits
 259              		.align	1
 260              		.syntax unified
 261              		.thumb
 262              		.thumb_func
 263              		.fpu fpv5-sp-d16
 265              	USBH_HandleControl:
 266              	.LFB156:
 499:Middlewares/ST/STM32_USB_Host_Library/Core/Src/usbh_ctlreq.c **** 
 500:Middlewares/ST/STM32_USB_Host_Library/Core/Src/usbh_ctlreq.c **** /**
 501:Middlewares/ST/STM32_USB_Host_Library/Core/Src/usbh_ctlreq.c ****   * @brief  USBH_GetNextDesc 
 502:Middlewares/ST/STM32_USB_Host_Library/Core/Src/usbh_ctlreq.c ****   *         This function return the next descriptor header
 503:Middlewares/ST/STM32_USB_Host_Library/Core/Src/usbh_ctlreq.c ****   * @param  buf: Buffer where the cfg descriptor is available
 504:Middlewares/ST/STM32_USB_Host_Library/Core/Src/usbh_ctlreq.c ****   * @param  ptr: data pointer inside the cfg descriptor
 505:Middlewares/ST/STM32_USB_Host_Library/Core/Src/usbh_ctlreq.c ****   * @retval next header
 506:Middlewares/ST/STM32_USB_Host_Library/Core/Src/usbh_ctlreq.c ****   */
 507:Middlewares/ST/STM32_USB_Host_Library/Core/Src/usbh_ctlreq.c **** USBH_DescHeader_t  *USBH_GetNextDesc (uint8_t   *pbuf, uint16_t  *ptr)
 508:Middlewares/ST/STM32_USB_Host_Library/Core/Src/usbh_ctlreq.c **** {
 509:Middlewares/ST/STM32_USB_Host_Library/Core/Src/usbh_ctlreq.c ****   USBH_DescHeader_t  *pnext;
 510:Middlewares/ST/STM32_USB_Host_Library/Core/Src/usbh_ctlreq.c ****  
 511:Middlewares/ST/STM32_USB_Host_Library/Core/Src/usbh_ctlreq.c ****   *ptr += ((USBH_DescHeader_t *)pbuf)->bLength;  
 512:Middlewares/ST/STM32_USB_Host_Library/Core/Src/usbh_ctlreq.c ****   pnext = (USBH_DescHeader_t *)((uint8_t *)pbuf + \
 513:Middlewares/ST/STM32_USB_Host_Library/Core/Src/usbh_ctlreq.c ****          ((USBH_DescHeader_t *)pbuf)->bLength);
 514:Middlewares/ST/STM32_USB_Host_Library/Core/Src/usbh_ctlreq.c ****  
 515:Middlewares/ST/STM32_USB_Host_Library/Core/Src/usbh_ctlreq.c ****   return(pnext);
 516:Middlewares/ST/STM32_USB_Host_Library/Core/Src/usbh_ctlreq.c **** }
 517:Middlewares/ST/STM32_USB_Host_Library/Core/Src/usbh_ctlreq.c **** 
 518:Middlewares/ST/STM32_USB_Host_Library/Core/Src/usbh_ctlreq.c **** 
 519:Middlewares/ST/STM32_USB_Host_Library/Core/Src/usbh_ctlreq.c **** /**
 520:Middlewares/ST/STM32_USB_Host_Library/Core/Src/usbh_ctlreq.c ****   * @brief  USBH_CtlReq
 521:Middlewares/ST/STM32_USB_Host_Library/Core/Src/usbh_ctlreq.c ****   *         USBH_CtlReq sends a control request and provide the status after 
 522:Middlewares/ST/STM32_USB_Host_Library/Core/Src/usbh_ctlreq.c ****   *            completion of the request
 523:Middlewares/ST/STM32_USB_Host_Library/Core/Src/usbh_ctlreq.c ****   * @param  phost: Host Handle
 524:Middlewares/ST/STM32_USB_Host_Library/Core/Src/usbh_ctlreq.c ****   * @param  req: Setup Request Structure
 525:Middlewares/ST/STM32_USB_Host_Library/Core/Src/usbh_ctlreq.c ****   * @param  buff: data buffer address to store the response
 526:Middlewares/ST/STM32_USB_Host_Library/Core/Src/usbh_ctlreq.c ****   * @param  length: length of the response
 527:Middlewares/ST/STM32_USB_Host_Library/Core/Src/usbh_ctlreq.c ****   * @retval USBH Status
 528:Middlewares/ST/STM32_USB_Host_Library/Core/Src/usbh_ctlreq.c ****   */
 529:Middlewares/ST/STM32_USB_Host_Library/Core/Src/usbh_ctlreq.c **** USBH_StatusTypeDef USBH_CtlReq     (USBH_HandleTypeDef *phost, 
 530:Middlewares/ST/STM32_USB_Host_Library/Core/Src/usbh_ctlreq.c ****                              uint8_t             *buff,
 531:Middlewares/ST/STM32_USB_Host_Library/Core/Src/usbh_ctlreq.c ****                              uint16_t            length)
 532:Middlewares/ST/STM32_USB_Host_Library/Core/Src/usbh_ctlreq.c **** {
 533:Middlewares/ST/STM32_USB_Host_Library/Core/Src/usbh_ctlreq.c ****   USBH_StatusTypeDef status;
 534:Middlewares/ST/STM32_USB_Host_Library/Core/Src/usbh_ctlreq.c ****   status = USBH_BUSY;
ARM GAS  C:\Users\Student\AppData\Local\Temp\ccR1oIOQ.s 			page 15


 535:Middlewares/ST/STM32_USB_Host_Library/Core/Src/usbh_ctlreq.c ****   
 536:Middlewares/ST/STM32_USB_Host_Library/Core/Src/usbh_ctlreq.c ****   switch (phost->RequestState)
 537:Middlewares/ST/STM32_USB_Host_Library/Core/Src/usbh_ctlreq.c ****   {
 538:Middlewares/ST/STM32_USB_Host_Library/Core/Src/usbh_ctlreq.c ****   case CMD_SEND:
 539:Middlewares/ST/STM32_USB_Host_Library/Core/Src/usbh_ctlreq.c ****     /* Start a SETUP transfer */
 540:Middlewares/ST/STM32_USB_Host_Library/Core/Src/usbh_ctlreq.c ****     phost->Control.buff = buff; 
 541:Middlewares/ST/STM32_USB_Host_Library/Core/Src/usbh_ctlreq.c ****     phost->Control.length = length;
 542:Middlewares/ST/STM32_USB_Host_Library/Core/Src/usbh_ctlreq.c ****     phost->Control.state = CTRL_SETUP;  
 543:Middlewares/ST/STM32_USB_Host_Library/Core/Src/usbh_ctlreq.c ****     phost->RequestState = CMD_WAIT;
 544:Middlewares/ST/STM32_USB_Host_Library/Core/Src/usbh_ctlreq.c ****     status = USBH_BUSY;
 545:Middlewares/ST/STM32_USB_Host_Library/Core/Src/usbh_ctlreq.c **** #if (USBH_USE_OS == 1)
 546:Middlewares/ST/STM32_USB_Host_Library/Core/Src/usbh_ctlreq.c ****     osMessagePut ( phost->os_event, USBH_CONTROL_EVENT, 0);
 547:Middlewares/ST/STM32_USB_Host_Library/Core/Src/usbh_ctlreq.c **** #endif      
 548:Middlewares/ST/STM32_USB_Host_Library/Core/Src/usbh_ctlreq.c ****     break;
 549:Middlewares/ST/STM32_USB_Host_Library/Core/Src/usbh_ctlreq.c ****     
 550:Middlewares/ST/STM32_USB_Host_Library/Core/Src/usbh_ctlreq.c ****   case CMD_WAIT:
 551:Middlewares/ST/STM32_USB_Host_Library/Core/Src/usbh_ctlreq.c ****     status = USBH_HandleControl(phost);
 552:Middlewares/ST/STM32_USB_Host_Library/Core/Src/usbh_ctlreq.c ****      if (status == USBH_OK) 
 553:Middlewares/ST/STM32_USB_Host_Library/Core/Src/usbh_ctlreq.c ****     {
 554:Middlewares/ST/STM32_USB_Host_Library/Core/Src/usbh_ctlreq.c ****       /* Commands successfully sent and Response Received  */       
 555:Middlewares/ST/STM32_USB_Host_Library/Core/Src/usbh_ctlreq.c ****       phost->RequestState = CMD_SEND;
 556:Middlewares/ST/STM32_USB_Host_Library/Core/Src/usbh_ctlreq.c ****       phost->Control.state =CTRL_IDLE;  
 557:Middlewares/ST/STM32_USB_Host_Library/Core/Src/usbh_ctlreq.c ****       status = USBH_OK;      
 558:Middlewares/ST/STM32_USB_Host_Library/Core/Src/usbh_ctlreq.c ****     }
 559:Middlewares/ST/STM32_USB_Host_Library/Core/Src/usbh_ctlreq.c ****     else if  (status == USBH_FAIL)
 560:Middlewares/ST/STM32_USB_Host_Library/Core/Src/usbh_ctlreq.c ****     {
 561:Middlewares/ST/STM32_USB_Host_Library/Core/Src/usbh_ctlreq.c ****       /* Failure Mode */
 562:Middlewares/ST/STM32_USB_Host_Library/Core/Src/usbh_ctlreq.c ****       phost->RequestState = CMD_SEND;
 563:Middlewares/ST/STM32_USB_Host_Library/Core/Src/usbh_ctlreq.c ****       status = USBH_FAIL;
 564:Middlewares/ST/STM32_USB_Host_Library/Core/Src/usbh_ctlreq.c ****     }   
 565:Middlewares/ST/STM32_USB_Host_Library/Core/Src/usbh_ctlreq.c ****     break;
 566:Middlewares/ST/STM32_USB_Host_Library/Core/Src/usbh_ctlreq.c ****     
 567:Middlewares/ST/STM32_USB_Host_Library/Core/Src/usbh_ctlreq.c ****   default:
 568:Middlewares/ST/STM32_USB_Host_Library/Core/Src/usbh_ctlreq.c ****     break; 
 569:Middlewares/ST/STM32_USB_Host_Library/Core/Src/usbh_ctlreq.c ****   }
 570:Middlewares/ST/STM32_USB_Host_Library/Core/Src/usbh_ctlreq.c ****   return status;
 571:Middlewares/ST/STM32_USB_Host_Library/Core/Src/usbh_ctlreq.c **** }
 572:Middlewares/ST/STM32_USB_Host_Library/Core/Src/usbh_ctlreq.c **** 
 573:Middlewares/ST/STM32_USB_Host_Library/Core/Src/usbh_ctlreq.c **** /**
 574:Middlewares/ST/STM32_USB_Host_Library/Core/Src/usbh_ctlreq.c ****   * @brief  USBH_HandleControl
 575:Middlewares/ST/STM32_USB_Host_Library/Core/Src/usbh_ctlreq.c ****   *         Handles the USB control transfer state machine
 576:Middlewares/ST/STM32_USB_Host_Library/Core/Src/usbh_ctlreq.c ****   * @param  phost: Host Handle
 577:Middlewares/ST/STM32_USB_Host_Library/Core/Src/usbh_ctlreq.c ****   * @retval USBH Status
 578:Middlewares/ST/STM32_USB_Host_Library/Core/Src/usbh_ctlreq.c ****   */
 579:Middlewares/ST/STM32_USB_Host_Library/Core/Src/usbh_ctlreq.c **** static USBH_StatusTypeDef USBH_HandleControl (USBH_HandleTypeDef *phost)
 580:Middlewares/ST/STM32_USB_Host_Library/Core/Src/usbh_ctlreq.c **** {
 267              		.loc 1 580 0
 268              		.cfi_startproc
 269              		@ args = 0, pretend = 0, frame = 0
 270              		@ frame_needed = 0, uses_anonymous_args = 0
 271              	.LVL15:
 272 0000 30B5     		push	{r4, r5, lr}
 273              	.LCFI4:
 274              		.cfi_def_cfa_offset 12
 275              		.cfi_offset 4, -12
 276              		.cfi_offset 5, -8
 277              		.cfi_offset 14, -4
ARM GAS  C:\Users\Student\AppData\Local\Temp\ccR1oIOQ.s 			page 16


 278 0002 83B0     		sub	sp, sp, #12
 279              	.LCFI5:
 280              		.cfi_def_cfa_offset 24
 281 0004 0446     		mov	r4, r0
 282              	.LVL16:
 581:Middlewares/ST/STM32_USB_Host_Library/Core/Src/usbh_ctlreq.c ****   uint8_t direction;  
 582:Middlewares/ST/STM32_USB_Host_Library/Core/Src/usbh_ctlreq.c ****   USBH_StatusTypeDef status = USBH_BUSY;
 583:Middlewares/ST/STM32_USB_Host_Library/Core/Src/usbh_ctlreq.c ****   USBH_URBStateTypeDef URB_Status = USBH_URB_IDLE;
 584:Middlewares/ST/STM32_USB_Host_Library/Core/Src/usbh_ctlreq.c ****   
 585:Middlewares/ST/STM32_USB_Host_Library/Core/Src/usbh_ctlreq.c ****   switch (phost->Control.state)
 283              		.loc 1 585 0
 284 0006 037E     		ldrb	r3, [r0, #24]	@ zero_extendqisi2
 285 0008 013B     		subs	r3, r3, #1
 286 000a 0A2B     		cmp	r3, #10
 287 000c 00F23A81 		bhi	.L45
 288 0010 DFE813F0 		tbh	[pc, r3, lsl #1]
 289              	.L19:
 290 0014 0B00     		.2byte	(.L18-.L19)/2
 291 0016 1500     		.2byte	(.L20-.L19)/2
 292 0018 4400     		.2byte	(.L21-.L19)/2
 293 001a 5000     		.2byte	(.L22-.L19)/2
 294 001c 7700     		.2byte	(.L23-.L19)/2
 295 001e 8500     		.2byte	(.L24-.L19)/2
 296 0020 BA00     		.2byte	(.L25-.L19)/2
 297 0022 C600     		.2byte	(.L26-.L19)/2
 298 0024 ED00     		.2byte	(.L27-.L19)/2
 299 0026 FB00     		.2byte	(.L28-.L19)/2
 300 0028 2401     		.2byte	(.L29-.L19)/2
 301              		.p2align 1
 302              	.L18:
 586:Middlewares/ST/STM32_USB_Host_Library/Core/Src/usbh_ctlreq.c ****   {
 587:Middlewares/ST/STM32_USB_Host_Library/Core/Src/usbh_ctlreq.c ****   case CTRL_SETUP:
 588:Middlewares/ST/STM32_USB_Host_Library/Core/Src/usbh_ctlreq.c ****     /* send a SETUP packet */
 589:Middlewares/ST/STM32_USB_Host_Library/Core/Src/usbh_ctlreq.c ****     USBH_CtlSendSetup     (phost, 
 303              		.loc 1 589 0
 304 002a 4279     		ldrb	r2, [r0, #5]	@ zero_extendqisi2
 305 002c 00F11001 		add	r1, r0, #16
 306 0030 FFF7FEFF 		bl	USBH_CtlSendSetup
 307              	.LVL17:
 590:Middlewares/ST/STM32_USB_Host_Library/Core/Src/usbh_ctlreq.c **** 	                   (uint8_t *)phost->Control.setup.d8 , 
 591:Middlewares/ST/STM32_USB_Host_Library/Core/Src/usbh_ctlreq.c **** 	                   phost->Control.pipe_out); 
 592:Middlewares/ST/STM32_USB_Host_Library/Core/Src/usbh_ctlreq.c ****     
 593:Middlewares/ST/STM32_USB_Host_Library/Core/Src/usbh_ctlreq.c ****     phost->Control.state = CTRL_SETUP_WAIT; 
 308              		.loc 1 593 0
 309 0034 0223     		movs	r3, #2
 310 0036 2376     		strb	r3, [r4, #24]
 582:Middlewares/ST/STM32_USB_Host_Library/Core/Src/usbh_ctlreq.c ****   USBH_URBStateTypeDef URB_Status = USBH_URB_IDLE;
 311              		.loc 1 582 0
 312 0038 0120     		movs	r0, #1
 313              	.LVL18:
 314              	.L17:
 594:Middlewares/ST/STM32_USB_Host_Library/Core/Src/usbh_ctlreq.c ****     break; 
 595:Middlewares/ST/STM32_USB_Host_Library/Core/Src/usbh_ctlreq.c ****     
 596:Middlewares/ST/STM32_USB_Host_Library/Core/Src/usbh_ctlreq.c ****   case CTRL_SETUP_WAIT:
 597:Middlewares/ST/STM32_USB_Host_Library/Core/Src/usbh_ctlreq.c ****     
 598:Middlewares/ST/STM32_USB_Host_Library/Core/Src/usbh_ctlreq.c ****     URB_Status = USBH_LL_GetURBState(phost, phost->Control.pipe_out); 
 599:Middlewares/ST/STM32_USB_Host_Library/Core/Src/usbh_ctlreq.c ****     /* case SETUP packet sent successfully */
ARM GAS  C:\Users\Student\AppData\Local\Temp\ccR1oIOQ.s 			page 17


 600:Middlewares/ST/STM32_USB_Host_Library/Core/Src/usbh_ctlreq.c ****     if(URB_Status == USBH_URB_DONE)
 601:Middlewares/ST/STM32_USB_Host_Library/Core/Src/usbh_ctlreq.c ****     { 
 602:Middlewares/ST/STM32_USB_Host_Library/Core/Src/usbh_ctlreq.c ****       direction = (phost->Control.setup.b.bmRequestType & USB_REQ_DIR_MASK);
 603:Middlewares/ST/STM32_USB_Host_Library/Core/Src/usbh_ctlreq.c ****       
 604:Middlewares/ST/STM32_USB_Host_Library/Core/Src/usbh_ctlreq.c ****       /* check if there is a data stage */
 605:Middlewares/ST/STM32_USB_Host_Library/Core/Src/usbh_ctlreq.c ****       if (phost->Control.setup.b.wLength.w != 0 )
 606:Middlewares/ST/STM32_USB_Host_Library/Core/Src/usbh_ctlreq.c ****       {        
 607:Middlewares/ST/STM32_USB_Host_Library/Core/Src/usbh_ctlreq.c ****         if (direction == USB_D2H)
 608:Middlewares/ST/STM32_USB_Host_Library/Core/Src/usbh_ctlreq.c ****         {
 609:Middlewares/ST/STM32_USB_Host_Library/Core/Src/usbh_ctlreq.c ****           /* Data Direction is IN */
 610:Middlewares/ST/STM32_USB_Host_Library/Core/Src/usbh_ctlreq.c ****           phost->Control.state = CTRL_DATA_IN;
 611:Middlewares/ST/STM32_USB_Host_Library/Core/Src/usbh_ctlreq.c ****         }
 612:Middlewares/ST/STM32_USB_Host_Library/Core/Src/usbh_ctlreq.c ****         else
 613:Middlewares/ST/STM32_USB_Host_Library/Core/Src/usbh_ctlreq.c ****         {
 614:Middlewares/ST/STM32_USB_Host_Library/Core/Src/usbh_ctlreq.c ****           /* Data Direction is OUT */
 615:Middlewares/ST/STM32_USB_Host_Library/Core/Src/usbh_ctlreq.c ****           phost->Control.state = CTRL_DATA_OUT;
 616:Middlewares/ST/STM32_USB_Host_Library/Core/Src/usbh_ctlreq.c ****         } 
 617:Middlewares/ST/STM32_USB_Host_Library/Core/Src/usbh_ctlreq.c ****       }
 618:Middlewares/ST/STM32_USB_Host_Library/Core/Src/usbh_ctlreq.c ****       /* No DATA stage */
 619:Middlewares/ST/STM32_USB_Host_Library/Core/Src/usbh_ctlreq.c ****       else
 620:Middlewares/ST/STM32_USB_Host_Library/Core/Src/usbh_ctlreq.c ****       {
 621:Middlewares/ST/STM32_USB_Host_Library/Core/Src/usbh_ctlreq.c ****         /* If there is No Data Transfer Stage */
 622:Middlewares/ST/STM32_USB_Host_Library/Core/Src/usbh_ctlreq.c ****         if (direction == USB_D2H)
 623:Middlewares/ST/STM32_USB_Host_Library/Core/Src/usbh_ctlreq.c ****         {
 624:Middlewares/ST/STM32_USB_Host_Library/Core/Src/usbh_ctlreq.c ****           /* Data Direction is IN */
 625:Middlewares/ST/STM32_USB_Host_Library/Core/Src/usbh_ctlreq.c ****           phost->Control.state = CTRL_STATUS_OUT;
 626:Middlewares/ST/STM32_USB_Host_Library/Core/Src/usbh_ctlreq.c ****         }
 627:Middlewares/ST/STM32_USB_Host_Library/Core/Src/usbh_ctlreq.c ****         else
 628:Middlewares/ST/STM32_USB_Host_Library/Core/Src/usbh_ctlreq.c ****         {
 629:Middlewares/ST/STM32_USB_Host_Library/Core/Src/usbh_ctlreq.c ****           /* Data Direction is OUT */
 630:Middlewares/ST/STM32_USB_Host_Library/Core/Src/usbh_ctlreq.c ****           phost->Control.state = CTRL_STATUS_IN;
 631:Middlewares/ST/STM32_USB_Host_Library/Core/Src/usbh_ctlreq.c ****         } 
 632:Middlewares/ST/STM32_USB_Host_Library/Core/Src/usbh_ctlreq.c ****       }          
 633:Middlewares/ST/STM32_USB_Host_Library/Core/Src/usbh_ctlreq.c **** #if (USBH_USE_OS == 1)
 634:Middlewares/ST/STM32_USB_Host_Library/Core/Src/usbh_ctlreq.c ****       osMessagePut ( phost->os_event, USBH_CONTROL_EVENT, 0);
 635:Middlewares/ST/STM32_USB_Host_Library/Core/Src/usbh_ctlreq.c **** #endif
 636:Middlewares/ST/STM32_USB_Host_Library/Core/Src/usbh_ctlreq.c ****     }
 637:Middlewares/ST/STM32_USB_Host_Library/Core/Src/usbh_ctlreq.c ****     else if(URB_Status == USBH_URB_ERROR)
 638:Middlewares/ST/STM32_USB_Host_Library/Core/Src/usbh_ctlreq.c ****     {
 639:Middlewares/ST/STM32_USB_Host_Library/Core/Src/usbh_ctlreq.c ****       phost->Control.state = CTRL_ERROR;
 640:Middlewares/ST/STM32_USB_Host_Library/Core/Src/usbh_ctlreq.c **** #if (USBH_USE_OS == 1)
 641:Middlewares/ST/STM32_USB_Host_Library/Core/Src/usbh_ctlreq.c ****     osMessagePut ( phost->os_event, USBH_CONTROL_EVENT, 0);
 642:Middlewares/ST/STM32_USB_Host_Library/Core/Src/usbh_ctlreq.c **** #endif      
 643:Middlewares/ST/STM32_USB_Host_Library/Core/Src/usbh_ctlreq.c ****     }    
 644:Middlewares/ST/STM32_USB_Host_Library/Core/Src/usbh_ctlreq.c ****     break;
 645:Middlewares/ST/STM32_USB_Host_Library/Core/Src/usbh_ctlreq.c ****     
 646:Middlewares/ST/STM32_USB_Host_Library/Core/Src/usbh_ctlreq.c ****   case CTRL_DATA_IN:  
 647:Middlewares/ST/STM32_USB_Host_Library/Core/Src/usbh_ctlreq.c ****     /* Issue an IN token */ 
 648:Middlewares/ST/STM32_USB_Host_Library/Core/Src/usbh_ctlreq.c ****      phost->Control.timer = phost->Timer;
 649:Middlewares/ST/STM32_USB_Host_Library/Core/Src/usbh_ctlreq.c ****     USBH_CtlReceiveData(phost,
 650:Middlewares/ST/STM32_USB_Host_Library/Core/Src/usbh_ctlreq.c ****                         phost->Control.buff, 
 651:Middlewares/ST/STM32_USB_Host_Library/Core/Src/usbh_ctlreq.c ****                         phost->Control.length,
 652:Middlewares/ST/STM32_USB_Host_Library/Core/Src/usbh_ctlreq.c ****                         phost->Control.pipe_in);
 653:Middlewares/ST/STM32_USB_Host_Library/Core/Src/usbh_ctlreq.c ****  
 654:Middlewares/ST/STM32_USB_Host_Library/Core/Src/usbh_ctlreq.c ****     phost->Control.state = CTRL_DATA_IN_WAIT;
 655:Middlewares/ST/STM32_USB_Host_Library/Core/Src/usbh_ctlreq.c ****     break;    
 656:Middlewares/ST/STM32_USB_Host_Library/Core/Src/usbh_ctlreq.c ****     
ARM GAS  C:\Users\Student\AppData\Local\Temp\ccR1oIOQ.s 			page 18


 657:Middlewares/ST/STM32_USB_Host_Library/Core/Src/usbh_ctlreq.c ****   case CTRL_DATA_IN_WAIT:
 658:Middlewares/ST/STM32_USB_Host_Library/Core/Src/usbh_ctlreq.c ****     
 659:Middlewares/ST/STM32_USB_Host_Library/Core/Src/usbh_ctlreq.c ****     URB_Status = USBH_LL_GetURBState(phost , phost->Control.pipe_in); 
 660:Middlewares/ST/STM32_USB_Host_Library/Core/Src/usbh_ctlreq.c ****     
 661:Middlewares/ST/STM32_USB_Host_Library/Core/Src/usbh_ctlreq.c ****     /* check is DATA packet transferred successfully */
 662:Middlewares/ST/STM32_USB_Host_Library/Core/Src/usbh_ctlreq.c ****     if  (URB_Status == USBH_URB_DONE)
 663:Middlewares/ST/STM32_USB_Host_Library/Core/Src/usbh_ctlreq.c ****     { 
 664:Middlewares/ST/STM32_USB_Host_Library/Core/Src/usbh_ctlreq.c ****       phost->Control.state = CTRL_STATUS_OUT;
 665:Middlewares/ST/STM32_USB_Host_Library/Core/Src/usbh_ctlreq.c **** #if (USBH_USE_OS == 1)
 666:Middlewares/ST/STM32_USB_Host_Library/Core/Src/usbh_ctlreq.c ****     osMessagePut ( phost->os_event, USBH_CONTROL_EVENT, 0);
 667:Middlewares/ST/STM32_USB_Host_Library/Core/Src/usbh_ctlreq.c **** #endif      
 668:Middlewares/ST/STM32_USB_Host_Library/Core/Src/usbh_ctlreq.c ****     }
 669:Middlewares/ST/STM32_USB_Host_Library/Core/Src/usbh_ctlreq.c ****    
 670:Middlewares/ST/STM32_USB_Host_Library/Core/Src/usbh_ctlreq.c ****     /* manage error cases*/
 671:Middlewares/ST/STM32_USB_Host_Library/Core/Src/usbh_ctlreq.c ****     if  (URB_Status == USBH_URB_STALL) 
 672:Middlewares/ST/STM32_USB_Host_Library/Core/Src/usbh_ctlreq.c ****     { 
 673:Middlewares/ST/STM32_USB_Host_Library/Core/Src/usbh_ctlreq.c ****       /* In stall case, return to previous machine state*/
 674:Middlewares/ST/STM32_USB_Host_Library/Core/Src/usbh_ctlreq.c ****       status = USBH_NOT_SUPPORTED;
 675:Middlewares/ST/STM32_USB_Host_Library/Core/Src/usbh_ctlreq.c **** #if (USBH_USE_OS == 1)
 676:Middlewares/ST/STM32_USB_Host_Library/Core/Src/usbh_ctlreq.c ****     osMessagePut ( phost->os_event, USBH_CONTROL_EVENT, 0);
 677:Middlewares/ST/STM32_USB_Host_Library/Core/Src/usbh_ctlreq.c **** #endif      
 678:Middlewares/ST/STM32_USB_Host_Library/Core/Src/usbh_ctlreq.c ****     }   
 679:Middlewares/ST/STM32_USB_Host_Library/Core/Src/usbh_ctlreq.c ****     else if (URB_Status == USBH_URB_ERROR)
 680:Middlewares/ST/STM32_USB_Host_Library/Core/Src/usbh_ctlreq.c ****     {
 681:Middlewares/ST/STM32_USB_Host_Library/Core/Src/usbh_ctlreq.c ****       /* Device error */
 682:Middlewares/ST/STM32_USB_Host_Library/Core/Src/usbh_ctlreq.c ****       phost->Control.state = CTRL_ERROR;  
 683:Middlewares/ST/STM32_USB_Host_Library/Core/Src/usbh_ctlreq.c **** #if (USBH_USE_OS == 1)
 684:Middlewares/ST/STM32_USB_Host_Library/Core/Src/usbh_ctlreq.c ****     osMessagePut ( phost->os_event, USBH_CONTROL_EVENT, 0);
 685:Middlewares/ST/STM32_USB_Host_Library/Core/Src/usbh_ctlreq.c **** #endif      
 686:Middlewares/ST/STM32_USB_Host_Library/Core/Src/usbh_ctlreq.c ****     }
 687:Middlewares/ST/STM32_USB_Host_Library/Core/Src/usbh_ctlreq.c ****     break;
 688:Middlewares/ST/STM32_USB_Host_Library/Core/Src/usbh_ctlreq.c ****     
 689:Middlewares/ST/STM32_USB_Host_Library/Core/Src/usbh_ctlreq.c ****   case CTRL_DATA_OUT:
 690:Middlewares/ST/STM32_USB_Host_Library/Core/Src/usbh_ctlreq.c ****     
 691:Middlewares/ST/STM32_USB_Host_Library/Core/Src/usbh_ctlreq.c ****     USBH_CtlSendData (phost,
 692:Middlewares/ST/STM32_USB_Host_Library/Core/Src/usbh_ctlreq.c ****                       phost->Control.buff, 
 693:Middlewares/ST/STM32_USB_Host_Library/Core/Src/usbh_ctlreq.c ****                       phost->Control.length , 
 694:Middlewares/ST/STM32_USB_Host_Library/Core/Src/usbh_ctlreq.c ****                       phost->Control.pipe_out,
 695:Middlewares/ST/STM32_USB_Host_Library/Core/Src/usbh_ctlreq.c ****                       1);
 696:Middlewares/ST/STM32_USB_Host_Library/Core/Src/usbh_ctlreq.c ****      phost->Control.timer = phost->Timer;
 697:Middlewares/ST/STM32_USB_Host_Library/Core/Src/usbh_ctlreq.c ****     phost->Control.state = CTRL_DATA_OUT_WAIT;
 698:Middlewares/ST/STM32_USB_Host_Library/Core/Src/usbh_ctlreq.c ****     break;
 699:Middlewares/ST/STM32_USB_Host_Library/Core/Src/usbh_ctlreq.c ****     
 700:Middlewares/ST/STM32_USB_Host_Library/Core/Src/usbh_ctlreq.c ****   case CTRL_DATA_OUT_WAIT:
 701:Middlewares/ST/STM32_USB_Host_Library/Core/Src/usbh_ctlreq.c ****     
 702:Middlewares/ST/STM32_USB_Host_Library/Core/Src/usbh_ctlreq.c ****     URB_Status = USBH_LL_GetURBState(phost , phost->Control.pipe_out);     
 703:Middlewares/ST/STM32_USB_Host_Library/Core/Src/usbh_ctlreq.c ****     
 704:Middlewares/ST/STM32_USB_Host_Library/Core/Src/usbh_ctlreq.c ****     if  (URB_Status == USBH_URB_DONE)
 705:Middlewares/ST/STM32_USB_Host_Library/Core/Src/usbh_ctlreq.c ****     { /* If the Setup Pkt is sent successful, then change the state */
 706:Middlewares/ST/STM32_USB_Host_Library/Core/Src/usbh_ctlreq.c ****       phost->Control.state = CTRL_STATUS_IN;
 707:Middlewares/ST/STM32_USB_Host_Library/Core/Src/usbh_ctlreq.c **** #if (USBH_USE_OS == 1)
 708:Middlewares/ST/STM32_USB_Host_Library/Core/Src/usbh_ctlreq.c ****       osMessagePut ( phost->os_event, USBH_CONTROL_EVENT, 0);
 709:Middlewares/ST/STM32_USB_Host_Library/Core/Src/usbh_ctlreq.c **** #endif      
 710:Middlewares/ST/STM32_USB_Host_Library/Core/Src/usbh_ctlreq.c ****     }
 711:Middlewares/ST/STM32_USB_Host_Library/Core/Src/usbh_ctlreq.c ****     
 712:Middlewares/ST/STM32_USB_Host_Library/Core/Src/usbh_ctlreq.c ****     /* handle error cases */
 713:Middlewares/ST/STM32_USB_Host_Library/Core/Src/usbh_ctlreq.c ****     else if  (URB_Status == USBH_URB_STALL) 
ARM GAS  C:\Users\Student\AppData\Local\Temp\ccR1oIOQ.s 			page 19


 714:Middlewares/ST/STM32_USB_Host_Library/Core/Src/usbh_ctlreq.c ****     { 
 715:Middlewares/ST/STM32_USB_Host_Library/Core/Src/usbh_ctlreq.c ****       /* In stall case, return to previous machine state*/
 716:Middlewares/ST/STM32_USB_Host_Library/Core/Src/usbh_ctlreq.c ****       phost->Control.state = CTRL_STALLED; 
 717:Middlewares/ST/STM32_USB_Host_Library/Core/Src/usbh_ctlreq.c ****       status = USBH_NOT_SUPPORTED;
 718:Middlewares/ST/STM32_USB_Host_Library/Core/Src/usbh_ctlreq.c **** #if (USBH_USE_OS == 1)
 719:Middlewares/ST/STM32_USB_Host_Library/Core/Src/usbh_ctlreq.c ****     osMessagePut ( phost->os_event, USBH_CONTROL_EVENT, 0);
 720:Middlewares/ST/STM32_USB_Host_Library/Core/Src/usbh_ctlreq.c **** #endif      
 721:Middlewares/ST/STM32_USB_Host_Library/Core/Src/usbh_ctlreq.c ****     } 
 722:Middlewares/ST/STM32_USB_Host_Library/Core/Src/usbh_ctlreq.c ****     else if  (URB_Status == USBH_URB_NOTREADY)
 723:Middlewares/ST/STM32_USB_Host_Library/Core/Src/usbh_ctlreq.c ****     { 
 724:Middlewares/ST/STM32_USB_Host_Library/Core/Src/usbh_ctlreq.c ****       /* Nack received from device */
 725:Middlewares/ST/STM32_USB_Host_Library/Core/Src/usbh_ctlreq.c ****       phost->Control.state = CTRL_DATA_OUT;
 726:Middlewares/ST/STM32_USB_Host_Library/Core/Src/usbh_ctlreq.c ****       
 727:Middlewares/ST/STM32_USB_Host_Library/Core/Src/usbh_ctlreq.c **** #if (USBH_USE_OS == 1)
 728:Middlewares/ST/STM32_USB_Host_Library/Core/Src/usbh_ctlreq.c ****     osMessagePut ( phost->os_event, USBH_CONTROL_EVENT, 0);
 729:Middlewares/ST/STM32_USB_Host_Library/Core/Src/usbh_ctlreq.c **** #endif      
 730:Middlewares/ST/STM32_USB_Host_Library/Core/Src/usbh_ctlreq.c ****     }    
 731:Middlewares/ST/STM32_USB_Host_Library/Core/Src/usbh_ctlreq.c ****     else if (URB_Status == USBH_URB_ERROR)
 732:Middlewares/ST/STM32_USB_Host_Library/Core/Src/usbh_ctlreq.c ****     {
 733:Middlewares/ST/STM32_USB_Host_Library/Core/Src/usbh_ctlreq.c ****       /* device error */
 734:Middlewares/ST/STM32_USB_Host_Library/Core/Src/usbh_ctlreq.c ****       phost->Control.state = CTRL_ERROR;  
 735:Middlewares/ST/STM32_USB_Host_Library/Core/Src/usbh_ctlreq.c ****       status = USBH_FAIL;    
 736:Middlewares/ST/STM32_USB_Host_Library/Core/Src/usbh_ctlreq.c ****       
 737:Middlewares/ST/STM32_USB_Host_Library/Core/Src/usbh_ctlreq.c **** #if (USBH_USE_OS == 1)
 738:Middlewares/ST/STM32_USB_Host_Library/Core/Src/usbh_ctlreq.c ****     osMessagePut ( phost->os_event, USBH_CONTROL_EVENT, 0);
 739:Middlewares/ST/STM32_USB_Host_Library/Core/Src/usbh_ctlreq.c **** #endif      
 740:Middlewares/ST/STM32_USB_Host_Library/Core/Src/usbh_ctlreq.c ****     } 
 741:Middlewares/ST/STM32_USB_Host_Library/Core/Src/usbh_ctlreq.c ****     break;
 742:Middlewares/ST/STM32_USB_Host_Library/Core/Src/usbh_ctlreq.c ****     
 743:Middlewares/ST/STM32_USB_Host_Library/Core/Src/usbh_ctlreq.c ****     
 744:Middlewares/ST/STM32_USB_Host_Library/Core/Src/usbh_ctlreq.c ****   case CTRL_STATUS_IN:
 745:Middlewares/ST/STM32_USB_Host_Library/Core/Src/usbh_ctlreq.c ****     /* Send 0 bytes out packet */
 746:Middlewares/ST/STM32_USB_Host_Library/Core/Src/usbh_ctlreq.c ****     USBH_CtlReceiveData (phost,
 747:Middlewares/ST/STM32_USB_Host_Library/Core/Src/usbh_ctlreq.c ****                          0,
 748:Middlewares/ST/STM32_USB_Host_Library/Core/Src/usbh_ctlreq.c ****                          0,
 749:Middlewares/ST/STM32_USB_Host_Library/Core/Src/usbh_ctlreq.c ****                          phost->Control.pipe_in);
 750:Middlewares/ST/STM32_USB_Host_Library/Core/Src/usbh_ctlreq.c ****     phost->Control.timer = phost->Timer;
 751:Middlewares/ST/STM32_USB_Host_Library/Core/Src/usbh_ctlreq.c ****     phost->Control.state = CTRL_STATUS_IN_WAIT;
 752:Middlewares/ST/STM32_USB_Host_Library/Core/Src/usbh_ctlreq.c ****     
 753:Middlewares/ST/STM32_USB_Host_Library/Core/Src/usbh_ctlreq.c ****     break;
 754:Middlewares/ST/STM32_USB_Host_Library/Core/Src/usbh_ctlreq.c ****     
 755:Middlewares/ST/STM32_USB_Host_Library/Core/Src/usbh_ctlreq.c ****   case CTRL_STATUS_IN_WAIT:
 756:Middlewares/ST/STM32_USB_Host_Library/Core/Src/usbh_ctlreq.c ****     
 757:Middlewares/ST/STM32_USB_Host_Library/Core/Src/usbh_ctlreq.c ****     URB_Status = USBH_LL_GetURBState(phost , phost->Control.pipe_in); 
 758:Middlewares/ST/STM32_USB_Host_Library/Core/Src/usbh_ctlreq.c ****     
 759:Middlewares/ST/STM32_USB_Host_Library/Core/Src/usbh_ctlreq.c ****     if  ( URB_Status == USBH_URB_DONE)
 760:Middlewares/ST/STM32_USB_Host_Library/Core/Src/usbh_ctlreq.c ****     { /* Control transfers completed, Exit the State Machine */
 761:Middlewares/ST/STM32_USB_Host_Library/Core/Src/usbh_ctlreq.c ****       phost->Control.state = CTRL_COMPLETE;
 762:Middlewares/ST/STM32_USB_Host_Library/Core/Src/usbh_ctlreq.c ****       status = USBH_OK;
 763:Middlewares/ST/STM32_USB_Host_Library/Core/Src/usbh_ctlreq.c **** #if (USBH_USE_OS == 1)
 764:Middlewares/ST/STM32_USB_Host_Library/Core/Src/usbh_ctlreq.c ****     osMessagePut ( phost->os_event, USBH_CONTROL_EVENT, 0);
 765:Middlewares/ST/STM32_USB_Host_Library/Core/Src/usbh_ctlreq.c **** #endif      
 766:Middlewares/ST/STM32_USB_Host_Library/Core/Src/usbh_ctlreq.c ****     }
 767:Middlewares/ST/STM32_USB_Host_Library/Core/Src/usbh_ctlreq.c ****     
 768:Middlewares/ST/STM32_USB_Host_Library/Core/Src/usbh_ctlreq.c ****     else if (URB_Status == USBH_URB_ERROR)
 769:Middlewares/ST/STM32_USB_Host_Library/Core/Src/usbh_ctlreq.c ****     {
 770:Middlewares/ST/STM32_USB_Host_Library/Core/Src/usbh_ctlreq.c ****       phost->Control.state = CTRL_ERROR;
ARM GAS  C:\Users\Student\AppData\Local\Temp\ccR1oIOQ.s 			page 20


 771:Middlewares/ST/STM32_USB_Host_Library/Core/Src/usbh_ctlreq.c **** #if (USBH_USE_OS == 1)
 772:Middlewares/ST/STM32_USB_Host_Library/Core/Src/usbh_ctlreq.c ****     osMessagePut ( phost->os_event, USBH_CONTROL_EVENT, 0);
 773:Middlewares/ST/STM32_USB_Host_Library/Core/Src/usbh_ctlreq.c **** #endif      
 774:Middlewares/ST/STM32_USB_Host_Library/Core/Src/usbh_ctlreq.c ****     }
 775:Middlewares/ST/STM32_USB_Host_Library/Core/Src/usbh_ctlreq.c ****      else if(URB_Status == USBH_URB_STALL)
 776:Middlewares/ST/STM32_USB_Host_Library/Core/Src/usbh_ctlreq.c ****     {
 777:Middlewares/ST/STM32_USB_Host_Library/Core/Src/usbh_ctlreq.c ****       /* Control transfers completed, Exit the State Machine */
 778:Middlewares/ST/STM32_USB_Host_Library/Core/Src/usbh_ctlreq.c ****       status = USBH_NOT_SUPPORTED;
 779:Middlewares/ST/STM32_USB_Host_Library/Core/Src/usbh_ctlreq.c ****       
 780:Middlewares/ST/STM32_USB_Host_Library/Core/Src/usbh_ctlreq.c **** #if (USBH_USE_OS == 1)
 781:Middlewares/ST/STM32_USB_Host_Library/Core/Src/usbh_ctlreq.c ****     osMessagePut ( phost->os_event, USBH_CONTROL_EVENT, 0);
 782:Middlewares/ST/STM32_USB_Host_Library/Core/Src/usbh_ctlreq.c **** #endif      
 783:Middlewares/ST/STM32_USB_Host_Library/Core/Src/usbh_ctlreq.c ****     }
 784:Middlewares/ST/STM32_USB_Host_Library/Core/Src/usbh_ctlreq.c ****     break;
 785:Middlewares/ST/STM32_USB_Host_Library/Core/Src/usbh_ctlreq.c ****     
 786:Middlewares/ST/STM32_USB_Host_Library/Core/Src/usbh_ctlreq.c ****   case CTRL_STATUS_OUT:
 787:Middlewares/ST/STM32_USB_Host_Library/Core/Src/usbh_ctlreq.c ****     USBH_CtlSendData (phost,
 788:Middlewares/ST/STM32_USB_Host_Library/Core/Src/usbh_ctlreq.c ****                       0,
 789:Middlewares/ST/STM32_USB_Host_Library/Core/Src/usbh_ctlreq.c ****                       0,
 790:Middlewares/ST/STM32_USB_Host_Library/Core/Src/usbh_ctlreq.c ****                       phost->Control.pipe_out,
 791:Middlewares/ST/STM32_USB_Host_Library/Core/Src/usbh_ctlreq.c ****                       1);
 792:Middlewares/ST/STM32_USB_Host_Library/Core/Src/usbh_ctlreq.c ****      phost->Control.timer = phost->Timer;
 793:Middlewares/ST/STM32_USB_Host_Library/Core/Src/usbh_ctlreq.c ****     phost->Control.state = CTRL_STATUS_OUT_WAIT;
 794:Middlewares/ST/STM32_USB_Host_Library/Core/Src/usbh_ctlreq.c ****     break;
 795:Middlewares/ST/STM32_USB_Host_Library/Core/Src/usbh_ctlreq.c ****     
 796:Middlewares/ST/STM32_USB_Host_Library/Core/Src/usbh_ctlreq.c ****   case CTRL_STATUS_OUT_WAIT: 
 797:Middlewares/ST/STM32_USB_Host_Library/Core/Src/usbh_ctlreq.c ****     
 798:Middlewares/ST/STM32_USB_Host_Library/Core/Src/usbh_ctlreq.c ****     URB_Status = USBH_LL_GetURBState(phost , phost->Control.pipe_out);  
 799:Middlewares/ST/STM32_USB_Host_Library/Core/Src/usbh_ctlreq.c ****     if  (URB_Status == USBH_URB_DONE)
 800:Middlewares/ST/STM32_USB_Host_Library/Core/Src/usbh_ctlreq.c ****     { 
 801:Middlewares/ST/STM32_USB_Host_Library/Core/Src/usbh_ctlreq.c ****       status = USBH_OK;      
 802:Middlewares/ST/STM32_USB_Host_Library/Core/Src/usbh_ctlreq.c ****       phost->Control.state = CTRL_COMPLETE; 
 803:Middlewares/ST/STM32_USB_Host_Library/Core/Src/usbh_ctlreq.c ****       
 804:Middlewares/ST/STM32_USB_Host_Library/Core/Src/usbh_ctlreq.c **** #if (USBH_USE_OS == 1)
 805:Middlewares/ST/STM32_USB_Host_Library/Core/Src/usbh_ctlreq.c ****     osMessagePut ( phost->os_event, USBH_CONTROL_EVENT, 0);
 806:Middlewares/ST/STM32_USB_Host_Library/Core/Src/usbh_ctlreq.c **** #endif      
 807:Middlewares/ST/STM32_USB_Host_Library/Core/Src/usbh_ctlreq.c ****     }
 808:Middlewares/ST/STM32_USB_Host_Library/Core/Src/usbh_ctlreq.c ****     else if  (URB_Status == USBH_URB_NOTREADY)
 809:Middlewares/ST/STM32_USB_Host_Library/Core/Src/usbh_ctlreq.c ****     { 
 810:Middlewares/ST/STM32_USB_Host_Library/Core/Src/usbh_ctlreq.c ****       phost->Control.state = CTRL_STATUS_OUT;
 811:Middlewares/ST/STM32_USB_Host_Library/Core/Src/usbh_ctlreq.c ****       
 812:Middlewares/ST/STM32_USB_Host_Library/Core/Src/usbh_ctlreq.c **** #if (USBH_USE_OS == 1)
 813:Middlewares/ST/STM32_USB_Host_Library/Core/Src/usbh_ctlreq.c ****     osMessagePut ( phost->os_event, USBH_CONTROL_EVENT, 0);
 814:Middlewares/ST/STM32_USB_Host_Library/Core/Src/usbh_ctlreq.c **** #endif      
 815:Middlewares/ST/STM32_USB_Host_Library/Core/Src/usbh_ctlreq.c ****     }      
 816:Middlewares/ST/STM32_USB_Host_Library/Core/Src/usbh_ctlreq.c ****     else if (URB_Status == USBH_URB_ERROR)
 817:Middlewares/ST/STM32_USB_Host_Library/Core/Src/usbh_ctlreq.c ****     {
 818:Middlewares/ST/STM32_USB_Host_Library/Core/Src/usbh_ctlreq.c ****       phost->Control.state = CTRL_ERROR; 
 819:Middlewares/ST/STM32_USB_Host_Library/Core/Src/usbh_ctlreq.c ****       
 820:Middlewares/ST/STM32_USB_Host_Library/Core/Src/usbh_ctlreq.c **** #if (USBH_USE_OS == 1)
 821:Middlewares/ST/STM32_USB_Host_Library/Core/Src/usbh_ctlreq.c ****     osMessagePut ( phost->os_event, USBH_CONTROL_EVENT, 0);
 822:Middlewares/ST/STM32_USB_Host_Library/Core/Src/usbh_ctlreq.c **** #endif      
 823:Middlewares/ST/STM32_USB_Host_Library/Core/Src/usbh_ctlreq.c ****     }
 824:Middlewares/ST/STM32_USB_Host_Library/Core/Src/usbh_ctlreq.c ****     break;
 825:Middlewares/ST/STM32_USB_Host_Library/Core/Src/usbh_ctlreq.c ****     
 826:Middlewares/ST/STM32_USB_Host_Library/Core/Src/usbh_ctlreq.c ****   case CTRL_ERROR:
 827:Middlewares/ST/STM32_USB_Host_Library/Core/Src/usbh_ctlreq.c ****     /* 
ARM GAS  C:\Users\Student\AppData\Local\Temp\ccR1oIOQ.s 			page 21


 828:Middlewares/ST/STM32_USB_Host_Library/Core/Src/usbh_ctlreq.c ****     After a halt condition is encountered or an error is detected by the 
 829:Middlewares/ST/STM32_USB_Host_Library/Core/Src/usbh_ctlreq.c ****     host, a control endpoint is allowed to recover by accepting the next Setup 
 830:Middlewares/ST/STM32_USB_Host_Library/Core/Src/usbh_ctlreq.c ****     PID; i.e., recovery actions via some other pipe are not required for control
 831:Middlewares/ST/STM32_USB_Host_Library/Core/Src/usbh_ctlreq.c ****     endpoints. For the Default Control Pipe, a device reset will ultimately be 
 832:Middlewares/ST/STM32_USB_Host_Library/Core/Src/usbh_ctlreq.c ****     required to clear the halt or error condition if the next Setup PID is not 
 833:Middlewares/ST/STM32_USB_Host_Library/Core/Src/usbh_ctlreq.c ****     accepted.
 834:Middlewares/ST/STM32_USB_Host_Library/Core/Src/usbh_ctlreq.c ****     */
 835:Middlewares/ST/STM32_USB_Host_Library/Core/Src/usbh_ctlreq.c ****     if (++ phost->Control.errorcount <= USBH_MAX_ERROR_COUNT)
 836:Middlewares/ST/STM32_USB_Host_Library/Core/Src/usbh_ctlreq.c ****     {
 837:Middlewares/ST/STM32_USB_Host_Library/Core/Src/usbh_ctlreq.c ****       /* try to recover control */
 838:Middlewares/ST/STM32_USB_Host_Library/Core/Src/usbh_ctlreq.c ****       USBH_LL_Stop(phost);
 839:Middlewares/ST/STM32_USB_Host_Library/Core/Src/usbh_ctlreq.c ****          
 840:Middlewares/ST/STM32_USB_Host_Library/Core/Src/usbh_ctlreq.c ****       /* Do the transmission again, starting from SETUP Packet */
 841:Middlewares/ST/STM32_USB_Host_Library/Core/Src/usbh_ctlreq.c ****       phost->Control.state = CTRL_SETUP; 
 842:Middlewares/ST/STM32_USB_Host_Library/Core/Src/usbh_ctlreq.c ****       phost->RequestState = CMD_SEND;
 843:Middlewares/ST/STM32_USB_Host_Library/Core/Src/usbh_ctlreq.c ****     }
 844:Middlewares/ST/STM32_USB_Host_Library/Core/Src/usbh_ctlreq.c ****     else
 845:Middlewares/ST/STM32_USB_Host_Library/Core/Src/usbh_ctlreq.c ****     {
 846:Middlewares/ST/STM32_USB_Host_Library/Core/Src/usbh_ctlreq.c ****       phost->pUser(phost, HOST_USER_UNRECOVERED_ERROR);
 847:Middlewares/ST/STM32_USB_Host_Library/Core/Src/usbh_ctlreq.c ****       phost->Control.errorcount = 0;
 848:Middlewares/ST/STM32_USB_Host_Library/Core/Src/usbh_ctlreq.c ****       USBH_ErrLog("Control error");
 849:Middlewares/ST/STM32_USB_Host_Library/Core/Src/usbh_ctlreq.c ****       status = USBH_FAIL;
 850:Middlewares/ST/STM32_USB_Host_Library/Core/Src/usbh_ctlreq.c ****     }
 851:Middlewares/ST/STM32_USB_Host_Library/Core/Src/usbh_ctlreq.c ****     break;
 852:Middlewares/ST/STM32_USB_Host_Library/Core/Src/usbh_ctlreq.c ****     
 853:Middlewares/ST/STM32_USB_Host_Library/Core/Src/usbh_ctlreq.c ****   default:
 854:Middlewares/ST/STM32_USB_Host_Library/Core/Src/usbh_ctlreq.c ****     break;
 855:Middlewares/ST/STM32_USB_Host_Library/Core/Src/usbh_ctlreq.c ****   }
 856:Middlewares/ST/STM32_USB_Host_Library/Core/Src/usbh_ctlreq.c ****   return status;
 857:Middlewares/ST/STM32_USB_Host_Library/Core/Src/usbh_ctlreq.c **** }
 315              		.loc 1 857 0
 316 003a 03B0     		add	sp, sp, #12
 317              	.LCFI6:
 318              		.cfi_remember_state
 319              		.cfi_def_cfa_offset 12
 320              		@ sp needed
 321 003c 30BD     		pop	{r4, r5, pc}
 322              	.LVL19:
 323              	.L20:
 324              	.LCFI7:
 325              		.cfi_restore_state
 598:Middlewares/ST/STM32_USB_Host_Library/Core/Src/usbh_ctlreq.c ****     /* case SETUP packet sent successfully */
 326              		.loc 1 598 0
 327 003e 4179     		ldrb	r1, [r0, #5]	@ zero_extendqisi2
 328 0040 FFF7FEFF 		bl	USBH_LL_GetURBState
 329              	.LVL20:
 600:Middlewares/ST/STM32_USB_Host_Library/Core/Src/usbh_ctlreq.c ****     { 
 330              		.loc 1 600 0
 331 0044 0128     		cmp	r0, #1
 332 0046 03D0     		beq	.L52
 637:Middlewares/ST/STM32_USB_Host_Library/Core/Src/usbh_ctlreq.c ****     {
 333              		.loc 1 637 0
 334 0048 0428     		cmp	r0, #4
 335 004a 1DD0     		beq	.L53
 582:Middlewares/ST/STM32_USB_Host_Library/Core/Src/usbh_ctlreq.c ****   USBH_URBStateTypeDef URB_Status = USBH_URB_IDLE;
 336              		.loc 1 582 0
 337 004c 0120     		movs	r0, #1
ARM GAS  C:\Users\Student\AppData\Local\Temp\ccR1oIOQ.s 			page 22


 338              	.LVL21:
 339 004e F4E7     		b	.L17
 340              	.LVL22:
 341              	.L52:
 602:Middlewares/ST/STM32_USB_Host_Library/Core/Src/usbh_ctlreq.c ****       
 342              		.loc 1 602 0
 343 0050 227C     		ldrb	r2, [r4, #16]	@ zero_extendqisi2
 344              	.LVL23:
 605:Middlewares/ST/STM32_USB_Host_Library/Core/Src/usbh_ctlreq.c ****       {        
 345              		.loc 1 605 0
 346 0052 E38A     		ldrh	r3, [r4, #22]
 347 0054 7BB1     		cbz	r3, .L31
 607:Middlewares/ST/STM32_USB_Host_Library/Core/Src/usbh_ctlreq.c ****         {
 348              		.loc 1 607 0
 349 0056 12F0800F 		tst	r2, #128
 350 005a 09D1     		bne	.L54
 615:Middlewares/ST/STM32_USB_Host_Library/Core/Src/usbh_ctlreq.c ****         } 
 351              		.loc 1 615 0
 352 005c 0523     		movs	r3, #5
 353 005e 2376     		strb	r3, [r4, #24]
 354              	.L33:
 634:Middlewares/ST/STM32_USB_Host_Library/Core/Src/usbh_ctlreq.c **** #endif
 355              		.loc 1 634 0
 356 0060 0022     		movs	r2, #0
 357              	.LVL24:
 358 0062 0321     		movs	r1, #3
 359 0064 D4F8C803 		ldr	r0, [r4, #968]
 360              	.LVL25:
 361 0068 FFF7FEFF 		bl	osMessagePut
 362              	.LVL26:
 582:Middlewares/ST/STM32_USB_Host_Library/Core/Src/usbh_ctlreq.c ****   USBH_URBStateTypeDef URB_Status = USBH_URB_IDLE;
 363              		.loc 1 582 0
 364 006c 0120     		movs	r0, #1
 365 006e E4E7     		b	.L17
 366              	.LVL27:
 367              	.L54:
 610:Middlewares/ST/STM32_USB_Host_Library/Core/Src/usbh_ctlreq.c ****         }
 368              		.loc 1 610 0
 369 0070 0323     		movs	r3, #3
 370 0072 2376     		strb	r3, [r4, #24]
 371 0074 F4E7     		b	.L33
 372              	.L31:
 622:Middlewares/ST/STM32_USB_Host_Library/Core/Src/usbh_ctlreq.c ****         {
 373              		.loc 1 622 0
 374 0076 12F0800F 		tst	r2, #128
 375 007a 02D1     		bne	.L55
 630:Middlewares/ST/STM32_USB_Host_Library/Core/Src/usbh_ctlreq.c ****         } 
 376              		.loc 1 630 0
 377 007c 0723     		movs	r3, #7
 378 007e 2376     		strb	r3, [r4, #24]
 379 0080 EEE7     		b	.L33
 380              	.L55:
 625:Middlewares/ST/STM32_USB_Host_Library/Core/Src/usbh_ctlreq.c ****         }
 381              		.loc 1 625 0
 382 0082 0923     		movs	r3, #9
 383 0084 2376     		strb	r3, [r4, #24]
 384 0086 EBE7     		b	.L33
ARM GAS  C:\Users\Student\AppData\Local\Temp\ccR1oIOQ.s 			page 23


 385              	.LVL28:
 386              	.L53:
 639:Middlewares/ST/STM32_USB_Host_Library/Core/Src/usbh_ctlreq.c **** #if (USBH_USE_OS == 1)
 387              		.loc 1 639 0
 388 0088 0B23     		movs	r3, #11
 389 008a 2376     		strb	r3, [r4, #24]
 641:Middlewares/ST/STM32_USB_Host_Library/Core/Src/usbh_ctlreq.c **** #endif      
 390              		.loc 1 641 0
 391 008c 0022     		movs	r2, #0
 392 008e 0321     		movs	r1, #3
 393 0090 D4F8C803 		ldr	r0, [r4, #968]
 394              	.LVL29:
 395 0094 FFF7FEFF 		bl	osMessagePut
 396              	.LVL30:
 582:Middlewares/ST/STM32_USB_Host_Library/Core/Src/usbh_ctlreq.c ****   USBH_URBStateTypeDef URB_Status = USBH_URB_IDLE;
 397              		.loc 1 582 0
 398 0098 0120     		movs	r0, #1
 399 009a CEE7     		b	.L17
 400              	.LVL31:
 401              	.L21:
 648:Middlewares/ST/STM32_USB_Host_Library/Core/Src/usbh_ctlreq.c ****     USBH_CtlReceiveData(phost,
 402              		.loc 1 648 0
 403 009c D0F8B833 		ldr	r3, [r0, #952]
 404 00a0 C381     		strh	r3, [r0, #14]	@ movhi
 649:Middlewares/ST/STM32_USB_Host_Library/Core/Src/usbh_ctlreq.c ****                         phost->Control.buff, 
 405              		.loc 1 649 0
 406 00a2 0379     		ldrb	r3, [r0, #4]	@ zero_extendqisi2
 407 00a4 8289     		ldrh	r2, [r0, #12]
 408 00a6 8168     		ldr	r1, [r0, #8]
 409 00a8 FFF7FEFF 		bl	USBH_CtlReceiveData
 410              	.LVL32:
 654:Middlewares/ST/STM32_USB_Host_Library/Core/Src/usbh_ctlreq.c ****     break;    
 411              		.loc 1 654 0
 412 00ac 0423     		movs	r3, #4
 413 00ae 2376     		strb	r3, [r4, #24]
 582:Middlewares/ST/STM32_USB_Host_Library/Core/Src/usbh_ctlreq.c ****   USBH_URBStateTypeDef URB_Status = USBH_URB_IDLE;
 414              		.loc 1 582 0
 415 00b0 0120     		movs	r0, #1
 655:Middlewares/ST/STM32_USB_Host_Library/Core/Src/usbh_ctlreq.c ****     
 416              		.loc 1 655 0
 417 00b2 C2E7     		b	.L17
 418              	.LVL33:
 419              	.L22:
 659:Middlewares/ST/STM32_USB_Host_Library/Core/Src/usbh_ctlreq.c ****     
 420              		.loc 1 659 0
 421 00b4 0179     		ldrb	r1, [r0, #4]	@ zero_extendqisi2
 422 00b6 FFF7FEFF 		bl	USBH_LL_GetURBState
 423              	.LVL34:
 424 00ba 0546     		mov	r5, r0
 425              	.LVL35:
 662:Middlewares/ST/STM32_USB_Host_Library/Core/Src/usbh_ctlreq.c ****     { 
 426              		.loc 1 662 0
 427 00bc 0128     		cmp	r0, #1
 428 00be 05D0     		beq	.L56
 429              	.LVL36:
 430              	.L35:
 671:Middlewares/ST/STM32_USB_Host_Library/Core/Src/usbh_ctlreq.c ****     { 
ARM GAS  C:\Users\Student\AppData\Local\Temp\ccR1oIOQ.s 			page 24


 431              		.loc 1 671 0
 432 00c0 052D     		cmp	r5, #5
 433 00c2 0CD0     		beq	.L57
 679:Middlewares/ST/STM32_USB_Host_Library/Core/Src/usbh_ctlreq.c ****     {
 434              		.loc 1 679 0
 435 00c4 042D     		cmp	r5, #4
 436 00c6 12D0     		beq	.L58
 582:Middlewares/ST/STM32_USB_Host_Library/Core/Src/usbh_ctlreq.c ****   USBH_URBStateTypeDef URB_Status = USBH_URB_IDLE;
 437              		.loc 1 582 0
 438 00c8 0120     		movs	r0, #1
 439 00ca B6E7     		b	.L17
 440              	.LVL37:
 441              	.L56:
 664:Middlewares/ST/STM32_USB_Host_Library/Core/Src/usbh_ctlreq.c **** #if (USBH_USE_OS == 1)
 442              		.loc 1 664 0
 443 00cc 0923     		movs	r3, #9
 444 00ce 2376     		strb	r3, [r4, #24]
 666:Middlewares/ST/STM32_USB_Host_Library/Core/Src/usbh_ctlreq.c **** #endif      
 445              		.loc 1 666 0
 446 00d0 0022     		movs	r2, #0
 447 00d2 0321     		movs	r1, #3
 448 00d4 D4F8C803 		ldr	r0, [r4, #968]
 449              	.LVL38:
 450 00d8 FFF7FEFF 		bl	osMessagePut
 451              	.LVL39:
 452 00dc F0E7     		b	.L35
 453              	.L57:
 454              	.LVL40:
 676:Middlewares/ST/STM32_USB_Host_Library/Core/Src/usbh_ctlreq.c **** #endif      
 455              		.loc 1 676 0
 456 00de 0022     		movs	r2, #0
 457 00e0 0321     		movs	r1, #3
 458 00e2 D4F8C803 		ldr	r0, [r4, #968]
 459 00e6 FFF7FEFF 		bl	osMessagePut
 460              	.LVL41:
 674:Middlewares/ST/STM32_USB_Host_Library/Core/Src/usbh_ctlreq.c **** #if (USBH_USE_OS == 1)
 461              		.loc 1 674 0
 462 00ea 0320     		movs	r0, #3
 463 00ec A5E7     		b	.L17
 464              	.LVL42:
 465              	.L58:
 682:Middlewares/ST/STM32_USB_Host_Library/Core/Src/usbh_ctlreq.c **** #if (USBH_USE_OS == 1)
 466              		.loc 1 682 0
 467 00ee 0B23     		movs	r3, #11
 468 00f0 2376     		strb	r3, [r4, #24]
 684:Middlewares/ST/STM32_USB_Host_Library/Core/Src/usbh_ctlreq.c **** #endif      
 469              		.loc 1 684 0
 470 00f2 0022     		movs	r2, #0
 471 00f4 0321     		movs	r1, #3
 472 00f6 D4F8C803 		ldr	r0, [r4, #968]
 473 00fa FFF7FEFF 		bl	osMessagePut
 474              	.LVL43:
 582:Middlewares/ST/STM32_USB_Host_Library/Core/Src/usbh_ctlreq.c ****   USBH_URBStateTypeDef URB_Status = USBH_URB_IDLE;
 475              		.loc 1 582 0
 476 00fe 0120     		movs	r0, #1
 477 0100 9BE7     		b	.L17
 478              	.LVL44:
ARM GAS  C:\Users\Student\AppData\Local\Temp\ccR1oIOQ.s 			page 25


 479              	.L23:
 691:Middlewares/ST/STM32_USB_Host_Library/Core/Src/usbh_ctlreq.c ****                       phost->Control.buff, 
 480              		.loc 1 691 0
 481 0102 4379     		ldrb	r3, [r0, #5]	@ zero_extendqisi2
 482 0104 8289     		ldrh	r2, [r0, #12]
 483 0106 0125     		movs	r5, #1
 484 0108 0095     		str	r5, [sp]
 485 010a 8168     		ldr	r1, [r0, #8]
 486 010c FFF7FEFF 		bl	USBH_CtlSendData
 487              	.LVL45:
 696:Middlewares/ST/STM32_USB_Host_Library/Core/Src/usbh_ctlreq.c ****     phost->Control.state = CTRL_DATA_OUT_WAIT;
 488              		.loc 1 696 0
 489 0110 D4F8B833 		ldr	r3, [r4, #952]
 490 0114 E381     		strh	r3, [r4, #14]	@ movhi
 697:Middlewares/ST/STM32_USB_Host_Library/Core/Src/usbh_ctlreq.c ****     break;
 491              		.loc 1 697 0
 492 0116 0623     		movs	r3, #6
 493 0118 2376     		strb	r3, [r4, #24]
 582:Middlewares/ST/STM32_USB_Host_Library/Core/Src/usbh_ctlreq.c ****   USBH_URBStateTypeDef URB_Status = USBH_URB_IDLE;
 494              		.loc 1 582 0
 495 011a 2846     		mov	r0, r5
 698:Middlewares/ST/STM32_USB_Host_Library/Core/Src/usbh_ctlreq.c ****     
 496              		.loc 1 698 0
 497 011c 8DE7     		b	.L17
 498              	.LVL46:
 499              	.L24:
 702:Middlewares/ST/STM32_USB_Host_Library/Core/Src/usbh_ctlreq.c ****     
 500              		.loc 1 702 0
 501 011e 4179     		ldrb	r1, [r0, #5]	@ zero_extendqisi2
 502 0120 FFF7FEFF 		bl	USBH_LL_GetURBState
 503              	.LVL47:
 704:Middlewares/ST/STM32_USB_Host_Library/Core/Src/usbh_ctlreq.c ****     { /* If the Setup Pkt is sent successful, then change the state */
 504              		.loc 1 704 0
 505 0124 0128     		cmp	r0, #1
 506 0126 07D0     		beq	.L59
 713:Middlewares/ST/STM32_USB_Host_Library/Core/Src/usbh_ctlreq.c ****     { 
 507              		.loc 1 713 0
 508 0128 0528     		cmp	r0, #5
 509 012a 0FD0     		beq	.L60
 722:Middlewares/ST/STM32_USB_Host_Library/Core/Src/usbh_ctlreq.c ****     { 
 510              		.loc 1 722 0
 511 012c 0228     		cmp	r0, #2
 512 012e 17D0     		beq	.L61
 731:Middlewares/ST/STM32_USB_Host_Library/Core/Src/usbh_ctlreq.c ****     {
 513              		.loc 1 731 0
 514 0130 0428     		cmp	r0, #4
 515 0132 1FD0     		beq	.L62
 582:Middlewares/ST/STM32_USB_Host_Library/Core/Src/usbh_ctlreq.c ****   USBH_URBStateTypeDef URB_Status = USBH_URB_IDLE;
 516              		.loc 1 582 0
 517 0134 0120     		movs	r0, #1
 518              	.LVL48:
 519 0136 80E7     		b	.L17
 520              	.LVL49:
 521              	.L59:
 706:Middlewares/ST/STM32_USB_Host_Library/Core/Src/usbh_ctlreq.c **** #if (USBH_USE_OS == 1)
 522              		.loc 1 706 0
 523 0138 0723     		movs	r3, #7
ARM GAS  C:\Users\Student\AppData\Local\Temp\ccR1oIOQ.s 			page 26


 524 013a 2376     		strb	r3, [r4, #24]
 708:Middlewares/ST/STM32_USB_Host_Library/Core/Src/usbh_ctlreq.c **** #endif      
 525              		.loc 1 708 0
 526 013c 0022     		movs	r2, #0
 527 013e 0321     		movs	r1, #3
 528 0140 D4F8C803 		ldr	r0, [r4, #968]
 529              	.LVL50:
 530 0144 FFF7FEFF 		bl	osMessagePut
 531              	.LVL51:
 582:Middlewares/ST/STM32_USB_Host_Library/Core/Src/usbh_ctlreq.c ****   USBH_URBStateTypeDef URB_Status = USBH_URB_IDLE;
 532              		.loc 1 582 0
 533 0148 0120     		movs	r0, #1
 534 014a 76E7     		b	.L17
 535              	.LVL52:
 536              	.L60:
 716:Middlewares/ST/STM32_USB_Host_Library/Core/Src/usbh_ctlreq.c ****       status = USBH_NOT_SUPPORTED;
 537              		.loc 1 716 0
 538 014c 0C23     		movs	r3, #12
 539 014e 2376     		strb	r3, [r4, #24]
 540              	.LVL53:
 719:Middlewares/ST/STM32_USB_Host_Library/Core/Src/usbh_ctlreq.c **** #endif      
 541              		.loc 1 719 0
 542 0150 0022     		movs	r2, #0
 543 0152 0321     		movs	r1, #3
 544 0154 D4F8C803 		ldr	r0, [r4, #968]
 545              	.LVL54:
 546 0158 FFF7FEFF 		bl	osMessagePut
 547              	.LVL55:
 717:Middlewares/ST/STM32_USB_Host_Library/Core/Src/usbh_ctlreq.c **** #if (USBH_USE_OS == 1)
 548              		.loc 1 717 0
 549 015c 0320     		movs	r0, #3
 550 015e 6CE7     		b	.L17
 551              	.LVL56:
 552              	.L61:
 725:Middlewares/ST/STM32_USB_Host_Library/Core/Src/usbh_ctlreq.c ****       
 553              		.loc 1 725 0
 554 0160 0523     		movs	r3, #5
 555 0162 2376     		strb	r3, [r4, #24]
 728:Middlewares/ST/STM32_USB_Host_Library/Core/Src/usbh_ctlreq.c **** #endif      
 556              		.loc 1 728 0
 557 0164 0022     		movs	r2, #0
 558 0166 0321     		movs	r1, #3
 559 0168 D4F8C803 		ldr	r0, [r4, #968]
 560              	.LVL57:
 561 016c FFF7FEFF 		bl	osMessagePut
 562              	.LVL58:
 582:Middlewares/ST/STM32_USB_Host_Library/Core/Src/usbh_ctlreq.c ****   USBH_URBStateTypeDef URB_Status = USBH_URB_IDLE;
 563              		.loc 1 582 0
 564 0170 0120     		movs	r0, #1
 565 0172 62E7     		b	.L17
 566              	.LVL59:
 567              	.L62:
 734:Middlewares/ST/STM32_USB_Host_Library/Core/Src/usbh_ctlreq.c ****       status = USBH_FAIL;    
 568              		.loc 1 734 0
 569 0174 0B23     		movs	r3, #11
 570 0176 2376     		strb	r3, [r4, #24]
 571              	.LVL60:
ARM GAS  C:\Users\Student\AppData\Local\Temp\ccR1oIOQ.s 			page 27


 738:Middlewares/ST/STM32_USB_Host_Library/Core/Src/usbh_ctlreq.c **** #endif      
 572              		.loc 1 738 0
 573 0178 0022     		movs	r2, #0
 574 017a 0321     		movs	r1, #3
 575 017c D4F8C803 		ldr	r0, [r4, #968]
 576              	.LVL61:
 577 0180 FFF7FEFF 		bl	osMessagePut
 578              	.LVL62:
 735:Middlewares/ST/STM32_USB_Host_Library/Core/Src/usbh_ctlreq.c ****       
 579              		.loc 1 735 0
 580 0184 0220     		movs	r0, #2
 581 0186 58E7     		b	.L17
 582              	.LVL63:
 583              	.L25:
 746:Middlewares/ST/STM32_USB_Host_Library/Core/Src/usbh_ctlreq.c ****                          0,
 584              		.loc 1 746 0
 585 0188 0379     		ldrb	r3, [r0, #4]	@ zero_extendqisi2
 586 018a 0022     		movs	r2, #0
 587 018c 1146     		mov	r1, r2
 588 018e FFF7FEFF 		bl	USBH_CtlReceiveData
 589              	.LVL64:
 750:Middlewares/ST/STM32_USB_Host_Library/Core/Src/usbh_ctlreq.c ****     phost->Control.state = CTRL_STATUS_IN_WAIT;
 590              		.loc 1 750 0
 591 0192 D4F8B833 		ldr	r3, [r4, #952]
 592 0196 E381     		strh	r3, [r4, #14]	@ movhi
 751:Middlewares/ST/STM32_USB_Host_Library/Core/Src/usbh_ctlreq.c ****     
 593              		.loc 1 751 0
 594 0198 0823     		movs	r3, #8
 595 019a 2376     		strb	r3, [r4, #24]
 582:Middlewares/ST/STM32_USB_Host_Library/Core/Src/usbh_ctlreq.c ****   USBH_URBStateTypeDef URB_Status = USBH_URB_IDLE;
 596              		.loc 1 582 0
 597 019c 0120     		movs	r0, #1
 753:Middlewares/ST/STM32_USB_Host_Library/Core/Src/usbh_ctlreq.c ****     
 598              		.loc 1 753 0
 599 019e 4CE7     		b	.L17
 600              	.LVL65:
 601              	.L26:
 757:Middlewares/ST/STM32_USB_Host_Library/Core/Src/usbh_ctlreq.c ****     
 602              		.loc 1 757 0
 603 01a0 0179     		ldrb	r1, [r0, #4]	@ zero_extendqisi2
 604 01a2 FFF7FEFF 		bl	USBH_LL_GetURBState
 605              	.LVL66:
 759:Middlewares/ST/STM32_USB_Host_Library/Core/Src/usbh_ctlreq.c ****     { /* Control transfers completed, Exit the State Machine */
 606              		.loc 1 759 0
 607 01a6 0128     		cmp	r0, #1
 608 01a8 05D0     		beq	.L63
 768:Middlewares/ST/STM32_USB_Host_Library/Core/Src/usbh_ctlreq.c ****     {
 609              		.loc 1 768 0
 610 01aa 0428     		cmp	r0, #4
 611 01ac 0DD0     		beq	.L64
 775:Middlewares/ST/STM32_USB_Host_Library/Core/Src/usbh_ctlreq.c ****     {
 612              		.loc 1 775 0
 613 01ae 0528     		cmp	r0, #5
 614 01b0 15D0     		beq	.L65
 582:Middlewares/ST/STM32_USB_Host_Library/Core/Src/usbh_ctlreq.c ****   USBH_URBStateTypeDef URB_Status = USBH_URB_IDLE;
 615              		.loc 1 582 0
 616 01b2 0120     		movs	r0, #1
ARM GAS  C:\Users\Student\AppData\Local\Temp\ccR1oIOQ.s 			page 28


 617              	.LVL67:
 618 01b4 41E7     		b	.L17
 619              	.LVL68:
 620              	.L63:
 761:Middlewares/ST/STM32_USB_Host_Library/Core/Src/usbh_ctlreq.c ****       status = USBH_OK;
 621              		.loc 1 761 0
 622 01b6 0D23     		movs	r3, #13
 623 01b8 2376     		strb	r3, [r4, #24]
 624              	.LVL69:
 764:Middlewares/ST/STM32_USB_Host_Library/Core/Src/usbh_ctlreq.c **** #endif      
 625              		.loc 1 764 0
 626 01ba 0022     		movs	r2, #0
 627 01bc 0321     		movs	r1, #3
 628 01be D4F8C803 		ldr	r0, [r4, #968]
 629              	.LVL70:
 630 01c2 FFF7FEFF 		bl	osMessagePut
 631              	.LVL71:
 762:Middlewares/ST/STM32_USB_Host_Library/Core/Src/usbh_ctlreq.c **** #if (USBH_USE_OS == 1)
 632              		.loc 1 762 0
 633 01c6 0020     		movs	r0, #0
 634 01c8 37E7     		b	.L17
 635              	.LVL72:
 636              	.L64:
 770:Middlewares/ST/STM32_USB_Host_Library/Core/Src/usbh_ctlreq.c **** #if (USBH_USE_OS == 1)
 637              		.loc 1 770 0
 638 01ca 0B23     		movs	r3, #11
 639 01cc 2376     		strb	r3, [r4, #24]
 772:Middlewares/ST/STM32_USB_Host_Library/Core/Src/usbh_ctlreq.c **** #endif      
 640              		.loc 1 772 0
 641 01ce 0022     		movs	r2, #0
 642 01d0 0321     		movs	r1, #3
 643 01d2 D4F8C803 		ldr	r0, [r4, #968]
 644              	.LVL73:
 645 01d6 FFF7FEFF 		bl	osMessagePut
 646              	.LVL74:
 582:Middlewares/ST/STM32_USB_Host_Library/Core/Src/usbh_ctlreq.c ****   USBH_URBStateTypeDef URB_Status = USBH_URB_IDLE;
 647              		.loc 1 582 0
 648 01da 0120     		movs	r0, #1
 649 01dc 2DE7     		b	.L17
 650              	.LVL75:
 651              	.L65:
 781:Middlewares/ST/STM32_USB_Host_Library/Core/Src/usbh_ctlreq.c **** #endif      
 652              		.loc 1 781 0
 653 01de 0022     		movs	r2, #0
 654 01e0 0321     		movs	r1, #3
 655 01e2 D4F8C803 		ldr	r0, [r4, #968]
 656              	.LVL76:
 657 01e6 FFF7FEFF 		bl	osMessagePut
 658              	.LVL77:
 778:Middlewares/ST/STM32_USB_Host_Library/Core/Src/usbh_ctlreq.c ****       
 659              		.loc 1 778 0
 660 01ea 0320     		movs	r0, #3
 661 01ec 25E7     		b	.L17
 662              	.LVL78:
 663              	.L27:
 787:Middlewares/ST/STM32_USB_Host_Library/Core/Src/usbh_ctlreq.c ****                       0,
 664              		.loc 1 787 0
ARM GAS  C:\Users\Student\AppData\Local\Temp\ccR1oIOQ.s 			page 29


 665 01ee 4379     		ldrb	r3, [r0, #5]	@ zero_extendqisi2
 666 01f0 0125     		movs	r5, #1
 667 01f2 0095     		str	r5, [sp]
 668 01f4 0022     		movs	r2, #0
 669 01f6 1146     		mov	r1, r2
 670 01f8 FFF7FEFF 		bl	USBH_CtlSendData
 671              	.LVL79:
 792:Middlewares/ST/STM32_USB_Host_Library/Core/Src/usbh_ctlreq.c ****     phost->Control.state = CTRL_STATUS_OUT_WAIT;
 672              		.loc 1 792 0
 673 01fc D4F8B833 		ldr	r3, [r4, #952]
 674 0200 E381     		strh	r3, [r4, #14]	@ movhi
 793:Middlewares/ST/STM32_USB_Host_Library/Core/Src/usbh_ctlreq.c ****     break;
 675              		.loc 1 793 0
 676 0202 0A23     		movs	r3, #10
 677 0204 2376     		strb	r3, [r4, #24]
 582:Middlewares/ST/STM32_USB_Host_Library/Core/Src/usbh_ctlreq.c ****   USBH_URBStateTypeDef URB_Status = USBH_URB_IDLE;
 678              		.loc 1 582 0
 679 0206 2846     		mov	r0, r5
 794:Middlewares/ST/STM32_USB_Host_Library/Core/Src/usbh_ctlreq.c ****     
 680              		.loc 1 794 0
 681 0208 17E7     		b	.L17
 682              	.LVL80:
 683              	.L28:
 798:Middlewares/ST/STM32_USB_Host_Library/Core/Src/usbh_ctlreq.c ****     if  (URB_Status == USBH_URB_DONE)
 684              		.loc 1 798 0
 685 020a 4179     		ldrb	r1, [r0, #5]	@ zero_extendqisi2
 686 020c FFF7FEFF 		bl	USBH_LL_GetURBState
 687              	.LVL81:
 799:Middlewares/ST/STM32_USB_Host_Library/Core/Src/usbh_ctlreq.c ****     { 
 688              		.loc 1 799 0
 689 0210 0128     		cmp	r0, #1
 690 0212 05D0     		beq	.L66
 808:Middlewares/ST/STM32_USB_Host_Library/Core/Src/usbh_ctlreq.c ****     { 
 691              		.loc 1 808 0
 692 0214 0228     		cmp	r0, #2
 693 0216 0DD0     		beq	.L67
 816:Middlewares/ST/STM32_USB_Host_Library/Core/Src/usbh_ctlreq.c ****     {
 694              		.loc 1 816 0
 695 0218 0428     		cmp	r0, #4
 696 021a 15D0     		beq	.L68
 582:Middlewares/ST/STM32_USB_Host_Library/Core/Src/usbh_ctlreq.c ****   USBH_URBStateTypeDef URB_Status = USBH_URB_IDLE;
 697              		.loc 1 582 0
 698 021c 0120     		movs	r0, #1
 699              	.LVL82:
 700 021e 0CE7     		b	.L17
 701              	.LVL83:
 702              	.L66:
 802:Middlewares/ST/STM32_USB_Host_Library/Core/Src/usbh_ctlreq.c ****       
 703              		.loc 1 802 0
 704 0220 0D23     		movs	r3, #13
 705 0222 2376     		strb	r3, [r4, #24]
 805:Middlewares/ST/STM32_USB_Host_Library/Core/Src/usbh_ctlreq.c **** #endif      
 706              		.loc 1 805 0
 707 0224 0022     		movs	r2, #0
 708 0226 0321     		movs	r1, #3
 709 0228 D4F8C803 		ldr	r0, [r4, #968]
 710              	.LVL84:
ARM GAS  C:\Users\Student\AppData\Local\Temp\ccR1oIOQ.s 			page 30


 711 022c FFF7FEFF 		bl	osMessagePut
 712              	.LVL85:
 801:Middlewares/ST/STM32_USB_Host_Library/Core/Src/usbh_ctlreq.c ****       phost->Control.state = CTRL_COMPLETE; 
 713              		.loc 1 801 0
 714 0230 0020     		movs	r0, #0
 715 0232 02E7     		b	.L17
 716              	.LVL86:
 717              	.L67:
 810:Middlewares/ST/STM32_USB_Host_Library/Core/Src/usbh_ctlreq.c ****       
 718              		.loc 1 810 0
 719 0234 0923     		movs	r3, #9
 720 0236 2376     		strb	r3, [r4, #24]
 813:Middlewares/ST/STM32_USB_Host_Library/Core/Src/usbh_ctlreq.c **** #endif      
 721              		.loc 1 813 0
 722 0238 0022     		movs	r2, #0
 723 023a 0321     		movs	r1, #3
 724 023c D4F8C803 		ldr	r0, [r4, #968]
 725              	.LVL87:
 726 0240 FFF7FEFF 		bl	osMessagePut
 727              	.LVL88:
 582:Middlewares/ST/STM32_USB_Host_Library/Core/Src/usbh_ctlreq.c ****   USBH_URBStateTypeDef URB_Status = USBH_URB_IDLE;
 728              		.loc 1 582 0
 729 0244 0120     		movs	r0, #1
 730 0246 F8E6     		b	.L17
 731              	.LVL89:
 732              	.L68:
 818:Middlewares/ST/STM32_USB_Host_Library/Core/Src/usbh_ctlreq.c ****       
 733              		.loc 1 818 0
 734 0248 0B23     		movs	r3, #11
 735 024a 2376     		strb	r3, [r4, #24]
 821:Middlewares/ST/STM32_USB_Host_Library/Core/Src/usbh_ctlreq.c **** #endif      
 736              		.loc 1 821 0
 737 024c 0022     		movs	r2, #0
 738 024e 0321     		movs	r1, #3
 739 0250 D4F8C803 		ldr	r0, [r4, #968]
 740              	.LVL90:
 741 0254 FFF7FEFF 		bl	osMessagePut
 742              	.LVL91:
 582:Middlewares/ST/STM32_USB_Host_Library/Core/Src/usbh_ctlreq.c ****   USBH_URBStateTypeDef URB_Status = USBH_URB_IDLE;
 743              		.loc 1 582 0
 744 0258 0120     		movs	r0, #1
 745 025a EEE6     		b	.L17
 746              	.LVL92:
 747              	.L29:
 835:Middlewares/ST/STM32_USB_Host_Library/Core/Src/usbh_ctlreq.c ****     {
 748              		.loc 1 835 0
 749 025c 437E     		ldrb	r3, [r0, #25]	@ zero_extendqisi2
 750 025e 0133     		adds	r3, r3, #1
 751 0260 DBB2     		uxtb	r3, r3
 752 0262 4376     		strb	r3, [r0, #25]
 753 0264 022B     		cmp	r3, #2
 754 0266 07D9     		bls	.L69
 846:Middlewares/ST/STM32_USB_Host_Library/Core/Src/usbh_ctlreq.c ****       phost->Control.errorcount = 0;
 755              		.loc 1 846 0
 756 0268 D0F8C433 		ldr	r3, [r0, #964]
 757 026c 0621     		movs	r1, #6
 758 026e 9847     		blx	r3
ARM GAS  C:\Users\Student\AppData\Local\Temp\ccR1oIOQ.s 			page 31


 759              	.LVL93:
 847:Middlewares/ST/STM32_USB_Host_Library/Core/Src/usbh_ctlreq.c ****       USBH_ErrLog("Control error");
 760              		.loc 1 847 0
 761 0270 0023     		movs	r3, #0
 762 0272 6376     		strb	r3, [r4, #25]
 763              	.LVL94:
 849:Middlewares/ST/STM32_USB_Host_Library/Core/Src/usbh_ctlreq.c ****     }
 764              		.loc 1 849 0
 765 0274 0220     		movs	r0, #2
 766 0276 E0E6     		b	.L17
 767              	.LVL95:
 768              	.L69:
 838:Middlewares/ST/STM32_USB_Host_Library/Core/Src/usbh_ctlreq.c ****          
 769              		.loc 1 838 0
 770 0278 FFF7FEFF 		bl	USBH_LL_Stop
 771              	.LVL96:
 841:Middlewares/ST/STM32_USB_Host_Library/Core/Src/usbh_ctlreq.c ****       phost->RequestState = CMD_SEND;
 772              		.loc 1 841 0
 773 027c 0120     		movs	r0, #1
 774 027e 2076     		strb	r0, [r4, #24]
 842:Middlewares/ST/STM32_USB_Host_Library/Core/Src/usbh_ctlreq.c ****     }
 775              		.loc 1 842 0
 776 0280 A070     		strb	r0, [r4, #2]
 777 0282 DAE6     		b	.L17
 778              	.LVL97:
 779              	.L45:
 582:Middlewares/ST/STM32_USB_Host_Library/Core/Src/usbh_ctlreq.c ****   USBH_URBStateTypeDef URB_Status = USBH_URB_IDLE;
 780              		.loc 1 582 0
 781 0284 0120     		movs	r0, #1
 782              	.LVL98:
 783 0286 D8E6     		b	.L17
 784              		.cfi_endproc
 785              	.LFE156:
 787              		.section	.text.USBH_GetNextDesc,"ax",%progbits
 788              		.align	1
 789              		.global	USBH_GetNextDesc
 790              		.syntax unified
 791              		.thumb
 792              		.thumb_func
 793              		.fpu fpv5-sp-d16
 795              	USBH_GetNextDesc:
 796              	.LFB154:
 508:Middlewares/ST/STM32_USB_Host_Library/Core/Src/usbh_ctlreq.c ****   USBH_DescHeader_t  *pnext;
 797              		.loc 1 508 0
 798              		.cfi_startproc
 799              		@ args = 0, pretend = 0, frame = 0
 800              		@ frame_needed = 0, uses_anonymous_args = 0
 801              		@ link register save eliminated.
 802              	.LVL99:
 511:Middlewares/ST/STM32_USB_Host_Library/Core/Src/usbh_ctlreq.c ****   pnext = (USBH_DescHeader_t *)((uint8_t *)pbuf + \
 803              		.loc 1 511 0
 804 0000 0378     		ldrb	r3, [r0]	@ zero_extendqisi2
 805 0002 0A88     		ldrh	r2, [r1]
 806 0004 1344     		add	r3, r3, r2
 807 0006 0B80     		strh	r3, [r1]	@ movhi
 513:Middlewares/ST/STM32_USB_Host_Library/Core/Src/usbh_ctlreq.c ****  
 808              		.loc 1 513 0
ARM GAS  C:\Users\Student\AppData\Local\Temp\ccR1oIOQ.s 			page 32


 809 0008 0378     		ldrb	r3, [r0]	@ zero_extendqisi2
 810              	.LVL100:
 516:Middlewares/ST/STM32_USB_Host_Library/Core/Src/usbh_ctlreq.c **** 
 811              		.loc 1 516 0
 812 000a 1844     		add	r0, r0, r3
 813              	.LVL101:
 814 000c 7047     		bx	lr
 815              		.cfi_endproc
 816              	.LFE154:
 818              		.section	.text.USBH_ParseCfgDesc,"ax",%progbits
 819              		.align	1
 820              		.syntax unified
 821              		.thumb
 822              		.thumb_func
 823              		.fpu fpv5-sp-d16
 825              	USBH_ParseCfgDesc:
 826              	.LFB150:
 367:Middlewares/ST/STM32_USB_Host_Library/Core/Src/usbh_ctlreq.c ****   USBH_InterfaceDescTypeDef    *pif ;
 827              		.loc 1 367 0
 828              		.cfi_startproc
 829              		@ args = 0, pretend = 0, frame = 8
 830              		@ frame_needed = 0, uses_anonymous_args = 0
 831              	.LVL102:
 832 0000 2DE9F043 		push	{r4, r5, r6, r7, r8, r9, lr}
 833              	.LCFI8:
 834              		.cfi_def_cfa_offset 28
 835              		.cfi_offset 4, -28
 836              		.cfi_offset 5, -24
 837              		.cfi_offset 6, -20
 838              		.cfi_offset 7, -16
 839              		.cfi_offset 8, -12
 840              		.cfi_offset 9, -8
 841              		.cfi_offset 14, -4
 842 0004 83B0     		sub	sp, sp, #12
 843              	.LCFI9:
 844              		.cfi_def_cfa_offset 40
 845              	.LVL103:
 378:Middlewares/ST/STM32_USB_Host_Library/Core/Src/usbh_ctlreq.c ****   cfg_desc->bDescriptorType     = *(uint8_t  *) (buf + 1);
 846              		.loc 1 378 0
 847 0006 0B78     		ldrb	r3, [r1]	@ zero_extendqisi2
 848 0008 0370     		strb	r3, [r0]
 379:Middlewares/ST/STM32_USB_Host_Library/Core/Src/usbh_ctlreq.c ****   cfg_desc->wTotalLength        = LE16 (buf + 2);
 849              		.loc 1 379 0
 850 000a 4B78     		ldrb	r3, [r1, #1]	@ zero_extendqisi2
 851 000c 4370     		strb	r3, [r0, #1]
 380:Middlewares/ST/STM32_USB_Host_Library/Core/Src/usbh_ctlreq.c ****   cfg_desc->bNumInterfaces      = *(uint8_t  *) (buf + 4);
 852              		.loc 1 380 0
 853 000e 8B78     		ldrb	r3, [r1, #2]	@ zero_extendqisi2
 854 0010 CC78     		ldrb	r4, [r1, #3]	@ zero_extendqisi2
 855 0012 03EB0423 		add	r3, r3, r4, lsl #8
 856 0016 4380     		strh	r3, [r0, #2]	@ movhi
 381:Middlewares/ST/STM32_USB_Host_Library/Core/Src/usbh_ctlreq.c ****   cfg_desc->bConfigurationValue = *(uint8_t  *) (buf + 5);
 857              		.loc 1 381 0
 858 0018 0B79     		ldrb	r3, [r1, #4]	@ zero_extendqisi2
 859 001a 0371     		strb	r3, [r0, #4]
 382:Middlewares/ST/STM32_USB_Host_Library/Core/Src/usbh_ctlreq.c ****   cfg_desc->iConfiguration      = *(uint8_t  *) (buf + 6);
 860              		.loc 1 382 0
ARM GAS  C:\Users\Student\AppData\Local\Temp\ccR1oIOQ.s 			page 33


 861 001c 4B79     		ldrb	r3, [r1, #5]	@ zero_extendqisi2
 862 001e 4371     		strb	r3, [r0, #5]
 383:Middlewares/ST/STM32_USB_Host_Library/Core/Src/usbh_ctlreq.c ****   cfg_desc->bmAttributes        = *(uint8_t  *) (buf + 7);
 863              		.loc 1 383 0
 864 0020 8B79     		ldrb	r3, [r1, #6]	@ zero_extendqisi2
 865 0022 8371     		strb	r3, [r0, #6]
 384:Middlewares/ST/STM32_USB_Host_Library/Core/Src/usbh_ctlreq.c ****   cfg_desc->bMaxPower           = *(uint8_t  *) (buf + 8);    
 866              		.loc 1 384 0
 867 0024 CB79     		ldrb	r3, [r1, #7]	@ zero_extendqisi2
 868 0026 C371     		strb	r3, [r0, #7]
 385:Middlewares/ST/STM32_USB_Host_Library/Core/Src/usbh_ctlreq.c ****   
 869              		.loc 1 385 0
 870 0028 0B7A     		ldrb	r3, [r1, #8]	@ zero_extendqisi2
 871 002a 0372     		strb	r3, [r0, #8]
 388:Middlewares/ST/STM32_USB_Host_Library/Core/Src/usbh_ctlreq.c ****   {
 872              		.loc 1 388 0
 873 002c 092A     		cmp	r2, #9
 874 002e 48D9     		bls	.L71
 875 0030 0546     		mov	r5, r0
 390:Middlewares/ST/STM32_USB_Host_Library/Core/Src/usbh_ctlreq.c ****     pif = (USBH_InterfaceDescTypeDef *)0;
 876              		.loc 1 390 0
 877 0032 0923     		movs	r3, #9
 878 0034 ADF80630 		strh	r3, [sp, #6]	@ movhi
 879              	.LVL104:
 375:Middlewares/ST/STM32_USB_Host_Library/Core/Src/usbh_ctlreq.c ****   
 880              		.loc 1 375 0
 881 0038 0C46     		mov	r4, r1
 372:Middlewares/ST/STM32_USB_Host_Library/Core/Src/usbh_ctlreq.c ****   int8_t                        ep_ix = 0;  
 882              		.loc 1 372 0
 883 003a 0026     		movs	r6, #0
 884              	.LVL105:
 885              	.L74:
 394:Middlewares/ST/STM32_USB_Host_Library/Core/Src/usbh_ctlreq.c ****     {
 886              		.loc 1 394 0
 887 003c 012E     		cmp	r6, #1
 888 003e 40DC     		bgt	.L71
 394:Middlewares/ST/STM32_USB_Host_Library/Core/Src/usbh_ctlreq.c ****     {
 889              		.loc 1 394 0 is_stmt 0 discriminator 1
 890 0040 6A88     		ldrh	r2, [r5, #2]
 891 0042 BDF80630 		ldrh	r3, [sp, #6]
 892 0046 9A42     		cmp	r2, r3
 893 0048 3BD9     		bls	.L71
 396:Middlewares/ST/STM32_USB_Host_Library/Core/Src/usbh_ctlreq.c ****       if (pdesc->bDescriptorType   == USB_DESC_TYPE_INTERFACE) 
 894              		.loc 1 396 0 is_stmt 1
 895 004a 0DF10601 		add	r1, sp, #6
 896 004e 2046     		mov	r0, r4
 897 0050 FFF7FEFF 		bl	USBH_GetNextDesc
 898              	.LVL106:
 899 0054 0446     		mov	r4, r0
 900              	.LVL107:
 397:Middlewares/ST/STM32_USB_Host_Library/Core/Src/usbh_ctlreq.c ****       {
 901              		.loc 1 397 0
 902 0056 4378     		ldrb	r3, [r0, #1]	@ zero_extendqisi2
 903 0058 042B     		cmp	r3, #4
 904 005a EFD1     		bne	.L74
 399:Middlewares/ST/STM32_USB_Host_Library/Core/Src/usbh_ctlreq.c ****         USBH_ParseInterfaceDesc (pif, (uint8_t *)pdesc);            
 905              		.loc 1 399 0
ARM GAS  C:\Users\Student\AppData\Local\Temp\ccR1oIOQ.s 			page 34


 906 005c B146     		mov	r9, r6
 907 005e 1A20     		movs	r0, #26
 908              	.LVL108:
 909 0060 00FB06F0 		mul	r0, r0, r6
 910 0064 0830     		adds	r0, r0, #8
 911 0066 2844     		add	r0, r0, r5
 912              	.LVL109:
 400:Middlewares/ST/STM32_USB_Host_Library/Core/Src/usbh_ctlreq.c ****         
 913              		.loc 1 400 0
 914 0068 2146     		mov	r1, r4
 915 006a 0230     		adds	r0, r0, #2
 916              	.LVL110:
 917 006c FFF7FEFF 		bl	USBH_ParseInterfaceDesc
 918              	.LVL111:
 402:Middlewares/ST/STM32_USB_Host_Library/Core/Src/usbh_ctlreq.c ****         pep = (USBH_EpDescTypeDef *)0;        
 919              		.loc 1 402 0
 920 0070 0027     		movs	r7, #0
 921              	.LVL112:
 922              	.L75:
 404:Middlewares/ST/STM32_USB_Host_Library/Core/Src/usbh_ctlreq.c ****         {
 923              		.loc 1 404 0
 924 0072 B846     		mov	r8, r7
 925 0074 1A23     		movs	r3, #26
 926              	.LVL113:
 927 0076 03FB0953 		mla	r3, r3, r9, r5
 928              	.LVL114:
 929 007a 9B7B     		ldrb	r3, [r3, #14]	@ zero_extendqisi2
 930 007c 9F42     		cmp	r7, r3
 931 007e 1DDA     		bge	.L77
 404:Middlewares/ST/STM32_USB_Host_Library/Core/Src/usbh_ctlreq.c ****         {
 932              		.loc 1 404 0 is_stmt 0 discriminator 1
 933 0080 6A88     		ldrh	r2, [r5, #2]
 934 0082 BDF80630 		ldrh	r3, [sp, #6]
 935 0086 9A42     		cmp	r2, r3
 936 0088 18D9     		bls	.L77
 406:Middlewares/ST/STM32_USB_Host_Library/Core/Src/usbh_ctlreq.c ****           if (pdesc->bDescriptorType   == USB_DESC_TYPE_ENDPOINT) 
 937              		.loc 1 406 0 is_stmt 1
 938 008a 0DF10601 		add	r1, sp, #6
 939 008e 2046     		mov	r0, r4
 940 0090 FFF7FEFF 		bl	USBH_GetNextDesc
 941              	.LVL115:
 942 0094 0446     		mov	r4, r0
 943              	.LVL116:
 407:Middlewares/ST/STM32_USB_Host_Library/Core/Src/usbh_ctlreq.c ****           {  
 944              		.loc 1 407 0
 945 0096 4378     		ldrb	r3, [r0, #1]	@ zero_extendqisi2
 946 0098 052B     		cmp	r3, #5
 947 009a EAD1     		bne	.L75
 409:Middlewares/ST/STM32_USB_Host_Library/Core/Src/usbh_ctlreq.c ****             USBH_ParseEPDesc (pep, (uint8_t *)pdesc);
 948              		.loc 1 409 0
 949 009c 08F10108 		add	r8, r8, #1
 950 00a0 1A20     		movs	r0, #26
 951              	.LVL117:
 952 00a2 00FB09F0 		mul	r0, r0, r9
 953              	.LVL118:
 954 00a6 00EBC800 		add	r0, r0, r8, lsl #3
 955 00aa 0830     		adds	r0, r0, #8
ARM GAS  C:\Users\Student\AppData\Local\Temp\ccR1oIOQ.s 			page 35


 956 00ac 2844     		add	r0, r0, r5
 957              	.LVL119:
 410:Middlewares/ST/STM32_USB_Host_Library/Core/Src/usbh_ctlreq.c ****             ep_ix++;
 958              		.loc 1 410 0
 959 00ae 2146     		mov	r1, r4
 960 00b0 0430     		adds	r0, r0, #4
 961              	.LVL120:
 962 00b2 FFF7FEFF 		bl	USBH_ParseEPDesc
 963              	.LVL121:
 411:Middlewares/ST/STM32_USB_Host_Library/Core/Src/usbh_ctlreq.c ****           }
 964              		.loc 1 411 0
 965 00b6 0137     		adds	r7, r7, #1
 966              	.LVL122:
 967 00b8 7FB2     		sxtb	r7, r7
 968              	.LVL123:
 969 00ba DAE7     		b	.L75
 970              	.LVL124:
 971              	.L77:
 414:Middlewares/ST/STM32_USB_Host_Library/Core/Src/usbh_ctlreq.c ****       }
 972              		.loc 1 414 0
 973 00bc 0136     		adds	r6, r6, #1
 974              	.LVL125:
 975 00be 76B2     		sxtb	r6, r6
 976              	.LVL126:
 977 00c0 BCE7     		b	.L74
 978              	.LVL127:
 979              	.L71:
 418:Middlewares/ST/STM32_USB_Host_Library/Core/Src/usbh_ctlreq.c **** 
 980              		.loc 1 418 0
 981 00c2 03B0     		add	sp, sp, #12
 982              	.LCFI10:
 983              		.cfi_def_cfa_offset 28
 984              		@ sp needed
 985 00c4 BDE8F083 		pop	{r4, r5, r6, r7, r8, r9, pc}
 986              		.cfi_endproc
 987              	.LFE150:
 989              		.section	.text.USBH_CtlReq,"ax",%progbits
 990              		.align	1
 991              		.global	USBH_CtlReq
 992              		.syntax unified
 993              		.thumb
 994              		.thumb_func
 995              		.fpu fpv5-sp-d16
 997              	USBH_CtlReq:
 998              	.LFB155:
 532:Middlewares/ST/STM32_USB_Host_Library/Core/Src/usbh_ctlreq.c ****   USBH_StatusTypeDef status;
 999              		.loc 1 532 0
 1000              		.cfi_startproc
 1001              		@ args = 0, pretend = 0, frame = 0
 1002              		@ frame_needed = 0, uses_anonymous_args = 0
 1003              	.LVL128:
 1004 0000 38B5     		push	{r3, r4, r5, lr}
 1005              	.LCFI11:
 1006              		.cfi_def_cfa_offset 16
 1007              		.cfi_offset 3, -16
 1008              		.cfi_offset 4, -12
 1009              		.cfi_offset 5, -8
ARM GAS  C:\Users\Student\AppData\Local\Temp\ccR1oIOQ.s 			page 36


 1010              		.cfi_offset 14, -4
 1011 0002 0446     		mov	r4, r0
 1012              	.LVL129:
 536:Middlewares/ST/STM32_USB_Host_Library/Core/Src/usbh_ctlreq.c ****   {
 1013              		.loc 1 536 0
 1014 0004 8378     		ldrb	r3, [r0, #2]	@ zero_extendqisi2
 1015 0006 012B     		cmp	r3, #1
 1016 0008 03D0     		beq	.L83
 1017 000a 022B     		cmp	r3, #2
 1018 000c 0FD0     		beq	.L84
 534:Middlewares/ST/STM32_USB_Host_Library/Core/Src/usbh_ctlreq.c ****   
 1019              		.loc 1 534 0
 1020 000e 0125     		movs	r5, #1
 1021 0010 0BE0     		b	.L82
 1022              	.L83:
 540:Middlewares/ST/STM32_USB_Host_Library/Core/Src/usbh_ctlreq.c ****     phost->Control.length = length;
 1023              		.loc 1 540 0
 1024 0012 8160     		str	r1, [r0, #8]
 541:Middlewares/ST/STM32_USB_Host_Library/Core/Src/usbh_ctlreq.c ****     phost->Control.state = CTRL_SETUP;  
 1025              		.loc 1 541 0
 1026 0014 8281     		strh	r2, [r0, #12]	@ movhi
 542:Middlewares/ST/STM32_USB_Host_Library/Core/Src/usbh_ctlreq.c ****     phost->RequestState = CMD_WAIT;
 1027              		.loc 1 542 0
 1028 0016 0125     		movs	r5, #1
 1029 0018 0576     		strb	r5, [r0, #24]
 543:Middlewares/ST/STM32_USB_Host_Library/Core/Src/usbh_ctlreq.c ****     status = USBH_BUSY;
 1030              		.loc 1 543 0
 1031 001a 0223     		movs	r3, #2
 1032 001c 8370     		strb	r3, [r0, #2]
 546:Middlewares/ST/STM32_USB_Host_Library/Core/Src/usbh_ctlreq.c **** #endif      
 1033              		.loc 1 546 0
 1034 001e 0022     		movs	r2, #0
 1035              	.LVL130:
 1036 0020 0321     		movs	r1, #3
 1037              	.LVL131:
 1038 0022 D0F8C803 		ldr	r0, [r0, #968]
 1039              	.LVL132:
 1040 0026 FFF7FEFF 		bl	osMessagePut
 1041              	.LVL133:
 1042              	.L82:
 571:Middlewares/ST/STM32_USB_Host_Library/Core/Src/usbh_ctlreq.c **** 
 1043              		.loc 1 571 0
 1044 002a 2846     		mov	r0, r5
 1045 002c 38BD     		pop	{r3, r4, r5, pc}
 1046              	.LVL134:
 1047              	.L84:
 551:Middlewares/ST/STM32_USB_Host_Library/Core/Src/usbh_ctlreq.c ****      if (status == USBH_OK) 
 1048              		.loc 1 551 0
 1049 002e FFF7FEFF 		bl	USBH_HandleControl
 1050              	.LVL135:
 552:Middlewares/ST/STM32_USB_Host_Library/Core/Src/usbh_ctlreq.c ****     {
 1051              		.loc 1 552 0
 1052 0032 0546     		mov	r5, r0
 1053 0034 20B1     		cbz	r0, .L89
 559:Middlewares/ST/STM32_USB_Host_Library/Core/Src/usbh_ctlreq.c ****     {
 1054              		.loc 1 559 0
 1055 0036 0228     		cmp	r0, #2
ARM GAS  C:\Users\Student\AppData\Local\Temp\ccR1oIOQ.s 			page 37


 1056 0038 F7D1     		bne	.L82
 562:Middlewares/ST/STM32_USB_Host_Library/Core/Src/usbh_ctlreq.c ****       status = USBH_FAIL;
 1057              		.loc 1 562 0
 1058 003a 0122     		movs	r2, #1
 1059 003c A270     		strb	r2, [r4, #2]
 1060              	.LVL136:
 1061 003e F4E7     		b	.L82
 1062              	.LVL137:
 1063              	.L89:
 555:Middlewares/ST/STM32_USB_Host_Library/Core/Src/usbh_ctlreq.c ****       phost->Control.state =CTRL_IDLE;  
 1064              		.loc 1 555 0
 1065 0040 0122     		movs	r2, #1
 1066 0042 A270     		strb	r2, [r4, #2]
 556:Middlewares/ST/STM32_USB_Host_Library/Core/Src/usbh_ctlreq.c ****       status = USBH_OK;      
 1067              		.loc 1 556 0
 1068 0044 0022     		movs	r2, #0
 1069 0046 2276     		strb	r2, [r4, #24]
 1070              	.LVL138:
 1071 0048 EFE7     		b	.L82
 1072              		.cfi_endproc
 1073              	.LFE155:
 1075              		.section	.text.USBH_GetDescriptor,"ax",%progbits
 1076              		.align	1
 1077              		.global	USBH_GetDescriptor
 1078              		.syntax unified
 1079              		.thumb
 1080              		.thumb_func
 1081              		.fpu fpv5-sp-d16
 1083              	USBH_GetDescriptor:
 1084              	.LFB144:
 207:Middlewares/ST/STM32_USB_Host_Library/Core/Src/usbh_ctlreq.c ****   if(phost->RequestState == CMD_SEND)
 1085              		.loc 1 207 0
 1086              		.cfi_startproc
 1087              		@ args = 4, pretend = 0, frame = 0
 1088              		@ frame_needed = 0, uses_anonymous_args = 0
 1089              	.LVL139:
 1090 0000 38B5     		push	{r3, r4, r5, lr}
 1091              	.LCFI12:
 1092              		.cfi_def_cfa_offset 16
 1093              		.cfi_offset 3, -16
 1094              		.cfi_offset 4, -12
 1095              		.cfi_offset 5, -8
 1096              		.cfi_offset 14, -4
 1097 0002 BDF81050 		ldrh	r5, [sp, #16]
 208:Middlewares/ST/STM32_USB_Host_Library/Core/Src/usbh_ctlreq.c ****   {
 1098              		.loc 1 208 0
 1099 0006 8478     		ldrb	r4, [r0, #2]	@ zero_extendqisi2
 1100 0008 012C     		cmp	r4, #1
 1101 000a 04D0     		beq	.L95
 1102              	.LVL140:
 1103              	.L91:
 224:Middlewares/ST/STM32_USB_Host_Library/Core/Src/usbh_ctlreq.c **** }
 1104              		.loc 1 224 0
 1105 000c 2A46     		mov	r2, r5
 1106 000e 1946     		mov	r1, r3
 1107 0010 FFF7FEFF 		bl	USBH_CtlReq
 1108              	.LVL141:
ARM GAS  C:\Users\Student\AppData\Local\Temp\ccR1oIOQ.s 			page 38


 225:Middlewares/ST/STM32_USB_Host_Library/Core/Src/usbh_ctlreq.c **** 
 1109              		.loc 1 225 0
 1110 0014 38BD     		pop	{r3, r4, r5, pc}
 1111              	.LVL142:
 1112              	.L95:
 210:Middlewares/ST/STM32_USB_Host_Library/Core/Src/usbh_ctlreq.c ****     phost->Control.setup.b.bRequest = USB_REQ_GET_DESCRIPTOR;
 1113              		.loc 1 210 0
 1114 0016 61F07F04 		orn	r4, r1, #127
 1115 001a 0474     		strb	r4, [r0, #16]
 211:Middlewares/ST/STM32_USB_Host_Library/Core/Src/usbh_ctlreq.c ****     phost->Control.setup.b.wValue.w = value_idx;
 1116              		.loc 1 211 0
 1117 001c 0621     		movs	r1, #6
 1118              	.LVL143:
 1119 001e 4174     		strb	r1, [r0, #17]
 212:Middlewares/ST/STM32_USB_Host_Library/Core/Src/usbh_ctlreq.c ****     
 1120              		.loc 1 212 0
 1121 0020 4282     		strh	r2, [r0, #18]	@ movhi
 214:Middlewares/ST/STM32_USB_Host_Library/Core/Src/usbh_ctlreq.c ****     {
 1122              		.loc 1 214 0
 1123 0022 02F47F44 		and	r4, r2, #65280
 1124 0026 B4F5407F 		cmp	r4, #768
 1125 002a 03D0     		beq	.L96
 220:Middlewares/ST/STM32_USB_Host_Library/Core/Src/usbh_ctlreq.c ****     }
 1126              		.loc 1 220 0
 1127 002c 0022     		movs	r2, #0
 1128              	.LVL144:
 1129 002e 8282     		strh	r2, [r0, #20]	@ movhi
 1130              	.L93:
 222:Middlewares/ST/STM32_USB_Host_Library/Core/Src/usbh_ctlreq.c ****   }
 1131              		.loc 1 222 0
 1132 0030 C582     		strh	r5, [r0, #22]	@ movhi
 1133 0032 EBE7     		b	.L91
 1134              	.LVL145:
 1135              	.L96:
 216:Middlewares/ST/STM32_USB_Host_Library/Core/Src/usbh_ctlreq.c ****     }
 1136              		.loc 1 216 0
 1137 0034 40F20942 		movw	r2, #1033
 1138              	.LVL146:
 1139 0038 8282     		strh	r2, [r0, #20]	@ movhi
 1140 003a F9E7     		b	.L93
 1141              		.cfi_endproc
 1142              	.LFE144:
 1144              		.section	.text.USBH_Get_DevDesc,"ax",%progbits
 1145              		.align	1
 1146              		.global	USBH_Get_DevDesc
 1147              		.syntax unified
 1148              		.thumb
 1149              		.thumb_func
 1150              		.fpu fpv5-sp-d16
 1152              	USBH_Get_DevDesc:
 1153              	.LFB141:
 111:Middlewares/ST/STM32_USB_Host_Library/Core/Src/usbh_ctlreq.c ****   USBH_StatusTypeDef status;
 1154              		.loc 1 111 0
 1155              		.cfi_startproc
 1156              		@ args = 0, pretend = 0, frame = 0
 1157              		@ frame_needed = 0, uses_anonymous_args = 0
 1158              	.LVL147:
ARM GAS  C:\Users\Student\AppData\Local\Temp\ccR1oIOQ.s 			page 39


 1159 0000 F0B5     		push	{r4, r5, r6, r7, lr}
 1160              	.LCFI13:
 1161              		.cfi_def_cfa_offset 20
 1162              		.cfi_offset 4, -20
 1163              		.cfi_offset 5, -16
 1164              		.cfi_offset 6, -12
 1165              		.cfi_offset 7, -8
 1166              		.cfi_offset 14, -4
 1167 0002 83B0     		sub	sp, sp, #12
 1168              	.LCFI14:
 1169              		.cfi_def_cfa_offset 32
 1170 0004 0446     		mov	r4, r0
 117:Middlewares/ST/STM32_USB_Host_Library/Core/Src/usbh_ctlreq.c ****                                   length)) == USBH_OK)
 1171              		.loc 1 117 0
 1172 0006 00F58E75 		add	r5, r0, #284
 114:Middlewares/ST/STM32_USB_Host_Library/Core/Src/usbh_ctlreq.c ****                                   USB_REQ_RECIPIENT_DEVICE | USB_REQ_TYPE_STANDARD,                
 1173              		.loc 1 114 0
 1174 000a 0E46     		mov	r6, r1
 1175 000c 0091     		str	r1, [sp]
 1176 000e 2B46     		mov	r3, r5
 1177 0010 4FF48072 		mov	r2, #256
 1178 0014 0021     		movs	r1, #0
 1179              	.LVL148:
 1180 0016 FFF7FEFF 		bl	USBH_GetDescriptor
 1181              	.LVL149:
 1182 001a 0746     		mov	r7, r0
 1183 001c 10B1     		cbz	r0, .L100
 1184              	.LVL150:
 1185              	.L98:
 124:Middlewares/ST/STM32_USB_Host_Library/Core/Src/usbh_ctlreq.c **** 
 1186              		.loc 1 124 0
 1187 001e 3846     		mov	r0, r7
 1188 0020 03B0     		add	sp, sp, #12
 1189              	.LCFI15:
 1190              		.cfi_remember_state
 1191              		.cfi_def_cfa_offset 20
 1192              		@ sp needed
 1193 0022 F0BD     		pop	{r4, r5, r6, r7, pc}
 1194              	.LVL151:
 1195              	.L100:
 1196              	.LCFI16:
 1197              		.cfi_restore_state
 121:Middlewares/ST/STM32_USB_Host_Library/Core/Src/usbh_ctlreq.c ****   }
 1198              		.loc 1 121 0
 1199 0024 3246     		mov	r2, r6
 1200 0026 2946     		mov	r1, r5
 1201 0028 04F54870 		add	r0, r4, #800
 1202              	.LVL152:
 1203 002c FFF7FEFF 		bl	USBH_ParseDevDesc
 1204              	.LVL153:
 1205 0030 F5E7     		b	.L98
 1206              		.cfi_endproc
 1207              	.LFE141:
 1209              		.section	.text.USBH_Get_CfgDesc,"ax",%progbits
 1210              		.align	1
 1211              		.global	USBH_Get_CfgDesc
 1212              		.syntax unified
ARM GAS  C:\Users\Student\AppData\Local\Temp\ccR1oIOQ.s 			page 40


 1213              		.thumb
 1214              		.thumb_func
 1215              		.fpu fpv5-sp-d16
 1217              	USBH_Get_CfgDesc:
 1218              	.LFB142:
 138:Middlewares/ST/STM32_USB_Host_Library/Core/Src/usbh_ctlreq.c ****   USBH_StatusTypeDef status;
 1219              		.loc 1 138 0
 1220              		.cfi_startproc
 1221              		@ args = 0, pretend = 0, frame = 0
 1222              		@ frame_needed = 0, uses_anonymous_args = 0
 1223              	.LVL154:
 1224 0000 F0B5     		push	{r4, r5, r6, r7, lr}
 1225              	.LCFI17:
 1226              		.cfi_def_cfa_offset 20
 1227              		.cfi_offset 4, -20
 1228              		.cfi_offset 5, -16
 1229              		.cfi_offset 6, -12
 1230              		.cfi_offset 7, -8
 1231              		.cfi_offset 14, -4
 1232 0002 83B0     		sub	sp, sp, #12
 1233              	.LCFI18:
 1234              		.cfi_def_cfa_offset 32
 1235 0004 0446     		mov	r4, r0
 1236 0006 0E46     		mov	r6, r1
 142:Middlewares/ST/STM32_USB_Host_Library/Core/Src/usbh_ctlreq.c **** #else
 1237              		.loc 1 142 0
 1238 0008 00F11C05 		add	r5, r0, #28
 1239              	.LVL155:
 146:Middlewares/ST/STM32_USB_Host_Library/Core/Src/usbh_ctlreq.c ****                                   USB_REQ_RECIPIENT_DEVICE | USB_REQ_TYPE_STANDARD,                
 1240              		.loc 1 146 0
 1241 000c 0091     		str	r1, [sp]
 1242 000e 2B46     		mov	r3, r5
 1243 0010 4FF40072 		mov	r2, #512
 1244 0014 0021     		movs	r1, #0
 1245              	.LVL156:
 1246 0016 FFF7FEFF 		bl	USBH_GetDescriptor
 1247              	.LVL157:
 1248 001a 0746     		mov	r7, r0
 1249 001c 10B1     		cbz	r0, .L104
 1250              	.LVL158:
 1251              	.L102:
 160:Middlewares/ST/STM32_USB_Host_Library/Core/Src/usbh_ctlreq.c **** 
 1252              		.loc 1 160 0
 1253 001e 3846     		mov	r0, r7
 1254 0020 03B0     		add	sp, sp, #12
 1255              	.LCFI19:
 1256              		.cfi_remember_state
 1257              		.cfi_def_cfa_offset 20
 1258              		@ sp needed
 1259 0022 F0BD     		pop	{r4, r5, r6, r7, pc}
 1260              	.LVL159:
 1261              	.L104:
 1262              	.LCFI20:
 1263              		.cfi_restore_state
 154:Middlewares/ST/STM32_USB_Host_Library/Core/Src/usbh_ctlreq.c ****                        pData,
 1264              		.loc 1 154 0
 1265 0024 3246     		mov	r2, r6
ARM GAS  C:\Users\Student\AppData\Local\Temp\ccR1oIOQ.s 			page 41


 1266 0026 2946     		mov	r1, r5
 1267 0028 04F23230 		addw	r0, r4, #818
 1268              	.LVL160:
 1269 002c FFF7FEFF 		bl	USBH_ParseCfgDesc
 1270              	.LVL161:
 1271 0030 F5E7     		b	.L102
 1272              		.cfi_endproc
 1273              	.LFE142:
 1275              		.section	.text.USBH_Get_StringDesc,"ax",%progbits
 1276              		.align	1
 1277              		.global	USBH_Get_StringDesc
 1278              		.syntax unified
 1279              		.thumb
 1280              		.thumb_func
 1281              		.fpu fpv5-sp-d16
 1283              	USBH_Get_StringDesc:
 1284              	.LFB143:
 177:Middlewares/ST/STM32_USB_Host_Library/Core/Src/usbh_ctlreq.c ****   USBH_StatusTypeDef status;
 1285              		.loc 1 177 0
 1286              		.cfi_startproc
 1287              		@ args = 0, pretend = 0, frame = 0
 1288              		@ frame_needed = 0, uses_anonymous_args = 0
 1289              	.LVL162:
 1290 0000 F0B5     		push	{r4, r5, r6, r7, lr}
 1291              	.LCFI21:
 1292              		.cfi_def_cfa_offset 20
 1293              		.cfi_offset 4, -20
 1294              		.cfi_offset 5, -16
 1295              		.cfi_offset 6, -12
 1296              		.cfi_offset 7, -8
 1297              		.cfi_offset 14, -4
 1298 0002 83B0     		sub	sp, sp, #12
 1299              	.LCFI22:
 1300              		.cfi_def_cfa_offset 32
 1301 0004 1746     		mov	r7, r2
 1302 0006 1D46     		mov	r5, r3
 182:Middlewares/ST/STM32_USB_Host_Library/Core/Src/usbh_ctlreq.c ****                                   length)) == USBH_OK)
 1303              		.loc 1 182 0
 1304 0008 00F58E74 		add	r4, r0, #284
 179:Middlewares/ST/STM32_USB_Host_Library/Core/Src/usbh_ctlreq.c ****                                   USB_REQ_RECIPIENT_DEVICE | USB_REQ_TYPE_STANDARD,                
 1305              		.loc 1 179 0
 1306 000c 0093     		str	r3, [sp]
 1307 000e 2346     		mov	r3, r4
 1308              	.LVL163:
 1309 0010 41F44072 		orr	r2, r1, #768
 1310              	.LVL164:
 1311 0014 0021     		movs	r1, #0
 1312              	.LVL165:
 1313 0016 FFF7FEFF 		bl	USBH_GetDescriptor
 1314              	.LVL166:
 1315 001a 0646     		mov	r6, r0
 1316 001c 10B1     		cbz	r0, .L108
 1317              	.LVL167:
 1318              	.L106:
 189:Middlewares/ST/STM32_USB_Host_Library/Core/Src/usbh_ctlreq.c **** 
 1319              		.loc 1 189 0
 1320 001e 3046     		mov	r0, r6
ARM GAS  C:\Users\Student\AppData\Local\Temp\ccR1oIOQ.s 			page 42


 1321 0020 03B0     		add	sp, sp, #12
 1322              	.LCFI23:
 1323              		.cfi_remember_state
 1324              		.cfi_def_cfa_offset 20
 1325              		@ sp needed
 1326 0022 F0BD     		pop	{r4, r5, r6, r7, pc}
 1327              	.LVL168:
 1328              	.L108:
 1329              	.LCFI24:
 1330              		.cfi_restore_state
 186:Middlewares/ST/STM32_USB_Host_Library/Core/Src/usbh_ctlreq.c ****   }
 1331              		.loc 1 186 0
 1332 0024 2A46     		mov	r2, r5
 1333 0026 3946     		mov	r1, r7
 1334 0028 2046     		mov	r0, r4
 1335              	.LVL169:
 1336 002a FFF7FEFF 		bl	USBH_ParseStringDesc
 1337              	.LVL170:
 1338 002e F6E7     		b	.L106
 1339              		.cfi_endproc
 1340              	.LFE143:
 1342              		.section	.text.USBH_SetAddress,"ax",%progbits
 1343              		.align	1
 1344              		.global	USBH_SetAddress
 1345              		.syntax unified
 1346              		.thumb
 1347              		.thumb_func
 1348              		.fpu fpv5-sp-d16
 1350              	USBH_SetAddress:
 1351              	.LFB145:
 236:Middlewares/ST/STM32_USB_Host_Library/Core/Src/usbh_ctlreq.c ****   if(phost->RequestState == CMD_SEND)
 1352              		.loc 1 236 0
 1353              		.cfi_startproc
 1354              		@ args = 0, pretend = 0, frame = 0
 1355              		@ frame_needed = 0, uses_anonymous_args = 0
 1356              	.LVL171:
 1357 0000 08B5     		push	{r3, lr}
 1358              	.LCFI25:
 1359              		.cfi_def_cfa_offset 8
 1360              		.cfi_offset 3, -8
 1361              		.cfi_offset 14, -4
 237:Middlewares/ST/STM32_USB_Host_Library/Core/Src/usbh_ctlreq.c ****   {
 1362              		.loc 1 237 0
 1363 0002 8378     		ldrb	r3, [r0, #2]	@ zero_extendqisi2
 1364 0004 012B     		cmp	r3, #1
 1365 0006 04D0     		beq	.L112
 1366              	.L110:
 248:Middlewares/ST/STM32_USB_Host_Library/Core/Src/usbh_ctlreq.c **** }
 1367              		.loc 1 248 0
 1368 0008 0022     		movs	r2, #0
 1369 000a 1146     		mov	r1, r2
 1370              	.LVL172:
 1371 000c FFF7FEFF 		bl	USBH_CtlReq
 1372              	.LVL173:
 249:Middlewares/ST/STM32_USB_Host_Library/Core/Src/usbh_ctlreq.c **** 
 1373              		.loc 1 249 0
 1374 0010 08BD     		pop	{r3, pc}
ARM GAS  C:\Users\Student\AppData\Local\Temp\ccR1oIOQ.s 			page 43


 1375              	.LVL174:
 1376              	.L112:
 239:Middlewares/ST/STM32_USB_Host_Library/Core/Src/usbh_ctlreq.c ****       USB_REQ_TYPE_STANDARD;
 1377              		.loc 1 239 0
 1378 0012 0023     		movs	r3, #0
 1379 0014 0374     		strb	r3, [r0, #16]
 242:Middlewares/ST/STM32_USB_Host_Library/Core/Src/usbh_ctlreq.c ****     
 1380              		.loc 1 242 0
 1381 0016 0522     		movs	r2, #5
 1382 0018 4274     		strb	r2, [r0, #17]
 244:Middlewares/ST/STM32_USB_Host_Library/Core/Src/usbh_ctlreq.c ****     phost->Control.setup.b.wIndex.w = 0;
 1383              		.loc 1 244 0
 1384 001a 4182     		strh	r1, [r0, #18]	@ movhi
 245:Middlewares/ST/STM32_USB_Host_Library/Core/Src/usbh_ctlreq.c ****     phost->Control.setup.b.wLength.w = 0;
 1385              		.loc 1 245 0
 1386 001c 8382     		strh	r3, [r0, #20]	@ movhi
 246:Middlewares/ST/STM32_USB_Host_Library/Core/Src/usbh_ctlreq.c ****   }
 1387              		.loc 1 246 0
 1388 001e C382     		strh	r3, [r0, #22]	@ movhi
 1389 0020 F2E7     		b	.L110
 1390              		.cfi_endproc
 1391              	.LFE145:
 1393              		.section	.text.USBH_SetCfg,"ax",%progbits
 1394              		.align	1
 1395              		.global	USBH_SetCfg
 1396              		.syntax unified
 1397              		.thumb
 1398              		.thumb_func
 1399              		.fpu fpv5-sp-d16
 1401              	USBH_SetCfg:
 1402              	.LFB146:
 260:Middlewares/ST/STM32_USB_Host_Library/Core/Src/usbh_ctlreq.c ****   if(phost->RequestState == CMD_SEND)
 1403              		.loc 1 260 0
 1404              		.cfi_startproc
 1405              		@ args = 0, pretend = 0, frame = 0
 1406              		@ frame_needed = 0, uses_anonymous_args = 0
 1407              	.LVL175:
 1408 0000 08B5     		push	{r3, lr}
 1409              	.LCFI26:
 1410              		.cfi_def_cfa_offset 8
 1411              		.cfi_offset 3, -8
 1412              		.cfi_offset 14, -4
 261:Middlewares/ST/STM32_USB_Host_Library/Core/Src/usbh_ctlreq.c ****   {
 1413              		.loc 1 261 0
 1414 0002 8378     		ldrb	r3, [r0, #2]	@ zero_extendqisi2
 1415 0004 012B     		cmp	r3, #1
 1416 0006 04D0     		beq	.L116
 1417              	.L114:
 271:Middlewares/ST/STM32_USB_Host_Library/Core/Src/usbh_ctlreq.c **** }
 1418              		.loc 1 271 0
 1419 0008 0022     		movs	r2, #0
 1420 000a 1146     		mov	r1, r2
 1421              	.LVL176:
 1422 000c FFF7FEFF 		bl	USBH_CtlReq
 1423              	.LVL177:
 272:Middlewares/ST/STM32_USB_Host_Library/Core/Src/usbh_ctlreq.c **** 
 1424              		.loc 1 272 0
ARM GAS  C:\Users\Student\AppData\Local\Temp\ccR1oIOQ.s 			page 44


 1425 0010 08BD     		pop	{r3, pc}
 1426              	.LVL178:
 1427              	.L116:
 263:Middlewares/ST/STM32_USB_Host_Library/Core/Src/usbh_ctlreq.c ****       USB_REQ_TYPE_STANDARD;
 1428              		.loc 1 263 0
 1429 0012 0023     		movs	r3, #0
 1430 0014 0374     		strb	r3, [r0, #16]
 265:Middlewares/ST/STM32_USB_Host_Library/Core/Src/usbh_ctlreq.c ****     phost->Control.setup.b.wValue.w = cfg_idx;
 1431              		.loc 1 265 0
 1432 0016 0922     		movs	r2, #9
 1433 0018 4274     		strb	r2, [r0, #17]
 266:Middlewares/ST/STM32_USB_Host_Library/Core/Src/usbh_ctlreq.c ****     phost->Control.setup.b.wIndex.w = 0;
 1434              		.loc 1 266 0
 1435 001a 4182     		strh	r1, [r0, #18]	@ movhi
 267:Middlewares/ST/STM32_USB_Host_Library/Core/Src/usbh_ctlreq.c ****     phost->Control.setup.b.wLength.w = 0; 
 1436              		.loc 1 267 0
 1437 001c 8382     		strh	r3, [r0, #20]	@ movhi
 268:Middlewares/ST/STM32_USB_Host_Library/Core/Src/usbh_ctlreq.c ****   }
 1438              		.loc 1 268 0
 1439 001e C382     		strh	r3, [r0, #22]	@ movhi
 1440 0020 F2E7     		b	.L114
 1441              		.cfi_endproc
 1442              	.LFE146:
 1444              		.section	.text.USBH_SetInterface,"ax",%progbits
 1445              		.align	1
 1446              		.global	USBH_SetInterface
 1447              		.syntax unified
 1448              		.thumb
 1449              		.thumb_func
 1450              		.fpu fpv5-sp-d16
 1452              	USBH_SetInterface:
 1453              	.LFB147:
 283:Middlewares/ST/STM32_USB_Host_Library/Core/Src/usbh_ctlreq.c ****   
 1454              		.loc 1 283 0
 1455              		.cfi_startproc
 1456              		@ args = 0, pretend = 0, frame = 0
 1457              		@ frame_needed = 0, uses_anonymous_args = 0
 1458              	.LVL179:
 1459 0000 08B5     		push	{r3, lr}
 1460              	.LCFI27:
 1461              		.cfi_def_cfa_offset 8
 1462              		.cfi_offset 3, -8
 1463              		.cfi_offset 14, -4
 285:Middlewares/ST/STM32_USB_Host_Library/Core/Src/usbh_ctlreq.c ****   {
 1464              		.loc 1 285 0
 1465 0002 8378     		ldrb	r3, [r0, #2]	@ zero_extendqisi2
 1466 0004 012B     		cmp	r3, #1
 1467 0006 04D0     		beq	.L120
 1468              	.L118:
 295:Middlewares/ST/STM32_USB_Host_Library/Core/Src/usbh_ctlreq.c **** }
 1469              		.loc 1 295 0
 1470 0008 0022     		movs	r2, #0
 1471              	.LVL180:
 1472 000a 1146     		mov	r1, r2
 1473              	.LVL181:
 1474 000c FFF7FEFF 		bl	USBH_CtlReq
 1475              	.LVL182:
ARM GAS  C:\Users\Student\AppData\Local\Temp\ccR1oIOQ.s 			page 45


 296:Middlewares/ST/STM32_USB_Host_Library/Core/Src/usbh_ctlreq.c **** 
 1476              		.loc 1 296 0
 1477 0010 08BD     		pop	{r3, pc}
 1478              	.LVL183:
 1479              	.L120:
 287:Middlewares/ST/STM32_USB_Host_Library/Core/Src/usbh_ctlreq.c ****       USB_REQ_TYPE_STANDARD;
 1480              		.loc 1 287 0
 1481 0012 0374     		strb	r3, [r0, #16]
 290:Middlewares/ST/STM32_USB_Host_Library/Core/Src/usbh_ctlreq.c ****     phost->Control.setup.b.wValue.w = altSetting;
 1482              		.loc 1 290 0
 1483 0014 0B23     		movs	r3, #11
 1484 0016 4374     		strb	r3, [r0, #17]
 291:Middlewares/ST/STM32_USB_Host_Library/Core/Src/usbh_ctlreq.c ****     phost->Control.setup.b.wIndex.w = ep_num;
 1485              		.loc 1 291 0
 1486 0018 4282     		strh	r2, [r0, #18]	@ movhi
 292:Middlewares/ST/STM32_USB_Host_Library/Core/Src/usbh_ctlreq.c ****     phost->Control.setup.b.wLength.w = 0;           
 1487              		.loc 1 292 0
 1488 001a 8182     		strh	r1, [r0, #20]	@ movhi
 293:Middlewares/ST/STM32_USB_Host_Library/Core/Src/usbh_ctlreq.c ****   }
 1489              		.loc 1 293 0
 1490 001c 0023     		movs	r3, #0
 1491 001e C382     		strh	r3, [r0, #22]	@ movhi
 1492 0020 F2E7     		b	.L118
 1493              		.cfi_endproc
 1494              	.LFE147:
 1496              		.section	.text.USBH_ClrFeature,"ax",%progbits
 1497              		.align	1
 1498              		.global	USBH_ClrFeature
 1499              		.syntax unified
 1500              		.thumb
 1501              		.thumb_func
 1502              		.fpu fpv5-sp-d16
 1504              	USBH_ClrFeature:
 1505              	.LFB148:
 308:Middlewares/ST/STM32_USB_Host_Library/Core/Src/usbh_ctlreq.c ****   if(phost->RequestState == CMD_SEND)
 1506              		.loc 1 308 0
 1507              		.cfi_startproc
 1508              		@ args = 0, pretend = 0, frame = 0
 1509              		@ frame_needed = 0, uses_anonymous_args = 0
 1510              	.LVL184:
 1511 0000 08B5     		push	{r3, lr}
 1512              	.LCFI28:
 1513              		.cfi_def_cfa_offset 8
 1514              		.cfi_offset 3, -8
 1515              		.cfi_offset 14, -4
 309:Middlewares/ST/STM32_USB_Host_Library/Core/Src/usbh_ctlreq.c ****   {
 1516              		.loc 1 309 0
 1517 0002 8378     		ldrb	r3, [r0, #2]	@ zero_extendqisi2
 1518 0004 012B     		cmp	r3, #1
 1519 0006 04D0     		beq	.L124
 1520              	.L122:
 320:Middlewares/ST/STM32_USB_Host_Library/Core/Src/usbh_ctlreq.c **** }
 1521              		.loc 1 320 0
 1522 0008 0022     		movs	r2, #0
 1523 000a 1146     		mov	r1, r2
 1524              	.LVL185:
 1525 000c FFF7FEFF 		bl	USBH_CtlReq
ARM GAS  C:\Users\Student\AppData\Local\Temp\ccR1oIOQ.s 			page 46


 1526              	.LVL186:
 321:Middlewares/ST/STM32_USB_Host_Library/Core/Src/usbh_ctlreq.c **** 
 1527              		.loc 1 321 0
 1528 0010 08BD     		pop	{r3, pc}
 1529              	.LVL187:
 1530              	.L124:
 311:Middlewares/ST/STM32_USB_Host_Library/Core/Src/usbh_ctlreq.c ****       USB_REQ_RECIPIENT_ENDPOINT |
 1531              		.loc 1 311 0
 1532 0012 0223     		movs	r3, #2
 1533 0014 0374     		strb	r3, [r0, #16]
 315:Middlewares/ST/STM32_USB_Host_Library/Core/Src/usbh_ctlreq.c ****     phost->Control.setup.b.wValue.w = FEATURE_SELECTOR_ENDPOINT;
 1534              		.loc 1 315 0
 1535 0016 0123     		movs	r3, #1
 1536 0018 4374     		strb	r3, [r0, #17]
 316:Middlewares/ST/STM32_USB_Host_Library/Core/Src/usbh_ctlreq.c ****     phost->Control.setup.b.wIndex.w = ep_num;
 1537              		.loc 1 316 0
 1538 001a 0023     		movs	r3, #0
 1539 001c 4382     		strh	r3, [r0, #18]	@ movhi
 317:Middlewares/ST/STM32_USB_Host_Library/Core/Src/usbh_ctlreq.c ****     phost->Control.setup.b.wLength.w = 0;           
 1540              		.loc 1 317 0
 1541 001e 8182     		strh	r1, [r0, #20]	@ movhi
 318:Middlewares/ST/STM32_USB_Host_Library/Core/Src/usbh_ctlreq.c ****   }
 1542              		.loc 1 318 0
 1543 0020 C382     		strh	r3, [r0, #22]	@ movhi
 1544 0022 F1E7     		b	.L122
 1545              		.cfi_endproc
 1546              	.LFE148:
 1548              		.text
 1549              	.Letext0:
 1550              		.file 2 "c:\\gcc_toolchain\\6_2017-q1-update\\arm-none-eabi\\include\\machine\\_default_types.h"
 1551              		.file 3 "c:\\gcc_toolchain\\6_2017-q1-update\\arm-none-eabi\\include\\sys\\lock.h"
 1552              		.file 4 "c:\\gcc_toolchain\\6_2017-q1-update\\arm-none-eabi\\include\\sys\\_types.h"
 1553              		.file 5 "c:\\gcc_toolchain\\6_2017-q1-update\\lib\\gcc\\arm-none-eabi\\6.3.1\\include\\stddef.h"
 1554              		.file 6 "c:\\gcc_toolchain\\6_2017-q1-update\\arm-none-eabi\\include\\sys\\reent.h"
 1555              		.file 7 "c:\\gcc_toolchain\\6_2017-q1-update\\arm-none-eabi\\include\\sys\\_stdint.h"
 1556              		.file 8 "c:\\gcc_toolchain\\6_2017-q1-update\\arm-none-eabi\\include\\stdlib.h"
 1557              		.file 9 "Drivers/CMSIS/Include/core_cm7.h"
 1558              		.file 10 "Drivers/CMSIS/Device/ST/STM32F7xx/Include/system_stm32f7xx.h"
 1559              		.file 11 "Middlewares/Third_Party/FreeRTOS/Source/include/task.h"
 1560              		.file 12 "Middlewares/Third_Party/FreeRTOS/Source/include/queue.h"
 1561              		.file 13 "Middlewares/Third_Party/FreeRTOS/Source/CMSIS_RTOS/cmsis_os.h"
 1562              		.file 14 "Middlewares/ST/STM32_USB_Host_Library/Core/Inc/usbh_def.h"
 1563              		.file 15 "Middlewares/ST/STM32_USB_Host_Library/Core/Inc/usbh_ctlreq.h"
 1564              		.file 16 "Middlewares/ST/STM32_USB_Host_Library/Core/Inc/usbh_ioreq.h"
 1565              		.file 17 "Middlewares/ST/STM32_USB_Host_Library/Core/Inc/usbh_core.h"
ARM GAS  C:\Users\Student\AppData\Local\Temp\ccR1oIOQ.s 			page 47

